
rocket_KF2.elf:     file format elf32-littlearm

Sections:
Idx Name          Size      VMA       LMA       File off  Algn
  0 .isr_vector   0000010c  08000000  08000000  00010000  2**0
                  CONTENTS, ALLOC, LOAD, READONLY, DATA
  1 .text         0000d330  08000110  08000110  00010110  2**3
                  CONTENTS, ALLOC, LOAD, READONLY, CODE
  2 .rodata       00000ba0  0800d440  0800d440  0001d440  2**3
                  CONTENTS, ALLOC, LOAD, READONLY, DATA
  3 .ARM.extab    00000000  0800dfe0  0800dfe0  00020220  2**0
                  CONTENTS
  4 .ARM          00000000  0800dfe0  0800dfe0  00020220  2**0
                  CONTENTS
  5 .preinit_array 00000000  0800dfe0  0800dfe0  00020220  2**0
                  CONTENTS, ALLOC, LOAD, DATA
  6 .init_array   00000004  0800dfe0  0800dfe0  0001dfe0  2**2
                  CONTENTS, ALLOC, LOAD, DATA
  7 .fini_array   00000004  0800dfe4  0800dfe4  0001dfe4  2**2
                  CONTENTS, ALLOC, LOAD, DATA
  8 .data         00000220  20000000  0800dfe8  00020000  2**3
                  CONTENTS, ALLOC, LOAD, DATA
  9 .bss          00002760  20000220  0800e208  00020220  2**2
                  ALLOC
 10 ._user_heap_stack 00000600  20002980  0800e208  00022980  2**0
                  ALLOC
 11 .ARM.attributes 00000029  00000000  00000000  00020220  2**0
                  CONTENTS, READONLY
 12 .comment      00000043  00000000  00000000  00020249  2**0
                  CONTENTS, READONLY
 13 .debug_frame  000019c8  00000000  00000000  0002028c  2**2
                  CONTENTS, READONLY, DEBUGGING, OCTETS

Disassembly of section .text:

08000110 <__do_global_dtors_aux>:
 8000110:	b510      	push	{r4, lr}
 8000112:	4c05      	ldr	r4, [pc, #20]	; (8000128 <__do_global_dtors_aux+0x18>)
 8000114:	7823      	ldrb	r3, [r4, #0]
 8000116:	b933      	cbnz	r3, 8000126 <__do_global_dtors_aux+0x16>
 8000118:	4b04      	ldr	r3, [pc, #16]	; (800012c <__do_global_dtors_aux+0x1c>)
 800011a:	b113      	cbz	r3, 8000122 <__do_global_dtors_aux+0x12>
 800011c:	4804      	ldr	r0, [pc, #16]	; (8000130 <__do_global_dtors_aux+0x20>)
 800011e:	f3af 8000 	nop.w
 8000122:	2301      	movs	r3, #1
 8000124:	7023      	strb	r3, [r4, #0]
 8000126:	bd10      	pop	{r4, pc}
 8000128:	20000220 	.word	0x20000220
 800012c:	00000000 	.word	0x00000000
 8000130:	0800d428 	.word	0x0800d428

08000134 <frame_dummy>:
 8000134:	b508      	push	{r3, lr}
 8000136:	4b03      	ldr	r3, [pc, #12]	; (8000144 <frame_dummy+0x10>)
 8000138:	b11b      	cbz	r3, 8000142 <frame_dummy+0xe>
 800013a:	4903      	ldr	r1, [pc, #12]	; (8000148 <frame_dummy+0x14>)
 800013c:	4803      	ldr	r0, [pc, #12]	; (800014c <frame_dummy+0x18>)
 800013e:	f3af 8000 	nop.w
 8000142:	bd08      	pop	{r3, pc}
 8000144:	00000000 	.word	0x00000000
 8000148:	20000224 	.word	0x20000224
 800014c:	0800d428 	.word	0x0800d428

08000150 <strlen>:
 8000150:	4603      	mov	r3, r0
 8000152:	f813 2b01 	ldrb.w	r2, [r3], #1
 8000156:	2a00      	cmp	r2, #0
 8000158:	d1fb      	bne.n	8000152 <strlen+0x2>
 800015a:	1a18      	subs	r0, r3, r0
 800015c:	3801      	subs	r0, #1
 800015e:	4770      	bx	lr

08000160 <__aeabi_drsub>:
 8000160:	f081 4100 	eor.w	r1, r1, #2147483648	; 0x80000000
 8000164:	e002      	b.n	800016c <__adddf3>
 8000166:	bf00      	nop

08000168 <__aeabi_dsub>:
 8000168:	f083 4300 	eor.w	r3, r3, #2147483648	; 0x80000000

0800016c <__adddf3>:
 800016c:	b530      	push	{r4, r5, lr}
 800016e:	ea4f 0441 	mov.w	r4, r1, lsl #1
 8000172:	ea4f 0543 	mov.w	r5, r3, lsl #1
 8000176:	ea94 0f05 	teq	r4, r5
 800017a:	bf08      	it	eq
 800017c:	ea90 0f02 	teqeq	r0, r2
 8000180:	bf1f      	itttt	ne
 8000182:	ea54 0c00 	orrsne.w	ip, r4, r0
 8000186:	ea55 0c02 	orrsne.w	ip, r5, r2
 800018a:	ea7f 5c64 	mvnsne.w	ip, r4, asr #21
 800018e:	ea7f 5c65 	mvnsne.w	ip, r5, asr #21
 8000192:	f000 80e2 	beq.w	800035a <__adddf3+0x1ee>
 8000196:	ea4f 5454 	mov.w	r4, r4, lsr #21
 800019a:	ebd4 5555 	rsbs	r5, r4, r5, lsr #21
 800019e:	bfb8      	it	lt
 80001a0:	426d      	neglt	r5, r5
 80001a2:	dd0c      	ble.n	80001be <__adddf3+0x52>
 80001a4:	442c      	add	r4, r5
 80001a6:	ea80 0202 	eor.w	r2, r0, r2
 80001aa:	ea81 0303 	eor.w	r3, r1, r3
 80001ae:	ea82 0000 	eor.w	r0, r2, r0
 80001b2:	ea83 0101 	eor.w	r1, r3, r1
 80001b6:	ea80 0202 	eor.w	r2, r0, r2
 80001ba:	ea81 0303 	eor.w	r3, r1, r3
 80001be:	2d36      	cmp	r5, #54	; 0x36
 80001c0:	bf88      	it	hi
 80001c2:	bd30      	pophi	{r4, r5, pc}
 80001c4:	f011 4f00 	tst.w	r1, #2147483648	; 0x80000000
 80001c8:	ea4f 3101 	mov.w	r1, r1, lsl #12
 80001cc:	f44f 1c80 	mov.w	ip, #1048576	; 0x100000
 80001d0:	ea4c 3111 	orr.w	r1, ip, r1, lsr #12
 80001d4:	d002      	beq.n	80001dc <__adddf3+0x70>
 80001d6:	4240      	negs	r0, r0
 80001d8:	eb61 0141 	sbc.w	r1, r1, r1, lsl #1
 80001dc:	f013 4f00 	tst.w	r3, #2147483648	; 0x80000000
 80001e0:	ea4f 3303 	mov.w	r3, r3, lsl #12
 80001e4:	ea4c 3313 	orr.w	r3, ip, r3, lsr #12
 80001e8:	d002      	beq.n	80001f0 <__adddf3+0x84>
 80001ea:	4252      	negs	r2, r2
 80001ec:	eb63 0343 	sbc.w	r3, r3, r3, lsl #1
 80001f0:	ea94 0f05 	teq	r4, r5
 80001f4:	f000 80a7 	beq.w	8000346 <__adddf3+0x1da>
 80001f8:	f1a4 0401 	sub.w	r4, r4, #1
 80001fc:	f1d5 0e20 	rsbs	lr, r5, #32
 8000200:	db0d      	blt.n	800021e <__adddf3+0xb2>
 8000202:	fa02 fc0e 	lsl.w	ip, r2, lr
 8000206:	fa22 f205 	lsr.w	r2, r2, r5
 800020a:	1880      	adds	r0, r0, r2
 800020c:	f141 0100 	adc.w	r1, r1, #0
 8000210:	fa03 f20e 	lsl.w	r2, r3, lr
 8000214:	1880      	adds	r0, r0, r2
 8000216:	fa43 f305 	asr.w	r3, r3, r5
 800021a:	4159      	adcs	r1, r3
 800021c:	e00e      	b.n	800023c <__adddf3+0xd0>
 800021e:	f1a5 0520 	sub.w	r5, r5, #32
 8000222:	f10e 0e20 	add.w	lr, lr, #32
 8000226:	2a01      	cmp	r2, #1
 8000228:	fa03 fc0e 	lsl.w	ip, r3, lr
 800022c:	bf28      	it	cs
 800022e:	f04c 0c02 	orrcs.w	ip, ip, #2
 8000232:	fa43 f305 	asr.w	r3, r3, r5
 8000236:	18c0      	adds	r0, r0, r3
 8000238:	eb51 71e3 	adcs.w	r1, r1, r3, asr #31
 800023c:	f001 4500 	and.w	r5, r1, #2147483648	; 0x80000000
 8000240:	d507      	bpl.n	8000252 <__adddf3+0xe6>
 8000242:	f04f 0e00 	mov.w	lr, #0
 8000246:	f1dc 0c00 	rsbs	ip, ip, #0
 800024a:	eb7e 0000 	sbcs.w	r0, lr, r0
 800024e:	eb6e 0101 	sbc.w	r1, lr, r1
 8000252:	f5b1 1f80 	cmp.w	r1, #1048576	; 0x100000
 8000256:	d31b      	bcc.n	8000290 <__adddf3+0x124>
 8000258:	f5b1 1f00 	cmp.w	r1, #2097152	; 0x200000
 800025c:	d30c      	bcc.n	8000278 <__adddf3+0x10c>
 800025e:	0849      	lsrs	r1, r1, #1
 8000260:	ea5f 0030 	movs.w	r0, r0, rrx
 8000264:	ea4f 0c3c 	mov.w	ip, ip, rrx
 8000268:	f104 0401 	add.w	r4, r4, #1
 800026c:	ea4f 5244 	mov.w	r2, r4, lsl #21
 8000270:	f512 0f80 	cmn.w	r2, #4194304	; 0x400000
 8000274:	f080 809a 	bcs.w	80003ac <__adddf3+0x240>
 8000278:	f1bc 4f00 	cmp.w	ip, #2147483648	; 0x80000000
 800027c:	bf08      	it	eq
 800027e:	ea5f 0c50 	movseq.w	ip, r0, lsr #1
 8000282:	f150 0000 	adcs.w	r0, r0, #0
 8000286:	eb41 5104 	adc.w	r1, r1, r4, lsl #20
 800028a:	ea41 0105 	orr.w	r1, r1, r5
 800028e:	bd30      	pop	{r4, r5, pc}
 8000290:	ea5f 0c4c 	movs.w	ip, ip, lsl #1
 8000294:	4140      	adcs	r0, r0
 8000296:	eb41 0101 	adc.w	r1, r1, r1
 800029a:	3c01      	subs	r4, #1
 800029c:	bf28      	it	cs
 800029e:	f5b1 1f80 	cmpcs.w	r1, #1048576	; 0x100000
 80002a2:	d2e9      	bcs.n	8000278 <__adddf3+0x10c>
 80002a4:	f091 0f00 	teq	r1, #0
 80002a8:	bf04      	itt	eq
 80002aa:	4601      	moveq	r1, r0
 80002ac:	2000      	moveq	r0, #0
 80002ae:	fab1 f381 	clz	r3, r1
 80002b2:	bf08      	it	eq
 80002b4:	3320      	addeq	r3, #32
 80002b6:	f1a3 030b 	sub.w	r3, r3, #11
 80002ba:	f1b3 0220 	subs.w	r2, r3, #32
 80002be:	da0c      	bge.n	80002da <__adddf3+0x16e>
 80002c0:	320c      	adds	r2, #12
 80002c2:	dd08      	ble.n	80002d6 <__adddf3+0x16a>
 80002c4:	f102 0c14 	add.w	ip, r2, #20
 80002c8:	f1c2 020c 	rsb	r2, r2, #12
 80002cc:	fa01 f00c 	lsl.w	r0, r1, ip
 80002d0:	fa21 f102 	lsr.w	r1, r1, r2
 80002d4:	e00c      	b.n	80002f0 <__adddf3+0x184>
 80002d6:	f102 0214 	add.w	r2, r2, #20
 80002da:	bfd8      	it	le
 80002dc:	f1c2 0c20 	rsble	ip, r2, #32
 80002e0:	fa01 f102 	lsl.w	r1, r1, r2
 80002e4:	fa20 fc0c 	lsr.w	ip, r0, ip
 80002e8:	bfdc      	itt	le
 80002ea:	ea41 010c 	orrle.w	r1, r1, ip
 80002ee:	4090      	lslle	r0, r2
 80002f0:	1ae4      	subs	r4, r4, r3
 80002f2:	bfa2      	ittt	ge
 80002f4:	eb01 5104 	addge.w	r1, r1, r4, lsl #20
 80002f8:	4329      	orrge	r1, r5
 80002fa:	bd30      	popge	{r4, r5, pc}
 80002fc:	ea6f 0404 	mvn.w	r4, r4
 8000300:	3c1f      	subs	r4, #31
 8000302:	da1c      	bge.n	800033e <__adddf3+0x1d2>
 8000304:	340c      	adds	r4, #12
 8000306:	dc0e      	bgt.n	8000326 <__adddf3+0x1ba>
 8000308:	f104 0414 	add.w	r4, r4, #20
 800030c:	f1c4 0220 	rsb	r2, r4, #32
 8000310:	fa20 f004 	lsr.w	r0, r0, r4
 8000314:	fa01 f302 	lsl.w	r3, r1, r2
 8000318:	ea40 0003 	orr.w	r0, r0, r3
 800031c:	fa21 f304 	lsr.w	r3, r1, r4
 8000320:	ea45 0103 	orr.w	r1, r5, r3
 8000324:	bd30      	pop	{r4, r5, pc}
 8000326:	f1c4 040c 	rsb	r4, r4, #12
 800032a:	f1c4 0220 	rsb	r2, r4, #32
 800032e:	fa20 f002 	lsr.w	r0, r0, r2
 8000332:	fa01 f304 	lsl.w	r3, r1, r4
 8000336:	ea40 0003 	orr.w	r0, r0, r3
 800033a:	4629      	mov	r1, r5
 800033c:	bd30      	pop	{r4, r5, pc}
 800033e:	fa21 f004 	lsr.w	r0, r1, r4
 8000342:	4629      	mov	r1, r5
 8000344:	bd30      	pop	{r4, r5, pc}
 8000346:	f094 0f00 	teq	r4, #0
 800034a:	f483 1380 	eor.w	r3, r3, #1048576	; 0x100000
 800034e:	bf06      	itte	eq
 8000350:	f481 1180 	eoreq.w	r1, r1, #1048576	; 0x100000
 8000354:	3401      	addeq	r4, #1
 8000356:	3d01      	subne	r5, #1
 8000358:	e74e      	b.n	80001f8 <__adddf3+0x8c>
 800035a:	ea7f 5c64 	mvns.w	ip, r4, asr #21
 800035e:	bf18      	it	ne
 8000360:	ea7f 5c65 	mvnsne.w	ip, r5, asr #21
 8000364:	d029      	beq.n	80003ba <__adddf3+0x24e>
 8000366:	ea94 0f05 	teq	r4, r5
 800036a:	bf08      	it	eq
 800036c:	ea90 0f02 	teqeq	r0, r2
 8000370:	d005      	beq.n	800037e <__adddf3+0x212>
 8000372:	ea54 0c00 	orrs.w	ip, r4, r0
 8000376:	bf04      	itt	eq
 8000378:	4619      	moveq	r1, r3
 800037a:	4610      	moveq	r0, r2
 800037c:	bd30      	pop	{r4, r5, pc}
 800037e:	ea91 0f03 	teq	r1, r3
 8000382:	bf1e      	ittt	ne
 8000384:	2100      	movne	r1, #0
 8000386:	2000      	movne	r0, #0
 8000388:	bd30      	popne	{r4, r5, pc}
 800038a:	ea5f 5c54 	movs.w	ip, r4, lsr #21
 800038e:	d105      	bne.n	800039c <__adddf3+0x230>
 8000390:	0040      	lsls	r0, r0, #1
 8000392:	4149      	adcs	r1, r1
 8000394:	bf28      	it	cs
 8000396:	f041 4100 	orrcs.w	r1, r1, #2147483648	; 0x80000000
 800039a:	bd30      	pop	{r4, r5, pc}
 800039c:	f514 0480 	adds.w	r4, r4, #4194304	; 0x400000
 80003a0:	bf3c      	itt	cc
 80003a2:	f501 1180 	addcc.w	r1, r1, #1048576	; 0x100000
 80003a6:	bd30      	popcc	{r4, r5, pc}
 80003a8:	f001 4500 	and.w	r5, r1, #2147483648	; 0x80000000
 80003ac:	f045 41fe 	orr.w	r1, r5, #2130706432	; 0x7f000000
 80003b0:	f441 0170 	orr.w	r1, r1, #15728640	; 0xf00000
 80003b4:	f04f 0000 	mov.w	r0, #0
 80003b8:	bd30      	pop	{r4, r5, pc}
 80003ba:	ea7f 5c64 	mvns.w	ip, r4, asr #21
 80003be:	bf1a      	itte	ne
 80003c0:	4619      	movne	r1, r3
 80003c2:	4610      	movne	r0, r2
 80003c4:	ea7f 5c65 	mvnseq.w	ip, r5, asr #21
 80003c8:	bf1c      	itt	ne
 80003ca:	460b      	movne	r3, r1
 80003cc:	4602      	movne	r2, r0
 80003ce:	ea50 3401 	orrs.w	r4, r0, r1, lsl #12
 80003d2:	bf06      	itte	eq
 80003d4:	ea52 3503 	orrseq.w	r5, r2, r3, lsl #12
 80003d8:	ea91 0f03 	teqeq	r1, r3
 80003dc:	f441 2100 	orrne.w	r1, r1, #524288	; 0x80000
 80003e0:	bd30      	pop	{r4, r5, pc}
 80003e2:	bf00      	nop

080003e4 <__aeabi_ui2d>:
 80003e4:	f090 0f00 	teq	r0, #0
 80003e8:	bf04      	itt	eq
 80003ea:	2100      	moveq	r1, #0
 80003ec:	4770      	bxeq	lr
 80003ee:	b530      	push	{r4, r5, lr}
 80003f0:	f44f 6480 	mov.w	r4, #1024	; 0x400
 80003f4:	f104 0432 	add.w	r4, r4, #50	; 0x32
 80003f8:	f04f 0500 	mov.w	r5, #0
 80003fc:	f04f 0100 	mov.w	r1, #0
 8000400:	e750      	b.n	80002a4 <__adddf3+0x138>
 8000402:	bf00      	nop

08000404 <__aeabi_i2d>:
 8000404:	f090 0f00 	teq	r0, #0
 8000408:	bf04      	itt	eq
 800040a:	2100      	moveq	r1, #0
 800040c:	4770      	bxeq	lr
 800040e:	b530      	push	{r4, r5, lr}
 8000410:	f44f 6480 	mov.w	r4, #1024	; 0x400
 8000414:	f104 0432 	add.w	r4, r4, #50	; 0x32
 8000418:	f010 4500 	ands.w	r5, r0, #2147483648	; 0x80000000
 800041c:	bf48      	it	mi
 800041e:	4240      	negmi	r0, r0
 8000420:	f04f 0100 	mov.w	r1, #0
 8000424:	e73e      	b.n	80002a4 <__adddf3+0x138>
 8000426:	bf00      	nop

08000428 <__aeabi_f2d>:
 8000428:	0042      	lsls	r2, r0, #1
 800042a:	ea4f 01e2 	mov.w	r1, r2, asr #3
 800042e:	ea4f 0131 	mov.w	r1, r1, rrx
 8000432:	ea4f 7002 	mov.w	r0, r2, lsl #28
 8000436:	bf1f      	itttt	ne
 8000438:	f012 437f 	andsne.w	r3, r2, #4278190080	; 0xff000000
 800043c:	f093 4f7f 	teqne	r3, #4278190080	; 0xff000000
 8000440:	f081 5160 	eorne.w	r1, r1, #939524096	; 0x38000000
 8000444:	4770      	bxne	lr
 8000446:	f032 427f 	bics.w	r2, r2, #4278190080	; 0xff000000
 800044a:	bf08      	it	eq
 800044c:	4770      	bxeq	lr
 800044e:	f093 4f7f 	teq	r3, #4278190080	; 0xff000000
 8000452:	bf04      	itt	eq
 8000454:	f441 2100 	orreq.w	r1, r1, #524288	; 0x80000
 8000458:	4770      	bxeq	lr
 800045a:	b530      	push	{r4, r5, lr}
 800045c:	f44f 7460 	mov.w	r4, #896	; 0x380
 8000460:	f001 4500 	and.w	r5, r1, #2147483648	; 0x80000000
 8000464:	f021 4100 	bic.w	r1, r1, #2147483648	; 0x80000000
 8000468:	e71c      	b.n	80002a4 <__adddf3+0x138>
 800046a:	bf00      	nop

0800046c <__aeabi_ul2d>:
 800046c:	ea50 0201 	orrs.w	r2, r0, r1
 8000470:	bf08      	it	eq
 8000472:	4770      	bxeq	lr
 8000474:	b530      	push	{r4, r5, lr}
 8000476:	f04f 0500 	mov.w	r5, #0
 800047a:	e00a      	b.n	8000492 <__aeabi_l2d+0x16>

0800047c <__aeabi_l2d>:
 800047c:	ea50 0201 	orrs.w	r2, r0, r1
 8000480:	bf08      	it	eq
 8000482:	4770      	bxeq	lr
 8000484:	b530      	push	{r4, r5, lr}
 8000486:	f011 4500 	ands.w	r5, r1, #2147483648	; 0x80000000
 800048a:	d502      	bpl.n	8000492 <__aeabi_l2d+0x16>
 800048c:	4240      	negs	r0, r0
 800048e:	eb61 0141 	sbc.w	r1, r1, r1, lsl #1
 8000492:	f44f 6480 	mov.w	r4, #1024	; 0x400
 8000496:	f104 0432 	add.w	r4, r4, #50	; 0x32
 800049a:	ea5f 5c91 	movs.w	ip, r1, lsr #22
 800049e:	f43f aed8 	beq.w	8000252 <__adddf3+0xe6>
 80004a2:	f04f 0203 	mov.w	r2, #3
 80004a6:	ea5f 0cdc 	movs.w	ip, ip, lsr #3
 80004aa:	bf18      	it	ne
 80004ac:	3203      	addne	r2, #3
 80004ae:	ea5f 0cdc 	movs.w	ip, ip, lsr #3
 80004b2:	bf18      	it	ne
 80004b4:	3203      	addne	r2, #3
 80004b6:	eb02 02dc 	add.w	r2, r2, ip, lsr #3
 80004ba:	f1c2 0320 	rsb	r3, r2, #32
 80004be:	fa00 fc03 	lsl.w	ip, r0, r3
 80004c2:	fa20 f002 	lsr.w	r0, r0, r2
 80004c6:	fa01 fe03 	lsl.w	lr, r1, r3
 80004ca:	ea40 000e 	orr.w	r0, r0, lr
 80004ce:	fa21 f102 	lsr.w	r1, r1, r2
 80004d2:	4414      	add	r4, r2
 80004d4:	e6bd      	b.n	8000252 <__adddf3+0xe6>
 80004d6:	bf00      	nop

080004d8 <__aeabi_dmul>:
 80004d8:	b570      	push	{r4, r5, r6, lr}
 80004da:	f04f 0cff 	mov.w	ip, #255	; 0xff
 80004de:	f44c 6ce0 	orr.w	ip, ip, #1792	; 0x700
 80004e2:	ea1c 5411 	ands.w	r4, ip, r1, lsr #20
 80004e6:	bf1d      	ittte	ne
 80004e8:	ea1c 5513 	andsne.w	r5, ip, r3, lsr #20
 80004ec:	ea94 0f0c 	teqne	r4, ip
 80004f0:	ea95 0f0c 	teqne	r5, ip
 80004f4:	f000 f8de 	bleq	80006b4 <__aeabi_dmul+0x1dc>
 80004f8:	442c      	add	r4, r5
 80004fa:	ea81 0603 	eor.w	r6, r1, r3
 80004fe:	ea21 514c 	bic.w	r1, r1, ip, lsl #21
 8000502:	ea23 534c 	bic.w	r3, r3, ip, lsl #21
 8000506:	ea50 3501 	orrs.w	r5, r0, r1, lsl #12
 800050a:	bf18      	it	ne
 800050c:	ea52 3503 	orrsne.w	r5, r2, r3, lsl #12
 8000510:	f441 1180 	orr.w	r1, r1, #1048576	; 0x100000
 8000514:	f443 1380 	orr.w	r3, r3, #1048576	; 0x100000
 8000518:	d038      	beq.n	800058c <__aeabi_dmul+0xb4>
 800051a:	fba0 ce02 	umull	ip, lr, r0, r2
 800051e:	f04f 0500 	mov.w	r5, #0
 8000522:	fbe1 e502 	umlal	lr, r5, r1, r2
 8000526:	f006 4200 	and.w	r2, r6, #2147483648	; 0x80000000
 800052a:	fbe0 e503 	umlal	lr, r5, r0, r3
 800052e:	f04f 0600 	mov.w	r6, #0
 8000532:	fbe1 5603 	umlal	r5, r6, r1, r3
 8000536:	f09c 0f00 	teq	ip, #0
 800053a:	bf18      	it	ne
 800053c:	f04e 0e01 	orrne.w	lr, lr, #1
 8000540:	f1a4 04ff 	sub.w	r4, r4, #255	; 0xff
 8000544:	f5b6 7f00 	cmp.w	r6, #512	; 0x200
 8000548:	f564 7440 	sbc.w	r4, r4, #768	; 0x300
 800054c:	d204      	bcs.n	8000558 <__aeabi_dmul+0x80>
 800054e:	ea5f 0e4e 	movs.w	lr, lr, lsl #1
 8000552:	416d      	adcs	r5, r5
 8000554:	eb46 0606 	adc.w	r6, r6, r6
 8000558:	ea42 21c6 	orr.w	r1, r2, r6, lsl #11
 800055c:	ea41 5155 	orr.w	r1, r1, r5, lsr #21
 8000560:	ea4f 20c5 	mov.w	r0, r5, lsl #11
 8000564:	ea40 505e 	orr.w	r0, r0, lr, lsr #21
 8000568:	ea4f 2ece 	mov.w	lr, lr, lsl #11
 800056c:	f1b4 0cfd 	subs.w	ip, r4, #253	; 0xfd
 8000570:	bf88      	it	hi
 8000572:	f5bc 6fe0 	cmphi.w	ip, #1792	; 0x700
 8000576:	d81e      	bhi.n	80005b6 <__aeabi_dmul+0xde>
 8000578:	f1be 4f00 	cmp.w	lr, #2147483648	; 0x80000000
 800057c:	bf08      	it	eq
 800057e:	ea5f 0e50 	movseq.w	lr, r0, lsr #1
 8000582:	f150 0000 	adcs.w	r0, r0, #0
 8000586:	eb41 5104 	adc.w	r1, r1, r4, lsl #20
 800058a:	bd70      	pop	{r4, r5, r6, pc}
 800058c:	f006 4600 	and.w	r6, r6, #2147483648	; 0x80000000
 8000590:	ea46 0101 	orr.w	r1, r6, r1
 8000594:	ea40 0002 	orr.w	r0, r0, r2
 8000598:	ea81 0103 	eor.w	r1, r1, r3
 800059c:	ebb4 045c 	subs.w	r4, r4, ip, lsr #1
 80005a0:	bfc2      	ittt	gt
 80005a2:	ebd4 050c 	rsbsgt	r5, r4, ip
 80005a6:	ea41 5104 	orrgt.w	r1, r1, r4, lsl #20
 80005aa:	bd70      	popgt	{r4, r5, r6, pc}
 80005ac:	f441 1180 	orr.w	r1, r1, #1048576	; 0x100000
 80005b0:	f04f 0e00 	mov.w	lr, #0
 80005b4:	3c01      	subs	r4, #1
 80005b6:	f300 80ab 	bgt.w	8000710 <__aeabi_dmul+0x238>
 80005ba:	f114 0f36 	cmn.w	r4, #54	; 0x36
 80005be:	bfde      	ittt	le
 80005c0:	2000      	movle	r0, #0
 80005c2:	f001 4100 	andle.w	r1, r1, #2147483648	; 0x80000000
 80005c6:	bd70      	pople	{r4, r5, r6, pc}
 80005c8:	f1c4 0400 	rsb	r4, r4, #0
 80005cc:	3c20      	subs	r4, #32
 80005ce:	da35      	bge.n	800063c <__aeabi_dmul+0x164>
 80005d0:	340c      	adds	r4, #12
 80005d2:	dc1b      	bgt.n	800060c <__aeabi_dmul+0x134>
 80005d4:	f104 0414 	add.w	r4, r4, #20
 80005d8:	f1c4 0520 	rsb	r5, r4, #32
 80005dc:	fa00 f305 	lsl.w	r3, r0, r5
 80005e0:	fa20 f004 	lsr.w	r0, r0, r4
 80005e4:	fa01 f205 	lsl.w	r2, r1, r5
 80005e8:	ea40 0002 	orr.w	r0, r0, r2
 80005ec:	f001 4200 	and.w	r2, r1, #2147483648	; 0x80000000
 80005f0:	f021 4100 	bic.w	r1, r1, #2147483648	; 0x80000000
 80005f4:	eb10 70d3 	adds.w	r0, r0, r3, lsr #31
 80005f8:	fa21 f604 	lsr.w	r6, r1, r4
 80005fc:	eb42 0106 	adc.w	r1, r2, r6
 8000600:	ea5e 0e43 	orrs.w	lr, lr, r3, lsl #1
 8000604:	bf08      	it	eq
 8000606:	ea20 70d3 	biceq.w	r0, r0, r3, lsr #31
 800060a:	bd70      	pop	{r4, r5, r6, pc}
 800060c:	f1c4 040c 	rsb	r4, r4, #12
 8000610:	f1c4 0520 	rsb	r5, r4, #32
 8000614:	fa00 f304 	lsl.w	r3, r0, r4
 8000618:	fa20 f005 	lsr.w	r0, r0, r5
 800061c:	fa01 f204 	lsl.w	r2, r1, r4
 8000620:	ea40 0002 	orr.w	r0, r0, r2
 8000624:	f001 4100 	and.w	r1, r1, #2147483648	; 0x80000000
 8000628:	eb10 70d3 	adds.w	r0, r0, r3, lsr #31
 800062c:	f141 0100 	adc.w	r1, r1, #0
 8000630:	ea5e 0e43 	orrs.w	lr, lr, r3, lsl #1
 8000634:	bf08      	it	eq
 8000636:	ea20 70d3 	biceq.w	r0, r0, r3, lsr #31
 800063a:	bd70      	pop	{r4, r5, r6, pc}
 800063c:	f1c4 0520 	rsb	r5, r4, #32
 8000640:	fa00 f205 	lsl.w	r2, r0, r5
 8000644:	ea4e 0e02 	orr.w	lr, lr, r2
 8000648:	fa20 f304 	lsr.w	r3, r0, r4
 800064c:	fa01 f205 	lsl.w	r2, r1, r5
 8000650:	ea43 0302 	orr.w	r3, r3, r2
 8000654:	fa21 f004 	lsr.w	r0, r1, r4
 8000658:	f001 4100 	and.w	r1, r1, #2147483648	; 0x80000000
 800065c:	fa21 f204 	lsr.w	r2, r1, r4
 8000660:	ea20 0002 	bic.w	r0, r0, r2
 8000664:	eb00 70d3 	add.w	r0, r0, r3, lsr #31
 8000668:	ea5e 0e43 	orrs.w	lr, lr, r3, lsl #1
 800066c:	bf08      	it	eq
 800066e:	ea20 70d3 	biceq.w	r0, r0, r3, lsr #31
 8000672:	bd70      	pop	{r4, r5, r6, pc}
 8000674:	f094 0f00 	teq	r4, #0
 8000678:	d10f      	bne.n	800069a <__aeabi_dmul+0x1c2>
 800067a:	f001 4600 	and.w	r6, r1, #2147483648	; 0x80000000
 800067e:	0040      	lsls	r0, r0, #1
 8000680:	eb41 0101 	adc.w	r1, r1, r1
 8000684:	f411 1f80 	tst.w	r1, #1048576	; 0x100000
 8000688:	bf08      	it	eq
 800068a:	3c01      	subeq	r4, #1
 800068c:	d0f7      	beq.n	800067e <__aeabi_dmul+0x1a6>
 800068e:	ea41 0106 	orr.w	r1, r1, r6
 8000692:	f095 0f00 	teq	r5, #0
 8000696:	bf18      	it	ne
 8000698:	4770      	bxne	lr
 800069a:	f003 4600 	and.w	r6, r3, #2147483648	; 0x80000000
 800069e:	0052      	lsls	r2, r2, #1
 80006a0:	eb43 0303 	adc.w	r3, r3, r3
 80006a4:	f413 1f80 	tst.w	r3, #1048576	; 0x100000
 80006a8:	bf08      	it	eq
 80006aa:	3d01      	subeq	r5, #1
 80006ac:	d0f7      	beq.n	800069e <__aeabi_dmul+0x1c6>
 80006ae:	ea43 0306 	orr.w	r3, r3, r6
 80006b2:	4770      	bx	lr
 80006b4:	ea94 0f0c 	teq	r4, ip
 80006b8:	ea0c 5513 	and.w	r5, ip, r3, lsr #20
 80006bc:	bf18      	it	ne
 80006be:	ea95 0f0c 	teqne	r5, ip
 80006c2:	d00c      	beq.n	80006de <__aeabi_dmul+0x206>
 80006c4:	ea50 0641 	orrs.w	r6, r0, r1, lsl #1
 80006c8:	bf18      	it	ne
 80006ca:	ea52 0643 	orrsne.w	r6, r2, r3, lsl #1
 80006ce:	d1d1      	bne.n	8000674 <__aeabi_dmul+0x19c>
 80006d0:	ea81 0103 	eor.w	r1, r1, r3
 80006d4:	f001 4100 	and.w	r1, r1, #2147483648	; 0x80000000
 80006d8:	f04f 0000 	mov.w	r0, #0
 80006dc:	bd70      	pop	{r4, r5, r6, pc}
 80006de:	ea50 0641 	orrs.w	r6, r0, r1, lsl #1
 80006e2:	bf06      	itte	eq
 80006e4:	4610      	moveq	r0, r2
 80006e6:	4619      	moveq	r1, r3
 80006e8:	ea52 0643 	orrsne.w	r6, r2, r3, lsl #1
 80006ec:	d019      	beq.n	8000722 <__aeabi_dmul+0x24a>
 80006ee:	ea94 0f0c 	teq	r4, ip
 80006f2:	d102      	bne.n	80006fa <__aeabi_dmul+0x222>
 80006f4:	ea50 3601 	orrs.w	r6, r0, r1, lsl #12
 80006f8:	d113      	bne.n	8000722 <__aeabi_dmul+0x24a>
 80006fa:	ea95 0f0c 	teq	r5, ip
 80006fe:	d105      	bne.n	800070c <__aeabi_dmul+0x234>
 8000700:	ea52 3603 	orrs.w	r6, r2, r3, lsl #12
 8000704:	bf1c      	itt	ne
 8000706:	4610      	movne	r0, r2
 8000708:	4619      	movne	r1, r3
 800070a:	d10a      	bne.n	8000722 <__aeabi_dmul+0x24a>
 800070c:	ea81 0103 	eor.w	r1, r1, r3
 8000710:	f001 4100 	and.w	r1, r1, #2147483648	; 0x80000000
 8000714:	f041 41fe 	orr.w	r1, r1, #2130706432	; 0x7f000000
 8000718:	f441 0170 	orr.w	r1, r1, #15728640	; 0xf00000
 800071c:	f04f 0000 	mov.w	r0, #0
 8000720:	bd70      	pop	{r4, r5, r6, pc}
 8000722:	f041 41fe 	orr.w	r1, r1, #2130706432	; 0x7f000000
 8000726:	f441 0178 	orr.w	r1, r1, #16252928	; 0xf80000
 800072a:	bd70      	pop	{r4, r5, r6, pc}

0800072c <__aeabi_ddiv>:
 800072c:	b570      	push	{r4, r5, r6, lr}
 800072e:	f04f 0cff 	mov.w	ip, #255	; 0xff
 8000732:	f44c 6ce0 	orr.w	ip, ip, #1792	; 0x700
 8000736:	ea1c 5411 	ands.w	r4, ip, r1, lsr #20
 800073a:	bf1d      	ittte	ne
 800073c:	ea1c 5513 	andsne.w	r5, ip, r3, lsr #20
 8000740:	ea94 0f0c 	teqne	r4, ip
 8000744:	ea95 0f0c 	teqne	r5, ip
 8000748:	f000 f8a7 	bleq	800089a <__aeabi_ddiv+0x16e>
 800074c:	eba4 0405 	sub.w	r4, r4, r5
 8000750:	ea81 0e03 	eor.w	lr, r1, r3
 8000754:	ea52 3503 	orrs.w	r5, r2, r3, lsl #12
 8000758:	ea4f 3101 	mov.w	r1, r1, lsl #12
 800075c:	f000 8088 	beq.w	8000870 <__aeabi_ddiv+0x144>
 8000760:	ea4f 3303 	mov.w	r3, r3, lsl #12
 8000764:	f04f 5580 	mov.w	r5, #268435456	; 0x10000000
 8000768:	ea45 1313 	orr.w	r3, r5, r3, lsr #4
 800076c:	ea43 6312 	orr.w	r3, r3, r2, lsr #24
 8000770:	ea4f 2202 	mov.w	r2, r2, lsl #8
 8000774:	ea45 1511 	orr.w	r5, r5, r1, lsr #4
 8000778:	ea45 6510 	orr.w	r5, r5, r0, lsr #24
 800077c:	ea4f 2600 	mov.w	r6, r0, lsl #8
 8000780:	f00e 4100 	and.w	r1, lr, #2147483648	; 0x80000000
 8000784:	429d      	cmp	r5, r3
 8000786:	bf08      	it	eq
 8000788:	4296      	cmpeq	r6, r2
 800078a:	f144 04fd 	adc.w	r4, r4, #253	; 0xfd
 800078e:	f504 7440 	add.w	r4, r4, #768	; 0x300
 8000792:	d202      	bcs.n	800079a <__aeabi_ddiv+0x6e>
 8000794:	085b      	lsrs	r3, r3, #1
 8000796:	ea4f 0232 	mov.w	r2, r2, rrx
 800079a:	1ab6      	subs	r6, r6, r2
 800079c:	eb65 0503 	sbc.w	r5, r5, r3
 80007a0:	085b      	lsrs	r3, r3, #1
 80007a2:	ea4f 0232 	mov.w	r2, r2, rrx
 80007a6:	f44f 1080 	mov.w	r0, #1048576	; 0x100000
 80007aa:	f44f 2c00 	mov.w	ip, #524288	; 0x80000
 80007ae:	ebb6 0e02 	subs.w	lr, r6, r2
 80007b2:	eb75 0e03 	sbcs.w	lr, r5, r3
 80007b6:	bf22      	ittt	cs
 80007b8:	1ab6      	subcs	r6, r6, r2
 80007ba:	4675      	movcs	r5, lr
 80007bc:	ea40 000c 	orrcs.w	r0, r0, ip
 80007c0:	085b      	lsrs	r3, r3, #1
 80007c2:	ea4f 0232 	mov.w	r2, r2, rrx
 80007c6:	ebb6 0e02 	subs.w	lr, r6, r2
 80007ca:	eb75 0e03 	sbcs.w	lr, r5, r3
 80007ce:	bf22      	ittt	cs
 80007d0:	1ab6      	subcs	r6, r6, r2
 80007d2:	4675      	movcs	r5, lr
 80007d4:	ea40 005c 	orrcs.w	r0, r0, ip, lsr #1
 80007d8:	085b      	lsrs	r3, r3, #1
 80007da:	ea4f 0232 	mov.w	r2, r2, rrx
 80007de:	ebb6 0e02 	subs.w	lr, r6, r2
 80007e2:	eb75 0e03 	sbcs.w	lr, r5, r3
 80007e6:	bf22      	ittt	cs
 80007e8:	1ab6      	subcs	r6, r6, r2
 80007ea:	4675      	movcs	r5, lr
 80007ec:	ea40 009c 	orrcs.w	r0, r0, ip, lsr #2
 80007f0:	085b      	lsrs	r3, r3, #1
 80007f2:	ea4f 0232 	mov.w	r2, r2, rrx
 80007f6:	ebb6 0e02 	subs.w	lr, r6, r2
 80007fa:	eb75 0e03 	sbcs.w	lr, r5, r3
 80007fe:	bf22      	ittt	cs
 8000800:	1ab6      	subcs	r6, r6, r2
 8000802:	4675      	movcs	r5, lr
 8000804:	ea40 00dc 	orrcs.w	r0, r0, ip, lsr #3
 8000808:	ea55 0e06 	orrs.w	lr, r5, r6
 800080c:	d018      	beq.n	8000840 <__aeabi_ddiv+0x114>
 800080e:	ea4f 1505 	mov.w	r5, r5, lsl #4
 8000812:	ea45 7516 	orr.w	r5, r5, r6, lsr #28
 8000816:	ea4f 1606 	mov.w	r6, r6, lsl #4
 800081a:	ea4f 03c3 	mov.w	r3, r3, lsl #3
 800081e:	ea43 7352 	orr.w	r3, r3, r2, lsr #29
 8000822:	ea4f 02c2 	mov.w	r2, r2, lsl #3
 8000826:	ea5f 1c1c 	movs.w	ip, ip, lsr #4
 800082a:	d1c0      	bne.n	80007ae <__aeabi_ddiv+0x82>
 800082c:	f411 1f80 	tst.w	r1, #1048576	; 0x100000
 8000830:	d10b      	bne.n	800084a <__aeabi_ddiv+0x11e>
 8000832:	ea41 0100 	orr.w	r1, r1, r0
 8000836:	f04f 0000 	mov.w	r0, #0
 800083a:	f04f 4c00 	mov.w	ip, #2147483648	; 0x80000000
 800083e:	e7b6      	b.n	80007ae <__aeabi_ddiv+0x82>
 8000840:	f411 1f80 	tst.w	r1, #1048576	; 0x100000
 8000844:	bf04      	itt	eq
 8000846:	4301      	orreq	r1, r0
 8000848:	2000      	moveq	r0, #0
 800084a:	f1b4 0cfd 	subs.w	ip, r4, #253	; 0xfd
 800084e:	bf88      	it	hi
 8000850:	f5bc 6fe0 	cmphi.w	ip, #1792	; 0x700
 8000854:	f63f aeaf 	bhi.w	80005b6 <__aeabi_dmul+0xde>
 8000858:	ebb5 0c03 	subs.w	ip, r5, r3
 800085c:	bf04      	itt	eq
 800085e:	ebb6 0c02 	subseq.w	ip, r6, r2
 8000862:	ea5f 0c50 	movseq.w	ip, r0, lsr #1
 8000866:	f150 0000 	adcs.w	r0, r0, #0
 800086a:	eb41 5104 	adc.w	r1, r1, r4, lsl #20
 800086e:	bd70      	pop	{r4, r5, r6, pc}
 8000870:	f00e 4e00 	and.w	lr, lr, #2147483648	; 0x80000000
 8000874:	ea4e 3111 	orr.w	r1, lr, r1, lsr #12
 8000878:	eb14 045c 	adds.w	r4, r4, ip, lsr #1
 800087c:	bfc2      	ittt	gt
 800087e:	ebd4 050c 	rsbsgt	r5, r4, ip
 8000882:	ea41 5104 	orrgt.w	r1, r1, r4, lsl #20
 8000886:	bd70      	popgt	{r4, r5, r6, pc}
 8000888:	f441 1180 	orr.w	r1, r1, #1048576	; 0x100000
 800088c:	f04f 0e00 	mov.w	lr, #0
 8000890:	3c01      	subs	r4, #1
 8000892:	e690      	b.n	80005b6 <__aeabi_dmul+0xde>
 8000894:	ea45 0e06 	orr.w	lr, r5, r6
 8000898:	e68d      	b.n	80005b6 <__aeabi_dmul+0xde>
 800089a:	ea0c 5513 	and.w	r5, ip, r3, lsr #20
 800089e:	ea94 0f0c 	teq	r4, ip
 80008a2:	bf08      	it	eq
 80008a4:	ea95 0f0c 	teqeq	r5, ip
 80008a8:	f43f af3b 	beq.w	8000722 <__aeabi_dmul+0x24a>
 80008ac:	ea94 0f0c 	teq	r4, ip
 80008b0:	d10a      	bne.n	80008c8 <__aeabi_ddiv+0x19c>
 80008b2:	ea50 3401 	orrs.w	r4, r0, r1, lsl #12
 80008b6:	f47f af34 	bne.w	8000722 <__aeabi_dmul+0x24a>
 80008ba:	ea95 0f0c 	teq	r5, ip
 80008be:	f47f af25 	bne.w	800070c <__aeabi_dmul+0x234>
 80008c2:	4610      	mov	r0, r2
 80008c4:	4619      	mov	r1, r3
 80008c6:	e72c      	b.n	8000722 <__aeabi_dmul+0x24a>
 80008c8:	ea95 0f0c 	teq	r5, ip
 80008cc:	d106      	bne.n	80008dc <__aeabi_ddiv+0x1b0>
 80008ce:	ea52 3503 	orrs.w	r5, r2, r3, lsl #12
 80008d2:	f43f aefd 	beq.w	80006d0 <__aeabi_dmul+0x1f8>
 80008d6:	4610      	mov	r0, r2
 80008d8:	4619      	mov	r1, r3
 80008da:	e722      	b.n	8000722 <__aeabi_dmul+0x24a>
 80008dc:	ea50 0641 	orrs.w	r6, r0, r1, lsl #1
 80008e0:	bf18      	it	ne
 80008e2:	ea52 0643 	orrsne.w	r6, r2, r3, lsl #1
 80008e6:	f47f aec5 	bne.w	8000674 <__aeabi_dmul+0x19c>
 80008ea:	ea50 0441 	orrs.w	r4, r0, r1, lsl #1
 80008ee:	f47f af0d 	bne.w	800070c <__aeabi_dmul+0x234>
 80008f2:	ea52 0543 	orrs.w	r5, r2, r3, lsl #1
 80008f6:	f47f aeeb 	bne.w	80006d0 <__aeabi_dmul+0x1f8>
 80008fa:	e712      	b.n	8000722 <__aeabi_dmul+0x24a>

080008fc <__gedf2>:
 80008fc:	f04f 3cff 	mov.w	ip, #4294967295
 8000900:	e006      	b.n	8000910 <__cmpdf2+0x4>
 8000902:	bf00      	nop

08000904 <__ledf2>:
 8000904:	f04f 0c01 	mov.w	ip, #1
 8000908:	e002      	b.n	8000910 <__cmpdf2+0x4>
 800090a:	bf00      	nop

0800090c <__cmpdf2>:
 800090c:	f04f 0c01 	mov.w	ip, #1
 8000910:	f84d cd04 	str.w	ip, [sp, #-4]!
 8000914:	ea4f 0c41 	mov.w	ip, r1, lsl #1
 8000918:	ea7f 5c6c 	mvns.w	ip, ip, asr #21
 800091c:	ea4f 0c43 	mov.w	ip, r3, lsl #1
 8000920:	bf18      	it	ne
 8000922:	ea7f 5c6c 	mvnsne.w	ip, ip, asr #21
 8000926:	d01b      	beq.n	8000960 <__cmpdf2+0x54>
 8000928:	b001      	add	sp, #4
 800092a:	ea50 0c41 	orrs.w	ip, r0, r1, lsl #1
 800092e:	bf0c      	ite	eq
 8000930:	ea52 0c43 	orrseq.w	ip, r2, r3, lsl #1
 8000934:	ea91 0f03 	teqne	r1, r3
 8000938:	bf02      	ittt	eq
 800093a:	ea90 0f02 	teqeq	r0, r2
 800093e:	2000      	moveq	r0, #0
 8000940:	4770      	bxeq	lr
 8000942:	f110 0f00 	cmn.w	r0, #0
 8000946:	ea91 0f03 	teq	r1, r3
 800094a:	bf58      	it	pl
 800094c:	4299      	cmppl	r1, r3
 800094e:	bf08      	it	eq
 8000950:	4290      	cmpeq	r0, r2
 8000952:	bf2c      	ite	cs
 8000954:	17d8      	asrcs	r0, r3, #31
 8000956:	ea6f 70e3 	mvncc.w	r0, r3, asr #31
 800095a:	f040 0001 	orr.w	r0, r0, #1
 800095e:	4770      	bx	lr
 8000960:	ea4f 0c41 	mov.w	ip, r1, lsl #1
 8000964:	ea7f 5c6c 	mvns.w	ip, ip, asr #21
 8000968:	d102      	bne.n	8000970 <__cmpdf2+0x64>
 800096a:	ea50 3c01 	orrs.w	ip, r0, r1, lsl #12
 800096e:	d107      	bne.n	8000980 <__cmpdf2+0x74>
 8000970:	ea4f 0c43 	mov.w	ip, r3, lsl #1
 8000974:	ea7f 5c6c 	mvns.w	ip, ip, asr #21
 8000978:	d1d6      	bne.n	8000928 <__cmpdf2+0x1c>
 800097a:	ea52 3c03 	orrs.w	ip, r2, r3, lsl #12
 800097e:	d0d3      	beq.n	8000928 <__cmpdf2+0x1c>
 8000980:	f85d 0b04 	ldr.w	r0, [sp], #4
 8000984:	4770      	bx	lr
 8000986:	bf00      	nop

08000988 <__aeabi_cdrcmple>:
 8000988:	4684      	mov	ip, r0
 800098a:	4610      	mov	r0, r2
 800098c:	4662      	mov	r2, ip
 800098e:	468c      	mov	ip, r1
 8000990:	4619      	mov	r1, r3
 8000992:	4663      	mov	r3, ip
 8000994:	e000      	b.n	8000998 <__aeabi_cdcmpeq>
 8000996:	bf00      	nop

08000998 <__aeabi_cdcmpeq>:
 8000998:	b501      	push	{r0, lr}
 800099a:	f7ff ffb7 	bl	800090c <__cmpdf2>
 800099e:	2800      	cmp	r0, #0
 80009a0:	bf48      	it	mi
 80009a2:	f110 0f00 	cmnmi.w	r0, #0
 80009a6:	bd01      	pop	{r0, pc}

080009a8 <__aeabi_dcmpeq>:
 80009a8:	f84d ed08 	str.w	lr, [sp, #-8]!
 80009ac:	f7ff fff4 	bl	8000998 <__aeabi_cdcmpeq>
 80009b0:	bf0c      	ite	eq
 80009b2:	2001      	moveq	r0, #1
 80009b4:	2000      	movne	r0, #0
 80009b6:	f85d fb08 	ldr.w	pc, [sp], #8
 80009ba:	bf00      	nop

080009bc <__aeabi_dcmplt>:
 80009bc:	f84d ed08 	str.w	lr, [sp, #-8]!
 80009c0:	f7ff ffea 	bl	8000998 <__aeabi_cdcmpeq>
 80009c4:	bf34      	ite	cc
 80009c6:	2001      	movcc	r0, #1
 80009c8:	2000      	movcs	r0, #0
 80009ca:	f85d fb08 	ldr.w	pc, [sp], #8
 80009ce:	bf00      	nop

080009d0 <__aeabi_dcmple>:
 80009d0:	f84d ed08 	str.w	lr, [sp, #-8]!
 80009d4:	f7ff ffe0 	bl	8000998 <__aeabi_cdcmpeq>
 80009d8:	bf94      	ite	ls
 80009da:	2001      	movls	r0, #1
 80009dc:	2000      	movhi	r0, #0
 80009de:	f85d fb08 	ldr.w	pc, [sp], #8
 80009e2:	bf00      	nop

080009e4 <__aeabi_dcmpge>:
 80009e4:	f84d ed08 	str.w	lr, [sp, #-8]!
 80009e8:	f7ff ffce 	bl	8000988 <__aeabi_cdrcmple>
 80009ec:	bf94      	ite	ls
 80009ee:	2001      	movls	r0, #1
 80009f0:	2000      	movhi	r0, #0
 80009f2:	f85d fb08 	ldr.w	pc, [sp], #8
 80009f6:	bf00      	nop

080009f8 <__aeabi_dcmpgt>:
 80009f8:	f84d ed08 	str.w	lr, [sp, #-8]!
 80009fc:	f7ff ffc4 	bl	8000988 <__aeabi_cdrcmple>
 8000a00:	bf34      	ite	cc
 8000a02:	2001      	movcc	r0, #1
 8000a04:	2000      	movcs	r0, #0
 8000a06:	f85d fb08 	ldr.w	pc, [sp], #8
 8000a0a:	bf00      	nop

08000a0c <__aeabi_dcmpun>:
 8000a0c:	ea4f 0c41 	mov.w	ip, r1, lsl #1
 8000a10:	ea7f 5c6c 	mvns.w	ip, ip, asr #21
 8000a14:	d102      	bne.n	8000a1c <__aeabi_dcmpun+0x10>
 8000a16:	ea50 3c01 	orrs.w	ip, r0, r1, lsl #12
 8000a1a:	d10a      	bne.n	8000a32 <__aeabi_dcmpun+0x26>
 8000a1c:	ea4f 0c43 	mov.w	ip, r3, lsl #1
 8000a20:	ea7f 5c6c 	mvns.w	ip, ip, asr #21
 8000a24:	d102      	bne.n	8000a2c <__aeabi_dcmpun+0x20>
 8000a26:	ea52 3c03 	orrs.w	ip, r2, r3, lsl #12
 8000a2a:	d102      	bne.n	8000a32 <__aeabi_dcmpun+0x26>
 8000a2c:	f04f 0000 	mov.w	r0, #0
 8000a30:	4770      	bx	lr
 8000a32:	f04f 0001 	mov.w	r0, #1
 8000a36:	4770      	bx	lr

08000a38 <__aeabi_d2iz>:
 8000a38:	ea4f 0241 	mov.w	r2, r1, lsl #1
 8000a3c:	f512 1200 	adds.w	r2, r2, #2097152	; 0x200000
 8000a40:	d215      	bcs.n	8000a6e <__aeabi_d2iz+0x36>
 8000a42:	d511      	bpl.n	8000a68 <__aeabi_d2iz+0x30>
 8000a44:	f46f 7378 	mvn.w	r3, #992	; 0x3e0
 8000a48:	ebb3 5262 	subs.w	r2, r3, r2, asr #21
 8000a4c:	d912      	bls.n	8000a74 <__aeabi_d2iz+0x3c>
 8000a4e:	ea4f 23c1 	mov.w	r3, r1, lsl #11
 8000a52:	f043 4300 	orr.w	r3, r3, #2147483648	; 0x80000000
 8000a56:	ea43 5350 	orr.w	r3, r3, r0, lsr #21
 8000a5a:	f011 4f00 	tst.w	r1, #2147483648	; 0x80000000
 8000a5e:	fa23 f002 	lsr.w	r0, r3, r2
 8000a62:	bf18      	it	ne
 8000a64:	4240      	negne	r0, r0
 8000a66:	4770      	bx	lr
 8000a68:	f04f 0000 	mov.w	r0, #0
 8000a6c:	4770      	bx	lr
 8000a6e:	ea50 3001 	orrs.w	r0, r0, r1, lsl #12
 8000a72:	d105      	bne.n	8000a80 <__aeabi_d2iz+0x48>
 8000a74:	f011 4000 	ands.w	r0, r1, #2147483648	; 0x80000000
 8000a78:	bf08      	it	eq
 8000a7a:	f06f 4000 	mvneq.w	r0, #2147483648	; 0x80000000
 8000a7e:	4770      	bx	lr
 8000a80:	f04f 0000 	mov.w	r0, #0
 8000a84:	4770      	bx	lr
 8000a86:	bf00      	nop

08000a88 <__aeabi_d2uiz>:
 8000a88:	004a      	lsls	r2, r1, #1
 8000a8a:	d211      	bcs.n	8000ab0 <__aeabi_d2uiz+0x28>
 8000a8c:	f512 1200 	adds.w	r2, r2, #2097152	; 0x200000
 8000a90:	d211      	bcs.n	8000ab6 <__aeabi_d2uiz+0x2e>
 8000a92:	d50d      	bpl.n	8000ab0 <__aeabi_d2uiz+0x28>
 8000a94:	f46f 7378 	mvn.w	r3, #992	; 0x3e0
 8000a98:	ebb3 5262 	subs.w	r2, r3, r2, asr #21
 8000a9c:	d40e      	bmi.n	8000abc <__aeabi_d2uiz+0x34>
 8000a9e:	ea4f 23c1 	mov.w	r3, r1, lsl #11
 8000aa2:	f043 4300 	orr.w	r3, r3, #2147483648	; 0x80000000
 8000aa6:	ea43 5350 	orr.w	r3, r3, r0, lsr #21
 8000aaa:	fa23 f002 	lsr.w	r0, r3, r2
 8000aae:	4770      	bx	lr
 8000ab0:	f04f 0000 	mov.w	r0, #0
 8000ab4:	4770      	bx	lr
 8000ab6:	ea50 3001 	orrs.w	r0, r0, r1, lsl #12
 8000aba:	d102      	bne.n	8000ac2 <__aeabi_d2uiz+0x3a>
 8000abc:	f04f 30ff 	mov.w	r0, #4294967295
 8000ac0:	4770      	bx	lr
 8000ac2:	f04f 0000 	mov.w	r0, #0
 8000ac6:	4770      	bx	lr

08000ac8 <__aeabi_d2f>:
 8000ac8:	ea4f 0241 	mov.w	r2, r1, lsl #1
 8000acc:	f1b2 43e0 	subs.w	r3, r2, #1879048192	; 0x70000000
 8000ad0:	bf24      	itt	cs
 8000ad2:	f5b3 1c00 	subscs.w	ip, r3, #2097152	; 0x200000
 8000ad6:	f1dc 5cfe 	rsbscs	ip, ip, #532676608	; 0x1fc00000
 8000ada:	d90d      	bls.n	8000af8 <__aeabi_d2f+0x30>
 8000adc:	f001 4c00 	and.w	ip, r1, #2147483648	; 0x80000000
 8000ae0:	ea4f 02c0 	mov.w	r2, r0, lsl #3
 8000ae4:	ea4c 7050 	orr.w	r0, ip, r0, lsr #29
 8000ae8:	f1b2 4f00 	cmp.w	r2, #2147483648	; 0x80000000
 8000aec:	eb40 0083 	adc.w	r0, r0, r3, lsl #2
 8000af0:	bf08      	it	eq
 8000af2:	f020 0001 	biceq.w	r0, r0, #1
 8000af6:	4770      	bx	lr
 8000af8:	f011 4f80 	tst.w	r1, #1073741824	; 0x40000000
 8000afc:	d121      	bne.n	8000b42 <__aeabi_d2f+0x7a>
 8000afe:	f113 7238 	adds.w	r2, r3, #48234496	; 0x2e00000
 8000b02:	bfbc      	itt	lt
 8000b04:	f001 4000 	andlt.w	r0, r1, #2147483648	; 0x80000000
 8000b08:	4770      	bxlt	lr
 8000b0a:	f441 1180 	orr.w	r1, r1, #1048576	; 0x100000
 8000b0e:	ea4f 5252 	mov.w	r2, r2, lsr #21
 8000b12:	f1c2 0218 	rsb	r2, r2, #24
 8000b16:	f1c2 0c20 	rsb	ip, r2, #32
 8000b1a:	fa10 f30c 	lsls.w	r3, r0, ip
 8000b1e:	fa20 f002 	lsr.w	r0, r0, r2
 8000b22:	bf18      	it	ne
 8000b24:	f040 0001 	orrne.w	r0, r0, #1
 8000b28:	ea4f 23c1 	mov.w	r3, r1, lsl #11
 8000b2c:	ea4f 23d3 	mov.w	r3, r3, lsr #11
 8000b30:	fa03 fc0c 	lsl.w	ip, r3, ip
 8000b34:	ea40 000c 	orr.w	r0, r0, ip
 8000b38:	fa23 f302 	lsr.w	r3, r3, r2
 8000b3c:	ea4f 0343 	mov.w	r3, r3, lsl #1
 8000b40:	e7cc      	b.n	8000adc <__aeabi_d2f+0x14>
 8000b42:	ea7f 5362 	mvns.w	r3, r2, asr #21
 8000b46:	d107      	bne.n	8000b58 <__aeabi_d2f+0x90>
 8000b48:	ea50 3301 	orrs.w	r3, r0, r1, lsl #12
 8000b4c:	bf1e      	ittt	ne
 8000b4e:	f04f 40fe 	movne.w	r0, #2130706432	; 0x7f000000
 8000b52:	f440 0040 	orrne.w	r0, r0, #12582912	; 0xc00000
 8000b56:	4770      	bxne	lr
 8000b58:	f001 4000 	and.w	r0, r1, #2147483648	; 0x80000000
 8000b5c:	f040 40fe 	orr.w	r0, r0, #2130706432	; 0x7f000000
 8000b60:	f440 0000 	orr.w	r0, r0, #8388608	; 0x800000
 8000b64:	4770      	bx	lr
 8000b66:	bf00      	nop

08000b68 <__aeabi_frsub>:
 8000b68:	f080 4000 	eor.w	r0, r0, #2147483648	; 0x80000000
 8000b6c:	e002      	b.n	8000b74 <__addsf3>
 8000b6e:	bf00      	nop

08000b70 <__aeabi_fsub>:
 8000b70:	f081 4100 	eor.w	r1, r1, #2147483648	; 0x80000000

08000b74 <__addsf3>:
 8000b74:	0042      	lsls	r2, r0, #1
 8000b76:	bf1f      	itttt	ne
 8000b78:	ea5f 0341 	movsne.w	r3, r1, lsl #1
 8000b7c:	ea92 0f03 	teqne	r2, r3
 8000b80:	ea7f 6c22 	mvnsne.w	ip, r2, asr #24
 8000b84:	ea7f 6c23 	mvnsne.w	ip, r3, asr #24
 8000b88:	d06a      	beq.n	8000c60 <__addsf3+0xec>
 8000b8a:	ea4f 6212 	mov.w	r2, r2, lsr #24
 8000b8e:	ebd2 6313 	rsbs	r3, r2, r3, lsr #24
 8000b92:	bfc1      	itttt	gt
 8000b94:	18d2      	addgt	r2, r2, r3
 8000b96:	4041      	eorgt	r1, r0
 8000b98:	4048      	eorgt	r0, r1
 8000b9a:	4041      	eorgt	r1, r0
 8000b9c:	bfb8      	it	lt
 8000b9e:	425b      	neglt	r3, r3
 8000ba0:	2b19      	cmp	r3, #25
 8000ba2:	bf88      	it	hi
 8000ba4:	4770      	bxhi	lr
 8000ba6:	f010 4f00 	tst.w	r0, #2147483648	; 0x80000000
 8000baa:	f440 0000 	orr.w	r0, r0, #8388608	; 0x800000
 8000bae:	f020 407f 	bic.w	r0, r0, #4278190080	; 0xff000000
 8000bb2:	bf18      	it	ne
 8000bb4:	4240      	negne	r0, r0
 8000bb6:	f011 4f00 	tst.w	r1, #2147483648	; 0x80000000
 8000bba:	f441 0100 	orr.w	r1, r1, #8388608	; 0x800000
 8000bbe:	f021 417f 	bic.w	r1, r1, #4278190080	; 0xff000000
 8000bc2:	bf18      	it	ne
 8000bc4:	4249      	negne	r1, r1
 8000bc6:	ea92 0f03 	teq	r2, r3
 8000bca:	d03f      	beq.n	8000c4c <__addsf3+0xd8>
 8000bcc:	f1a2 0201 	sub.w	r2, r2, #1
 8000bd0:	fa41 fc03 	asr.w	ip, r1, r3
 8000bd4:	eb10 000c 	adds.w	r0, r0, ip
 8000bd8:	f1c3 0320 	rsb	r3, r3, #32
 8000bdc:	fa01 f103 	lsl.w	r1, r1, r3
 8000be0:	f000 4300 	and.w	r3, r0, #2147483648	; 0x80000000
 8000be4:	d502      	bpl.n	8000bec <__addsf3+0x78>
 8000be6:	4249      	negs	r1, r1
 8000be8:	eb60 0040 	sbc.w	r0, r0, r0, lsl #1
 8000bec:	f5b0 0f00 	cmp.w	r0, #8388608	; 0x800000
 8000bf0:	d313      	bcc.n	8000c1a <__addsf3+0xa6>
 8000bf2:	f1b0 7f80 	cmp.w	r0, #16777216	; 0x1000000
 8000bf6:	d306      	bcc.n	8000c06 <__addsf3+0x92>
 8000bf8:	0840      	lsrs	r0, r0, #1
 8000bfa:	ea4f 0131 	mov.w	r1, r1, rrx
 8000bfe:	f102 0201 	add.w	r2, r2, #1
 8000c02:	2afe      	cmp	r2, #254	; 0xfe
 8000c04:	d251      	bcs.n	8000caa <__addsf3+0x136>
 8000c06:	f1b1 4f00 	cmp.w	r1, #2147483648	; 0x80000000
 8000c0a:	eb40 50c2 	adc.w	r0, r0, r2, lsl #23
 8000c0e:	bf08      	it	eq
 8000c10:	f020 0001 	biceq.w	r0, r0, #1
 8000c14:	ea40 0003 	orr.w	r0, r0, r3
 8000c18:	4770      	bx	lr
 8000c1a:	0049      	lsls	r1, r1, #1
 8000c1c:	eb40 0000 	adc.w	r0, r0, r0
 8000c20:	3a01      	subs	r2, #1
 8000c22:	bf28      	it	cs
 8000c24:	f5b0 0f00 	cmpcs.w	r0, #8388608	; 0x800000
 8000c28:	d2ed      	bcs.n	8000c06 <__addsf3+0x92>
 8000c2a:	fab0 fc80 	clz	ip, r0
 8000c2e:	f1ac 0c08 	sub.w	ip, ip, #8
 8000c32:	ebb2 020c 	subs.w	r2, r2, ip
 8000c36:	fa00 f00c 	lsl.w	r0, r0, ip
 8000c3a:	bfaa      	itet	ge
 8000c3c:	eb00 50c2 	addge.w	r0, r0, r2, lsl #23
 8000c40:	4252      	neglt	r2, r2
 8000c42:	4318      	orrge	r0, r3
 8000c44:	bfbc      	itt	lt
 8000c46:	40d0      	lsrlt	r0, r2
 8000c48:	4318      	orrlt	r0, r3
 8000c4a:	4770      	bx	lr
 8000c4c:	f092 0f00 	teq	r2, #0
 8000c50:	f481 0100 	eor.w	r1, r1, #8388608	; 0x800000
 8000c54:	bf06      	itte	eq
 8000c56:	f480 0000 	eoreq.w	r0, r0, #8388608	; 0x800000
 8000c5a:	3201      	addeq	r2, #1
 8000c5c:	3b01      	subne	r3, #1
 8000c5e:	e7b5      	b.n	8000bcc <__addsf3+0x58>
 8000c60:	ea4f 0341 	mov.w	r3, r1, lsl #1
 8000c64:	ea7f 6c22 	mvns.w	ip, r2, asr #24
 8000c68:	bf18      	it	ne
 8000c6a:	ea7f 6c23 	mvnsne.w	ip, r3, asr #24
 8000c6e:	d021      	beq.n	8000cb4 <__addsf3+0x140>
 8000c70:	ea92 0f03 	teq	r2, r3
 8000c74:	d004      	beq.n	8000c80 <__addsf3+0x10c>
 8000c76:	f092 0f00 	teq	r2, #0
 8000c7a:	bf08      	it	eq
 8000c7c:	4608      	moveq	r0, r1
 8000c7e:	4770      	bx	lr
 8000c80:	ea90 0f01 	teq	r0, r1
 8000c84:	bf1c      	itt	ne
 8000c86:	2000      	movne	r0, #0
 8000c88:	4770      	bxne	lr
 8000c8a:	f012 4f7f 	tst.w	r2, #4278190080	; 0xff000000
 8000c8e:	d104      	bne.n	8000c9a <__addsf3+0x126>
 8000c90:	0040      	lsls	r0, r0, #1
 8000c92:	bf28      	it	cs
 8000c94:	f040 4000 	orrcs.w	r0, r0, #2147483648	; 0x80000000
 8000c98:	4770      	bx	lr
 8000c9a:	f112 7200 	adds.w	r2, r2, #33554432	; 0x2000000
 8000c9e:	bf3c      	itt	cc
 8000ca0:	f500 0000 	addcc.w	r0, r0, #8388608	; 0x800000
 8000ca4:	4770      	bxcc	lr
 8000ca6:	f000 4300 	and.w	r3, r0, #2147483648	; 0x80000000
 8000caa:	f043 40fe 	orr.w	r0, r3, #2130706432	; 0x7f000000
 8000cae:	f440 0000 	orr.w	r0, r0, #8388608	; 0x800000
 8000cb2:	4770      	bx	lr
 8000cb4:	ea7f 6222 	mvns.w	r2, r2, asr #24
 8000cb8:	bf16      	itet	ne
 8000cba:	4608      	movne	r0, r1
 8000cbc:	ea7f 6323 	mvnseq.w	r3, r3, asr #24
 8000cc0:	4601      	movne	r1, r0
 8000cc2:	0242      	lsls	r2, r0, #9
 8000cc4:	bf06      	itte	eq
 8000cc6:	ea5f 2341 	movseq.w	r3, r1, lsl #9
 8000cca:	ea90 0f01 	teqeq	r0, r1
 8000cce:	f440 0080 	orrne.w	r0, r0, #4194304	; 0x400000
 8000cd2:	4770      	bx	lr

08000cd4 <__aeabi_ui2f>:
 8000cd4:	f04f 0300 	mov.w	r3, #0
 8000cd8:	e004      	b.n	8000ce4 <__aeabi_i2f+0x8>
 8000cda:	bf00      	nop

08000cdc <__aeabi_i2f>:
 8000cdc:	f010 4300 	ands.w	r3, r0, #2147483648	; 0x80000000
 8000ce0:	bf48      	it	mi
 8000ce2:	4240      	negmi	r0, r0
 8000ce4:	ea5f 0c00 	movs.w	ip, r0
 8000ce8:	bf08      	it	eq
 8000cea:	4770      	bxeq	lr
 8000cec:	f043 4396 	orr.w	r3, r3, #1258291200	; 0x4b000000
 8000cf0:	4601      	mov	r1, r0
 8000cf2:	f04f 0000 	mov.w	r0, #0
 8000cf6:	e01c      	b.n	8000d32 <__aeabi_l2f+0x2a>

08000cf8 <__aeabi_ul2f>:
 8000cf8:	ea50 0201 	orrs.w	r2, r0, r1
 8000cfc:	bf08      	it	eq
 8000cfe:	4770      	bxeq	lr
 8000d00:	f04f 0300 	mov.w	r3, #0
 8000d04:	e00a      	b.n	8000d1c <__aeabi_l2f+0x14>
 8000d06:	bf00      	nop

08000d08 <__aeabi_l2f>:
 8000d08:	ea50 0201 	orrs.w	r2, r0, r1
 8000d0c:	bf08      	it	eq
 8000d0e:	4770      	bxeq	lr
 8000d10:	f011 4300 	ands.w	r3, r1, #2147483648	; 0x80000000
 8000d14:	d502      	bpl.n	8000d1c <__aeabi_l2f+0x14>
 8000d16:	4240      	negs	r0, r0
 8000d18:	eb61 0141 	sbc.w	r1, r1, r1, lsl #1
 8000d1c:	ea5f 0c01 	movs.w	ip, r1
 8000d20:	bf02      	ittt	eq
 8000d22:	4684      	moveq	ip, r0
 8000d24:	4601      	moveq	r1, r0
 8000d26:	2000      	moveq	r0, #0
 8000d28:	f043 43b6 	orr.w	r3, r3, #1526726656	; 0x5b000000
 8000d2c:	bf08      	it	eq
 8000d2e:	f1a3 5380 	subeq.w	r3, r3, #268435456	; 0x10000000
 8000d32:	f5a3 0300 	sub.w	r3, r3, #8388608	; 0x800000
 8000d36:	fabc f28c 	clz	r2, ip
 8000d3a:	3a08      	subs	r2, #8
 8000d3c:	eba3 53c2 	sub.w	r3, r3, r2, lsl #23
 8000d40:	db10      	blt.n	8000d64 <__aeabi_l2f+0x5c>
 8000d42:	fa01 fc02 	lsl.w	ip, r1, r2
 8000d46:	4463      	add	r3, ip
 8000d48:	fa00 fc02 	lsl.w	ip, r0, r2
 8000d4c:	f1c2 0220 	rsb	r2, r2, #32
 8000d50:	f1bc 4f00 	cmp.w	ip, #2147483648	; 0x80000000
 8000d54:	fa20 f202 	lsr.w	r2, r0, r2
 8000d58:	eb43 0002 	adc.w	r0, r3, r2
 8000d5c:	bf08      	it	eq
 8000d5e:	f020 0001 	biceq.w	r0, r0, #1
 8000d62:	4770      	bx	lr
 8000d64:	f102 0220 	add.w	r2, r2, #32
 8000d68:	fa01 fc02 	lsl.w	ip, r1, r2
 8000d6c:	f1c2 0220 	rsb	r2, r2, #32
 8000d70:	ea50 004c 	orrs.w	r0, r0, ip, lsl #1
 8000d74:	fa21 f202 	lsr.w	r2, r1, r2
 8000d78:	eb43 0002 	adc.w	r0, r3, r2
 8000d7c:	bf08      	it	eq
 8000d7e:	ea20 70dc 	biceq.w	r0, r0, ip, lsr #31
 8000d82:	4770      	bx	lr

08000d84 <__aeabi_fmul>:
 8000d84:	f04f 0cff 	mov.w	ip, #255	; 0xff
 8000d88:	ea1c 52d0 	ands.w	r2, ip, r0, lsr #23
 8000d8c:	bf1e      	ittt	ne
 8000d8e:	ea1c 53d1 	andsne.w	r3, ip, r1, lsr #23
 8000d92:	ea92 0f0c 	teqne	r2, ip
 8000d96:	ea93 0f0c 	teqne	r3, ip
 8000d9a:	d06f      	beq.n	8000e7c <__aeabi_fmul+0xf8>
 8000d9c:	441a      	add	r2, r3
 8000d9e:	ea80 0c01 	eor.w	ip, r0, r1
 8000da2:	0240      	lsls	r0, r0, #9
 8000da4:	bf18      	it	ne
 8000da6:	ea5f 2141 	movsne.w	r1, r1, lsl #9
 8000daa:	d01e      	beq.n	8000dea <__aeabi_fmul+0x66>
 8000dac:	f04f 6300 	mov.w	r3, #134217728	; 0x8000000
 8000db0:	ea43 1050 	orr.w	r0, r3, r0, lsr #5
 8000db4:	ea43 1151 	orr.w	r1, r3, r1, lsr #5
 8000db8:	fba0 3101 	umull	r3, r1, r0, r1
 8000dbc:	f00c 4000 	and.w	r0, ip, #2147483648	; 0x80000000
 8000dc0:	f5b1 0f00 	cmp.w	r1, #8388608	; 0x800000
 8000dc4:	bf3e      	ittt	cc
 8000dc6:	0049      	lslcc	r1, r1, #1
 8000dc8:	ea41 71d3 	orrcc.w	r1, r1, r3, lsr #31
 8000dcc:	005b      	lslcc	r3, r3, #1
 8000dce:	ea40 0001 	orr.w	r0, r0, r1
 8000dd2:	f162 027f 	sbc.w	r2, r2, #127	; 0x7f
 8000dd6:	2afd      	cmp	r2, #253	; 0xfd
 8000dd8:	d81d      	bhi.n	8000e16 <__aeabi_fmul+0x92>
 8000dda:	f1b3 4f00 	cmp.w	r3, #2147483648	; 0x80000000
 8000dde:	eb40 50c2 	adc.w	r0, r0, r2, lsl #23
 8000de2:	bf08      	it	eq
 8000de4:	f020 0001 	biceq.w	r0, r0, #1
 8000de8:	4770      	bx	lr
 8000dea:	f090 0f00 	teq	r0, #0
 8000dee:	f00c 4c00 	and.w	ip, ip, #2147483648	; 0x80000000
 8000df2:	bf08      	it	eq
 8000df4:	0249      	lsleq	r1, r1, #9
 8000df6:	ea4c 2050 	orr.w	r0, ip, r0, lsr #9
 8000dfa:	ea40 2051 	orr.w	r0, r0, r1, lsr #9
 8000dfe:	3a7f      	subs	r2, #127	; 0x7f
 8000e00:	bfc2      	ittt	gt
 8000e02:	f1d2 03ff 	rsbsgt	r3, r2, #255	; 0xff
 8000e06:	ea40 50c2 	orrgt.w	r0, r0, r2, lsl #23
 8000e0a:	4770      	bxgt	lr
 8000e0c:	f440 0000 	orr.w	r0, r0, #8388608	; 0x800000
 8000e10:	f04f 0300 	mov.w	r3, #0
 8000e14:	3a01      	subs	r2, #1
 8000e16:	dc5d      	bgt.n	8000ed4 <__aeabi_fmul+0x150>
 8000e18:	f112 0f19 	cmn.w	r2, #25
 8000e1c:	bfdc      	itt	le
 8000e1e:	f000 4000 	andle.w	r0, r0, #2147483648	; 0x80000000
 8000e22:	4770      	bxle	lr
 8000e24:	f1c2 0200 	rsb	r2, r2, #0
 8000e28:	0041      	lsls	r1, r0, #1
 8000e2a:	fa21 f102 	lsr.w	r1, r1, r2
 8000e2e:	f1c2 0220 	rsb	r2, r2, #32
 8000e32:	fa00 fc02 	lsl.w	ip, r0, r2
 8000e36:	ea5f 0031 	movs.w	r0, r1, rrx
 8000e3a:	f140 0000 	adc.w	r0, r0, #0
 8000e3e:	ea53 034c 	orrs.w	r3, r3, ip, lsl #1
 8000e42:	bf08      	it	eq
 8000e44:	ea20 70dc 	biceq.w	r0, r0, ip, lsr #31
 8000e48:	4770      	bx	lr
 8000e4a:	f092 0f00 	teq	r2, #0
 8000e4e:	f000 4c00 	and.w	ip, r0, #2147483648	; 0x80000000
 8000e52:	bf02      	ittt	eq
 8000e54:	0040      	lsleq	r0, r0, #1
 8000e56:	f410 0f00 	tsteq.w	r0, #8388608	; 0x800000
 8000e5a:	3a01      	subeq	r2, #1
 8000e5c:	d0f9      	beq.n	8000e52 <__aeabi_fmul+0xce>
 8000e5e:	ea40 000c 	orr.w	r0, r0, ip
 8000e62:	f093 0f00 	teq	r3, #0
 8000e66:	f001 4c00 	and.w	ip, r1, #2147483648	; 0x80000000
 8000e6a:	bf02      	ittt	eq
 8000e6c:	0049      	lsleq	r1, r1, #1
 8000e6e:	f411 0f00 	tsteq.w	r1, #8388608	; 0x800000
 8000e72:	3b01      	subeq	r3, #1
 8000e74:	d0f9      	beq.n	8000e6a <__aeabi_fmul+0xe6>
 8000e76:	ea41 010c 	orr.w	r1, r1, ip
 8000e7a:	e78f      	b.n	8000d9c <__aeabi_fmul+0x18>
 8000e7c:	ea0c 53d1 	and.w	r3, ip, r1, lsr #23
 8000e80:	ea92 0f0c 	teq	r2, ip
 8000e84:	bf18      	it	ne
 8000e86:	ea93 0f0c 	teqne	r3, ip
 8000e8a:	d00a      	beq.n	8000ea2 <__aeabi_fmul+0x11e>
 8000e8c:	f030 4c00 	bics.w	ip, r0, #2147483648	; 0x80000000
 8000e90:	bf18      	it	ne
 8000e92:	f031 4c00 	bicsne.w	ip, r1, #2147483648	; 0x80000000
 8000e96:	d1d8      	bne.n	8000e4a <__aeabi_fmul+0xc6>
 8000e98:	ea80 0001 	eor.w	r0, r0, r1
 8000e9c:	f000 4000 	and.w	r0, r0, #2147483648	; 0x80000000
 8000ea0:	4770      	bx	lr
 8000ea2:	f090 0f00 	teq	r0, #0
 8000ea6:	bf17      	itett	ne
 8000ea8:	f090 4f00 	teqne	r0, #2147483648	; 0x80000000
 8000eac:	4608      	moveq	r0, r1
 8000eae:	f091 0f00 	teqne	r1, #0
 8000eb2:	f091 4f00 	teqne	r1, #2147483648	; 0x80000000
 8000eb6:	d014      	beq.n	8000ee2 <__aeabi_fmul+0x15e>
 8000eb8:	ea92 0f0c 	teq	r2, ip
 8000ebc:	d101      	bne.n	8000ec2 <__aeabi_fmul+0x13e>
 8000ebe:	0242      	lsls	r2, r0, #9
 8000ec0:	d10f      	bne.n	8000ee2 <__aeabi_fmul+0x15e>
 8000ec2:	ea93 0f0c 	teq	r3, ip
 8000ec6:	d103      	bne.n	8000ed0 <__aeabi_fmul+0x14c>
 8000ec8:	024b      	lsls	r3, r1, #9
 8000eca:	bf18      	it	ne
 8000ecc:	4608      	movne	r0, r1
 8000ece:	d108      	bne.n	8000ee2 <__aeabi_fmul+0x15e>
 8000ed0:	ea80 0001 	eor.w	r0, r0, r1
 8000ed4:	f000 4000 	and.w	r0, r0, #2147483648	; 0x80000000
 8000ed8:	f040 40fe 	orr.w	r0, r0, #2130706432	; 0x7f000000
 8000edc:	f440 0000 	orr.w	r0, r0, #8388608	; 0x800000
 8000ee0:	4770      	bx	lr
 8000ee2:	f040 40fe 	orr.w	r0, r0, #2130706432	; 0x7f000000
 8000ee6:	f440 0040 	orr.w	r0, r0, #12582912	; 0xc00000
 8000eea:	4770      	bx	lr

08000eec <__aeabi_fdiv>:
 8000eec:	f04f 0cff 	mov.w	ip, #255	; 0xff
 8000ef0:	ea1c 52d0 	ands.w	r2, ip, r0, lsr #23
 8000ef4:	bf1e      	ittt	ne
 8000ef6:	ea1c 53d1 	andsne.w	r3, ip, r1, lsr #23
 8000efa:	ea92 0f0c 	teqne	r2, ip
 8000efe:	ea93 0f0c 	teqne	r3, ip
 8000f02:	d069      	beq.n	8000fd8 <__aeabi_fdiv+0xec>
 8000f04:	eba2 0203 	sub.w	r2, r2, r3
 8000f08:	ea80 0c01 	eor.w	ip, r0, r1
 8000f0c:	0249      	lsls	r1, r1, #9
 8000f0e:	ea4f 2040 	mov.w	r0, r0, lsl #9
 8000f12:	d037      	beq.n	8000f84 <__aeabi_fdiv+0x98>
 8000f14:	f04f 5380 	mov.w	r3, #268435456	; 0x10000000
 8000f18:	ea43 1111 	orr.w	r1, r3, r1, lsr #4
 8000f1c:	ea43 1310 	orr.w	r3, r3, r0, lsr #4
 8000f20:	f00c 4000 	and.w	r0, ip, #2147483648	; 0x80000000
 8000f24:	428b      	cmp	r3, r1
 8000f26:	bf38      	it	cc
 8000f28:	005b      	lslcc	r3, r3, #1
 8000f2a:	f142 027d 	adc.w	r2, r2, #125	; 0x7d
 8000f2e:	f44f 0c00 	mov.w	ip, #8388608	; 0x800000
 8000f32:	428b      	cmp	r3, r1
 8000f34:	bf24      	itt	cs
 8000f36:	1a5b      	subcs	r3, r3, r1
 8000f38:	ea40 000c 	orrcs.w	r0, r0, ip
 8000f3c:	ebb3 0f51 	cmp.w	r3, r1, lsr #1
 8000f40:	bf24      	itt	cs
 8000f42:	eba3 0351 	subcs.w	r3, r3, r1, lsr #1
 8000f46:	ea40 005c 	orrcs.w	r0, r0, ip, lsr #1
 8000f4a:	ebb3 0f91 	cmp.w	r3, r1, lsr #2
 8000f4e:	bf24      	itt	cs
 8000f50:	eba3 0391 	subcs.w	r3, r3, r1, lsr #2
 8000f54:	ea40 009c 	orrcs.w	r0, r0, ip, lsr #2
 8000f58:	ebb3 0fd1 	cmp.w	r3, r1, lsr #3
 8000f5c:	bf24      	itt	cs
 8000f5e:	eba3 03d1 	subcs.w	r3, r3, r1, lsr #3
 8000f62:	ea40 00dc 	orrcs.w	r0, r0, ip, lsr #3
 8000f66:	011b      	lsls	r3, r3, #4
 8000f68:	bf18      	it	ne
 8000f6a:	ea5f 1c1c 	movsne.w	ip, ip, lsr #4
 8000f6e:	d1e0      	bne.n	8000f32 <__aeabi_fdiv+0x46>
 8000f70:	2afd      	cmp	r2, #253	; 0xfd
 8000f72:	f63f af50 	bhi.w	8000e16 <__aeabi_fmul+0x92>
 8000f76:	428b      	cmp	r3, r1
 8000f78:	eb40 50c2 	adc.w	r0, r0, r2, lsl #23
 8000f7c:	bf08      	it	eq
 8000f7e:	f020 0001 	biceq.w	r0, r0, #1
 8000f82:	4770      	bx	lr
 8000f84:	f00c 4c00 	and.w	ip, ip, #2147483648	; 0x80000000
 8000f88:	ea4c 2050 	orr.w	r0, ip, r0, lsr #9
 8000f8c:	327f      	adds	r2, #127	; 0x7f
 8000f8e:	bfc2      	ittt	gt
 8000f90:	f1d2 03ff 	rsbsgt	r3, r2, #255	; 0xff
 8000f94:	ea40 50c2 	orrgt.w	r0, r0, r2, lsl #23
 8000f98:	4770      	bxgt	lr
 8000f9a:	f440 0000 	orr.w	r0, r0, #8388608	; 0x800000
 8000f9e:	f04f 0300 	mov.w	r3, #0
 8000fa2:	3a01      	subs	r2, #1
 8000fa4:	e737      	b.n	8000e16 <__aeabi_fmul+0x92>
 8000fa6:	f092 0f00 	teq	r2, #0
 8000faa:	f000 4c00 	and.w	ip, r0, #2147483648	; 0x80000000
 8000fae:	bf02      	ittt	eq
 8000fb0:	0040      	lsleq	r0, r0, #1
 8000fb2:	f410 0f00 	tsteq.w	r0, #8388608	; 0x800000
 8000fb6:	3a01      	subeq	r2, #1
 8000fb8:	d0f9      	beq.n	8000fae <__aeabi_fdiv+0xc2>
 8000fba:	ea40 000c 	orr.w	r0, r0, ip
 8000fbe:	f093 0f00 	teq	r3, #0
 8000fc2:	f001 4c00 	and.w	ip, r1, #2147483648	; 0x80000000
 8000fc6:	bf02      	ittt	eq
 8000fc8:	0049      	lsleq	r1, r1, #1
 8000fca:	f411 0f00 	tsteq.w	r1, #8388608	; 0x800000
 8000fce:	3b01      	subeq	r3, #1
 8000fd0:	d0f9      	beq.n	8000fc6 <__aeabi_fdiv+0xda>
 8000fd2:	ea41 010c 	orr.w	r1, r1, ip
 8000fd6:	e795      	b.n	8000f04 <__aeabi_fdiv+0x18>
 8000fd8:	ea0c 53d1 	and.w	r3, ip, r1, lsr #23
 8000fdc:	ea92 0f0c 	teq	r2, ip
 8000fe0:	d108      	bne.n	8000ff4 <__aeabi_fdiv+0x108>
 8000fe2:	0242      	lsls	r2, r0, #9
 8000fe4:	f47f af7d 	bne.w	8000ee2 <__aeabi_fmul+0x15e>
 8000fe8:	ea93 0f0c 	teq	r3, ip
 8000fec:	f47f af70 	bne.w	8000ed0 <__aeabi_fmul+0x14c>
 8000ff0:	4608      	mov	r0, r1
 8000ff2:	e776      	b.n	8000ee2 <__aeabi_fmul+0x15e>
 8000ff4:	ea93 0f0c 	teq	r3, ip
 8000ff8:	d104      	bne.n	8001004 <__aeabi_fdiv+0x118>
 8000ffa:	024b      	lsls	r3, r1, #9
 8000ffc:	f43f af4c 	beq.w	8000e98 <__aeabi_fmul+0x114>
 8001000:	4608      	mov	r0, r1
 8001002:	e76e      	b.n	8000ee2 <__aeabi_fmul+0x15e>
 8001004:	f030 4c00 	bics.w	ip, r0, #2147483648	; 0x80000000
 8001008:	bf18      	it	ne
 800100a:	f031 4c00 	bicsne.w	ip, r1, #2147483648	; 0x80000000
 800100e:	d1ca      	bne.n	8000fa6 <__aeabi_fdiv+0xba>
 8001010:	f030 4200 	bics.w	r2, r0, #2147483648	; 0x80000000
 8001014:	f47f af5c 	bne.w	8000ed0 <__aeabi_fmul+0x14c>
 8001018:	f031 4300 	bics.w	r3, r1, #2147483648	; 0x80000000
 800101c:	f47f af3c 	bne.w	8000e98 <__aeabi_fmul+0x114>
 8001020:	e75f      	b.n	8000ee2 <__aeabi_fmul+0x15e>
 8001022:	bf00      	nop

08001024 <__gesf2>:
 8001024:	f04f 3cff 	mov.w	ip, #4294967295
 8001028:	e006      	b.n	8001038 <__cmpsf2+0x4>
 800102a:	bf00      	nop

0800102c <__lesf2>:
 800102c:	f04f 0c01 	mov.w	ip, #1
 8001030:	e002      	b.n	8001038 <__cmpsf2+0x4>
 8001032:	bf00      	nop

08001034 <__cmpsf2>:
 8001034:	f04f 0c01 	mov.w	ip, #1
 8001038:	f84d cd04 	str.w	ip, [sp, #-4]!
 800103c:	ea4f 0240 	mov.w	r2, r0, lsl #1
 8001040:	ea4f 0341 	mov.w	r3, r1, lsl #1
 8001044:	ea7f 6c22 	mvns.w	ip, r2, asr #24
 8001048:	bf18      	it	ne
 800104a:	ea7f 6c23 	mvnsne.w	ip, r3, asr #24
 800104e:	d011      	beq.n	8001074 <__cmpsf2+0x40>
 8001050:	b001      	add	sp, #4
 8001052:	ea52 0c53 	orrs.w	ip, r2, r3, lsr #1
 8001056:	bf18      	it	ne
 8001058:	ea90 0f01 	teqne	r0, r1
 800105c:	bf58      	it	pl
 800105e:	ebb2 0003 	subspl.w	r0, r2, r3
 8001062:	bf88      	it	hi
 8001064:	17c8      	asrhi	r0, r1, #31
 8001066:	bf38      	it	cc
 8001068:	ea6f 70e1 	mvncc.w	r0, r1, asr #31
 800106c:	bf18      	it	ne
 800106e:	f040 0001 	orrne.w	r0, r0, #1
 8001072:	4770      	bx	lr
 8001074:	ea7f 6c22 	mvns.w	ip, r2, asr #24
 8001078:	d102      	bne.n	8001080 <__cmpsf2+0x4c>
 800107a:	ea5f 2c40 	movs.w	ip, r0, lsl #9
 800107e:	d105      	bne.n	800108c <__cmpsf2+0x58>
 8001080:	ea7f 6c23 	mvns.w	ip, r3, asr #24
 8001084:	d1e4      	bne.n	8001050 <__cmpsf2+0x1c>
 8001086:	ea5f 2c41 	movs.w	ip, r1, lsl #9
 800108a:	d0e1      	beq.n	8001050 <__cmpsf2+0x1c>
 800108c:	f85d 0b04 	ldr.w	r0, [sp], #4
 8001090:	4770      	bx	lr
 8001092:	bf00      	nop

08001094 <__aeabi_cfrcmple>:
 8001094:	4684      	mov	ip, r0
 8001096:	4608      	mov	r0, r1
 8001098:	4661      	mov	r1, ip
 800109a:	e7ff      	b.n	800109c <__aeabi_cfcmpeq>

0800109c <__aeabi_cfcmpeq>:
 800109c:	b50f      	push	{r0, r1, r2, r3, lr}
 800109e:	f7ff ffc9 	bl	8001034 <__cmpsf2>
 80010a2:	2800      	cmp	r0, #0
 80010a4:	bf48      	it	mi
 80010a6:	f110 0f00 	cmnmi.w	r0, #0
 80010aa:	bd0f      	pop	{r0, r1, r2, r3, pc}

080010ac <__aeabi_fcmpeq>:
 80010ac:	f84d ed08 	str.w	lr, [sp, #-8]!
 80010b0:	f7ff fff4 	bl	800109c <__aeabi_cfcmpeq>
 80010b4:	bf0c      	ite	eq
 80010b6:	2001      	moveq	r0, #1
 80010b8:	2000      	movne	r0, #0
 80010ba:	f85d fb08 	ldr.w	pc, [sp], #8
 80010be:	bf00      	nop

080010c0 <__aeabi_fcmplt>:
 80010c0:	f84d ed08 	str.w	lr, [sp, #-8]!
 80010c4:	f7ff ffea 	bl	800109c <__aeabi_cfcmpeq>
 80010c8:	bf34      	ite	cc
 80010ca:	2001      	movcc	r0, #1
 80010cc:	2000      	movcs	r0, #0
 80010ce:	f85d fb08 	ldr.w	pc, [sp], #8
 80010d2:	bf00      	nop

080010d4 <__aeabi_fcmple>:
 80010d4:	f84d ed08 	str.w	lr, [sp, #-8]!
 80010d8:	f7ff ffe0 	bl	800109c <__aeabi_cfcmpeq>
 80010dc:	bf94      	ite	ls
 80010de:	2001      	movls	r0, #1
 80010e0:	2000      	movhi	r0, #0
 80010e2:	f85d fb08 	ldr.w	pc, [sp], #8
 80010e6:	bf00      	nop

080010e8 <__aeabi_fcmpge>:
 80010e8:	f84d ed08 	str.w	lr, [sp, #-8]!
 80010ec:	f7ff ffd2 	bl	8001094 <__aeabi_cfrcmple>
 80010f0:	bf94      	ite	ls
 80010f2:	2001      	movls	r0, #1
 80010f4:	2000      	movhi	r0, #0
 80010f6:	f85d fb08 	ldr.w	pc, [sp], #8
 80010fa:	bf00      	nop

080010fc <__aeabi_fcmpgt>:
 80010fc:	f84d ed08 	str.w	lr, [sp, #-8]!
 8001100:	f7ff ffc8 	bl	8001094 <__aeabi_cfrcmple>
 8001104:	bf34      	ite	cc
 8001106:	2001      	movcc	r0, #1
 8001108:	2000      	movcs	r0, #0
 800110a:	f85d fb08 	ldr.w	pc, [sp], #8
 800110e:	bf00      	nop

08001110 <__aeabi_fcmpun>:
 8001110:	ea4f 0240 	mov.w	r2, r0, lsl #1
 8001114:	ea4f 0341 	mov.w	r3, r1, lsl #1
 8001118:	ea7f 6c22 	mvns.w	ip, r2, asr #24
 800111c:	d102      	bne.n	8001124 <__aeabi_fcmpun+0x14>
 800111e:	ea5f 2c40 	movs.w	ip, r0, lsl #9
 8001122:	d108      	bne.n	8001136 <__aeabi_fcmpun+0x26>
 8001124:	ea7f 6c23 	mvns.w	ip, r3, asr #24
 8001128:	d102      	bne.n	8001130 <__aeabi_fcmpun+0x20>
 800112a:	ea5f 2c41 	movs.w	ip, r1, lsl #9
 800112e:	d102      	bne.n	8001136 <__aeabi_fcmpun+0x26>
 8001130:	f04f 0000 	mov.w	r0, #0
 8001134:	4770      	bx	lr
 8001136:	f04f 0001 	mov.w	r0, #1
 800113a:	4770      	bx	lr

0800113c <fillData>:
 800113c:	8803      	ldrh	r3, [r0, #0]
 800113e:	4a16      	ldr	r2, [pc, #88]	; (8001198 <fillData+0x5c>)
 8001140:	ba5b      	rev16	r3, r3
 8001142:	8013      	strh	r3, [r2, #0]
 8001144:	8843      	ldrh	r3, [r0, #2]
 8001146:	4a15      	ldr	r2, [pc, #84]	; (800119c <fillData+0x60>)
 8001148:	ba5b      	rev16	r3, r3
 800114a:	8013      	strh	r3, [r2, #0]
 800114c:	8883      	ldrh	r3, [r0, #4]
 800114e:	4a14      	ldr	r2, [pc, #80]	; (80011a0 <fillData+0x64>)
 8001150:	ba5b      	rev16	r3, r3
 8001152:	8013      	strh	r3, [r2, #0]
 8001154:	88c3      	ldrh	r3, [r0, #6]
 8001156:	4a13      	ldr	r2, [pc, #76]	; (80011a4 <fillData+0x68>)
 8001158:	ba5b      	rev16	r3, r3
 800115a:	8013      	strh	r3, [r2, #0]
 800115c:	8903      	ldrh	r3, [r0, #8]
 800115e:	4a12      	ldr	r2, [pc, #72]	; (80011a8 <fillData+0x6c>)
 8001160:	ba5b      	rev16	r3, r3
 8001162:	8013      	strh	r3, [r2, #0]
 8001164:	8943      	ldrh	r3, [r0, #10]
 8001166:	4a11      	ldr	r2, [pc, #68]	; (80011ac <fillData+0x70>)
 8001168:	ba5b      	rev16	r3, r3
 800116a:	8013      	strh	r3, [r2, #0]
 800116c:	8983      	ldrh	r3, [r0, #12]
 800116e:	4a10      	ldr	r2, [pc, #64]	; (80011b0 <fillData+0x74>)
 8001170:	ba5b      	rev16	r3, r3
 8001172:	8013      	strh	r3, [r2, #0]
 8001174:	89c3      	ldrh	r3, [r0, #14]
 8001176:	4a0f      	ldr	r2, [pc, #60]	; (80011b4 <fillData+0x78>)
 8001178:	ba5b      	rev16	r3, r3
 800117a:	8013      	strh	r3, [r2, #0]
 800117c:	8a03      	ldrh	r3, [r0, #16]
 800117e:	4a0e      	ldr	r2, [pc, #56]	; (80011b8 <fillData+0x7c>)
 8001180:	ba5b      	rev16	r3, r3
 8001182:	8013      	strh	r3, [r2, #0]
 8001184:	8a43      	ldrh	r3, [r0, #18]
 8001186:	4a0d      	ldr	r2, [pc, #52]	; (80011bc <fillData+0x80>)
 8001188:	ba5b      	rev16	r3, r3
 800118a:	8013      	strh	r3, [r2, #0]
 800118c:	8a83      	ldrh	r3, [r0, #20]
 800118e:	4a0c      	ldr	r2, [pc, #48]	; (80011c0 <fillData+0x84>)
 8001190:	ba5b      	rev16	r3, r3
 8001192:	8013      	strh	r3, [r2, #0]
 8001194:	4770      	bx	lr
 8001196:	bf00      	nop
 8001198:	2000023c 	.word	0x2000023c
 800119c:	2000023e 	.word	0x2000023e
 80011a0:	20000240 	.word	0x20000240
 80011a4:	20000242 	.word	0x20000242
 80011a8:	20000244 	.word	0x20000244
 80011ac:	20000246 	.word	0x20000246
 80011b0:	20000248 	.word	0x20000248
 80011b4:	2000024a 	.word	0x2000024a
 80011b8:	20000260 	.word	0x20000260
 80011bc:	20000262 	.word	0x20000262
 80011c0:	20000264 	.word	0x20000264

080011c4 <writeAndRead>:
 80011c4:	b570      	push	{r4, r5, r6, lr}
 80011c6:	4616      	mov	r6, r2
 80011c8:	461c      	mov	r4, r3
 80011ca:	f44f 727a 	mov.w	r2, #1000	; 0x3e8
 80011ce:	2301      	movs	r3, #1
 80011d0:	b086      	sub	sp, #24
 80011d2:	e9cd 3201 	strd	r3, r2, [sp, #4]
 80011d6:	f10d 0217 	add.w	r2, sp, #23
 80011da:	f88d 1017 	strb.w	r1, [sp, #23]
 80011de:	9200      	str	r2, [sp, #0]
 80011e0:	4605      	mov	r5, r0
 80011e2:	22f4      	movs	r2, #244	; 0xf4
 80011e4:	21ee      	movs	r1, #238	; 0xee
 80011e6:	4815      	ldr	r0, [pc, #84]	; (800123c <writeAndRead+0x78>)
 80011e8:	f002 ffca 	bl	8004180 <HAL_I2C_Mem_Write>
 80011ec:	2e50      	cmp	r6, #80	; 0x50
 80011ee:	d120      	bne.n	8001232 <writeAndRead+0x6e>
 80011f0:	b91c      	cbnz	r4, 80011fa <writeAndRead+0x36>
 80011f2:	2005      	movs	r0, #5
 80011f4:	f002 f8cc 	bl	8003390 <HAL_Delay>
 80011f8:	e009      	b.n	800120e <writeAndRead+0x4a>
 80011fa:	2c01      	cmp	r4, #1
 80011fc:	d003      	beq.n	8001206 <writeAndRead+0x42>
 80011fe:	2c02      	cmp	r4, #2
 8001200:	d103      	bne.n	800120a <writeAndRead+0x46>
 8001202:	200e      	movs	r0, #14
 8001204:	e7f6      	b.n	80011f4 <writeAndRead+0x30>
 8001206:	2008      	movs	r0, #8
 8001208:	e7f4      	b.n	80011f4 <writeAndRead+0x30>
 800120a:	2c03      	cmp	r4, #3
 800120c:	d00d      	beq.n	800122a <writeAndRead+0x66>
 800120e:	2403      	movs	r4, #3
 8001210:	f44f 737a 	mov.w	r3, #1000	; 0x3e8
 8001214:	22f6      	movs	r2, #246	; 0xf6
 8001216:	e9cd 4301 	strd	r4, r3, [sp, #4]
 800121a:	21ee      	movs	r1, #238	; 0xee
 800121c:	2301      	movs	r3, #1
 800121e:	9500      	str	r5, [sp, #0]
 8001220:	4806      	ldr	r0, [pc, #24]	; (800123c <writeAndRead+0x78>)
 8001222:	f003 f83d 	bl	80042a0 <HAL_I2C_Mem_Read>
 8001226:	b006      	add	sp, #24
 8001228:	bd70      	pop	{r4, r5, r6, pc}
 800122a:	201a      	movs	r0, #26
 800122c:	f002 f8b0 	bl	8003390 <HAL_Delay>
 8001230:	e7ee      	b.n	8001210 <writeAndRead+0x4c>
 8001232:	2005      	movs	r0, #5
 8001234:	f002 f8ac 	bl	8003390 <HAL_Delay>
 8001238:	2402      	movs	r4, #2
 800123a:	e7e9      	b.n	8001210 <writeAndRead+0x4c>
 800123c:	20002378 	.word	0x20002378

08001240 <readTempBPM180>:
 8001240:	2300      	movs	r3, #0
 8001242:	b507      	push	{r0, r1, r2, lr}
 8001244:	f8ad 3004 	strh.w	r3, [sp, #4]
 8001248:	2304      	movs	r3, #4
 800124a:	2254      	movs	r2, #84	; 0x54
 800124c:	eb0d 0003 	add.w	r0, sp, r3
 8001250:	212e      	movs	r1, #46	; 0x2e
 8001252:	f7ff ffb7 	bl	80011c4 <writeAndRead>
 8001256:	f8bd 0004 	ldrh.w	r0, [sp, #4]
 800125a:	ba40      	rev16	r0, r0
 800125c:	b280      	uxth	r0, r0
 800125e:	b003      	add	sp, #12
 8001260:	f85d fb04 	ldr.w	pc, [sp], #4

08001264 <readPressureBPM180>:
 8001264:	b513      	push	{r0, r1, r4, lr}
 8001266:	4604      	mov	r4, r0
 8001268:	0181      	lsls	r1, r0, #6
 800126a:	3134      	adds	r1, #52	; 0x34
 800126c:	4603      	mov	r3, r0
 800126e:	2250      	movs	r2, #80	; 0x50
 8001270:	a801      	add	r0, sp, #4
 8001272:	f001 01fc 	and.w	r1, r1, #252	; 0xfc
 8001276:	f7ff ffa5 	bl	80011c4 <writeAndRead>
 800127a:	f89d 2005 	ldrb.w	r2, [sp, #5]
 800127e:	f89d 3004 	ldrb.w	r3, [sp, #4]
 8001282:	0212      	lsls	r2, r2, #8
 8001284:	eb02 4203 	add.w	r2, r2, r3, lsl #16
 8001288:	f89d 3006 	ldrb.w	r3, [sp, #6]
 800128c:	f1c4 0408 	rsb	r4, r4, #8
 8001290:	441a      	add	r2, r3
 8001292:	fa42 f004 	asr.w	r0, r2, r4
 8001296:	b280      	uxth	r0, r0
 8001298:	b002      	add	sp, #8
 800129a:	bd10      	pop	{r4, pc}

0800129c <calculateTemp>:
 800129c:	b5d0      	push	{r4, r6, r7, lr}
 800129e:	f7ff ffcf 	bl	8001240 <readTempBPM180>
 80012a2:	4b1f      	ldr	r3, [pc, #124]	; (8001320 <calculateTemp+0x84>)
 80012a4:	6018      	str	r0, [r3, #0]
 80012a6:	4b1f      	ldr	r3, [pc, #124]	; (8001324 <calculateTemp+0x88>)
 80012a8:	881b      	ldrh	r3, [r3, #0]
 80012aa:	1ac0      	subs	r0, r0, r3
 80012ac:	4b1e      	ldr	r3, [pc, #120]	; (8001328 <calculateTemp+0x8c>)
 80012ae:	881b      	ldrh	r3, [r3, #0]
 80012b0:	4358      	muls	r0, r3
 80012b2:	f7ff f8a7 	bl	8000404 <__aeabi_i2d>
 80012b6:	2200      	movs	r2, #0
 80012b8:	f04f 537c 	mov.w	r3, #1056964608	; 0x3f000000
 80012bc:	f7ff f90c 	bl	80004d8 <__aeabi_dmul>
 80012c0:	f7ff fbba 	bl	8000a38 <__aeabi_d2iz>
 80012c4:	4b19      	ldr	r3, [pc, #100]	; (800132c <calculateTemp+0x90>)
 80012c6:	4604      	mov	r4, r0
 80012c8:	6018      	str	r0, [r3, #0]
 80012ca:	4b19      	ldr	r3, [pc, #100]	; (8001330 <calculateTemp+0x94>)
 80012cc:	f9b3 0000 	ldrsh.w	r0, [r3]
 80012d0:	f7ff f898 	bl	8000404 <__aeabi_i2d>
 80012d4:	2200      	movs	r2, #0
 80012d6:	4b17      	ldr	r3, [pc, #92]	; (8001334 <calculateTemp+0x98>)
 80012d8:	f7ff f8fe 	bl	80004d8 <__aeabi_dmul>
 80012dc:	4b16      	ldr	r3, [pc, #88]	; (8001338 <calculateTemp+0x9c>)
 80012de:	4606      	mov	r6, r0
 80012e0:	f9b3 0000 	ldrsh.w	r0, [r3]
 80012e4:	460f      	mov	r7, r1
 80012e6:	4420      	add	r0, r4
 80012e8:	f7ff f88c 	bl	8000404 <__aeabi_i2d>
 80012ec:	4602      	mov	r2, r0
 80012ee:	460b      	mov	r3, r1
 80012f0:	4630      	mov	r0, r6
 80012f2:	4639      	mov	r1, r7
 80012f4:	f7ff fa1a 	bl	800072c <__aeabi_ddiv>
 80012f8:	f7ff fb9e 	bl	8000a38 <__aeabi_d2iz>
 80012fc:	4b0f      	ldr	r3, [pc, #60]	; (800133c <calculateTemp+0xa0>)
 80012fe:	6018      	str	r0, [r3, #0]
 8001300:	4b0f      	ldr	r3, [pc, #60]	; (8001340 <calculateTemp+0xa4>)
 8001302:	4420      	add	r0, r4
 8001304:	6018      	str	r0, [r3, #0]
 8001306:	3008      	adds	r0, #8
 8001308:	f7ff f87c 	bl	8000404 <__aeabi_i2d>
 800130c:	4b0d      	ldr	r3, [pc, #52]	; (8001344 <calculateTemp+0xa8>)
 800130e:	2200      	movs	r2, #0
 8001310:	f7ff f8e2 	bl	80004d8 <__aeabi_dmul>
 8001314:	f7ff fbd8 	bl	8000ac8 <__aeabi_d2f>
 8001318:	4b0b      	ldr	r3, [pc, #44]	; (8001348 <calculateTemp+0xac>)
 800131a:	6018      	str	r0, [r3, #0]
 800131c:	bdd0      	pop	{r4, r6, r7, pc}
 800131e:	bf00      	nop
 8001320:	20000274 	.word	0x20000274
 8001324:	20000246 	.word	0x20000246
 8001328:	20000244 	.word	0x20000244
 800132c:	20000278 	.word	0x20000278
 8001330:	20000262 	.word	0x20000262
 8001334:	40a00000 	.word	0x40a00000
 8001338:	20000264 	.word	0x20000264
 800133c:	2000027c 	.word	0x2000027c
 8001340:	20000254 	.word	0x20000254
 8001344:	3fb00000 	.word	0x3fb00000
 8001348:	2000026c 	.word	0x2000026c

0800134c <readTrueTemp>:
 800134c:	b508      	push	{r3, lr}
 800134e:	f7ff ffa5 	bl	800129c <calculateTemp>
 8001352:	4b03      	ldr	r3, [pc, #12]	; (8001360 <readTrueTemp+0x14>)
 8001354:	4903      	ldr	r1, [pc, #12]	; (8001364 <readTrueTemp+0x18>)
 8001356:	6818      	ldr	r0, [r3, #0]
 8001358:	f7ff fdc8 	bl	8000eec <__aeabi_fdiv>
 800135c:	bd08      	pop	{r3, pc}
 800135e:	bf00      	nop
 8001360:	2000026c 	.word	0x2000026c
 8001364:	41200000 	.word	0x41200000

08001368 <calculatePress>:
 8001368:	e92d 43f8 	stmdb	sp!, {r3, r4, r5, r6, r7, r8, r9, lr}
 800136c:	4680      	mov	r8, r0
 800136e:	f7ff ff79 	bl	8001264 <readPressureBPM180>
 8001372:	4b66      	ldr	r3, [pc, #408]	; (800150c <calculatePress+0x1a4>)
 8001374:	4604      	mov	r4, r0
 8001376:	6018      	str	r0, [r3, #0]
 8001378:	4b65      	ldr	r3, [pc, #404]	; (8001510 <calculatePress+0x1a8>)
 800137a:	681b      	ldr	r3, [r3, #0]
 800137c:	f5a3 697a 	sub.w	r9, r3, #4000	; 0xfa0
 8001380:	4b64      	ldr	r3, [pc, #400]	; (8001514 <calculatePress+0x1ac>)
 8001382:	fb09 f009 	mul.w	r0, r9, r9
 8001386:	f8c3 9000 	str.w	r9, [r3]
 800138a:	f7ff f83b 	bl	8000404 <__aeabi_i2d>
 800138e:	2200      	movs	r2, #0
 8001390:	4b61      	ldr	r3, [pc, #388]	; (8001518 <calculatePress+0x1b0>)
 8001392:	f7ff f8a1 	bl	80004d8 <__aeabi_dmul>
 8001396:	4606      	mov	r6, r0
 8001398:	460f      	mov	r7, r1
 800139a:	4b60      	ldr	r3, [pc, #384]	; (800151c <calculatePress+0x1b4>)
 800139c:	f9b3 0000 	ldrsh.w	r0, [r3]
 80013a0:	f7ff f830 	bl	8000404 <__aeabi_i2d>
 80013a4:	4632      	mov	r2, r6
 80013a6:	463b      	mov	r3, r7
 80013a8:	f7ff f896 	bl	80004d8 <__aeabi_dmul>
 80013ac:	2200      	movs	r2, #0
 80013ae:	f04f 537d 	mov.w	r3, #1061158912	; 0x3f400000
 80013b2:	f7ff f891 	bl	80004d8 <__aeabi_dmul>
 80013b6:	f7ff fb3f 	bl	8000a38 <__aeabi_d2iz>
 80013ba:	4b59      	ldr	r3, [pc, #356]	; (8001520 <calculatePress+0x1b8>)
 80013bc:	4605      	mov	r5, r0
 80013be:	f9b3 0000 	ldrsh.w	r0, [r3]
 80013c2:	fb09 f000 	mul.w	r0, r9, r0
 80013c6:	f7ff f81d 	bl	8000404 <__aeabi_i2d>
 80013ca:	2200      	movs	r2, #0
 80013cc:	f04f 537d 	mov.w	r3, #1061158912	; 0x3f400000
 80013d0:	f7ff f882 	bl	80004d8 <__aeabi_dmul>
 80013d4:	f7ff fb30 	bl	8000a38 <__aeabi_d2iz>
 80013d8:	4a52      	ldr	r2, [pc, #328]	; (8001524 <calculatePress+0x1bc>)
 80013da:	182b      	adds	r3, r5, r0
 80013dc:	f9b2 2000 	ldrsh.w	r2, [r2]
 80013e0:	eb03 0382 	add.w	r3, r3, r2, lsl #2
 80013e4:	fa03 f308 	lsl.w	r3, r3, r8
 80013e8:	1c9d      	adds	r5, r3, #2
 80013ea:	bf48      	it	mi
 80013ec:	1d5d      	addmi	r5, r3, #5
 80013ee:	4b4e      	ldr	r3, [pc, #312]	; (8001528 <calculatePress+0x1c0>)
 80013f0:	10ad      	asrs	r5, r5, #2
 80013f2:	601d      	str	r5, [r3, #0]
 80013f4:	4b4d      	ldr	r3, [pc, #308]	; (800152c <calculatePress+0x1c4>)
 80013f6:	f9b3 0000 	ldrsh.w	r0, [r3]
 80013fa:	fb09 f000 	mul.w	r0, r9, r0
 80013fe:	f7ff f801 	bl	8000404 <__aeabi_i2d>
 8001402:	2200      	movs	r2, #0
 8001404:	4b4a      	ldr	r3, [pc, #296]	; (8001530 <calculatePress+0x1c8>)
 8001406:	f7ff f867 	bl	80004d8 <__aeabi_dmul>
 800140a:	f7ff fb15 	bl	8000a38 <__aeabi_d2iz>
 800140e:	4b49      	ldr	r3, [pc, #292]	; (8001534 <calculatePress+0x1cc>)
 8001410:	4681      	mov	r9, r0
 8001412:	f9b3 0000 	ldrsh.w	r0, [r3]
 8001416:	f7fe fff5 	bl	8000404 <__aeabi_i2d>
 800141a:	4632      	mov	r2, r6
 800141c:	463b      	mov	r3, r7
 800141e:	f7ff f85b 	bl	80004d8 <__aeabi_dmul>
 8001422:	2200      	movs	r2, #0
 8001424:	4b44      	ldr	r3, [pc, #272]	; (8001538 <calculatePress+0x1d0>)
 8001426:	f7ff f857 	bl	80004d8 <__aeabi_dmul>
 800142a:	f7ff fb05 	bl	8000a38 <__aeabi_d2iz>
 800142e:	4448      	add	r0, r9
 8001430:	3002      	adds	r0, #2
 8001432:	f7fe ffe7 	bl	8000404 <__aeabi_i2d>
 8001436:	2200      	movs	r2, #0
 8001438:	4b40      	ldr	r3, [pc, #256]	; (800153c <calculatePress+0x1d4>)
 800143a:	f7ff f84d 	bl	80004d8 <__aeabi_dmul>
 800143e:	f7ff fafb 	bl	8000a38 <__aeabi_d2iz>
 8001442:	4b3f      	ldr	r3, [pc, #252]	; (8001540 <calculatePress+0x1d8>)
 8001444:	6018      	str	r0, [r3, #0]
 8001446:	4b3f      	ldr	r3, [pc, #252]	; (8001544 <calculatePress+0x1dc>)
 8001448:	f500 4000 	add.w	r0, r0, #32768	; 0x8000
 800144c:	881b      	ldrh	r3, [r3, #0]
 800144e:	4358      	muls	r0, r3
 8001450:	f7fe ffc8 	bl	80003e4 <__aeabi_ui2d>
 8001454:	2200      	movs	r2, #0
 8001456:	f04f 537c 	mov.w	r3, #1056964608	; 0x3f000000
 800145a:	f7ff f83d 	bl	80004d8 <__aeabi_dmul>
 800145e:	f7ff fb13 	bl	8000a88 <__aeabi_d2uiz>
 8001462:	f24c 3250 	movw	r2, #50000	; 0xc350
 8001466:	4b38      	ldr	r3, [pc, #224]	; (8001548 <calculatePress+0x1e0>)
 8001468:	fa42 f208 	asr.w	r2, r2, r8
 800146c:	6018      	str	r0, [r3, #0]
 800146e:	1b63      	subs	r3, r4, r5
 8001470:	4353      	muls	r3, r2
 8001472:	2b00      	cmp	r3, #0
 8001474:	bfb8      	it	lt
 8001476:	fbb3 f0f0 	udivlt	r0, r3, r0
 800147a:	4a34      	ldr	r2, [pc, #208]	; (800154c <calculatePress+0x1e4>)
 800147c:	bfb8      	it	lt
 800147e:	0040      	lsllt	r0, r0, #1
 8001480:	6013      	str	r3, [r2, #0]
 8001482:	bfa4      	itt	ge
 8001484:	005b      	lslge	r3, r3, #1
 8001486:	fbb3 f0f0 	udivge	r0, r3, r0
 800148a:	f7ff fc23 	bl	8000cd4 <__aeabi_ui2f>
 800148e:	4604      	mov	r4, r0
 8001490:	f7fe ffca 	bl	8000428 <__aeabi_f2d>
 8001494:	2200      	movs	r2, #0
 8001496:	4b2e      	ldr	r3, [pc, #184]	; (8001550 <calculatePress+0x1e8>)
 8001498:	4606      	mov	r6, r0
 800149a:	460f      	mov	r7, r1
 800149c:	f7ff f81c 	bl	80004d8 <__aeabi_dmul>
 80014a0:	4602      	mov	r2, r0
 80014a2:	460b      	mov	r3, r1
 80014a4:	f7ff f818 	bl	80004d8 <__aeabi_dmul>
 80014a8:	f7ff fac6 	bl	8000a38 <__aeabi_d2iz>
 80014ac:	f640 33de 	movw	r3, #3038	; 0xbde
 80014b0:	4358      	muls	r0, r3
 80014b2:	f7fe ffa7 	bl	8000404 <__aeabi_i2d>
 80014b6:	2200      	movs	r2, #0
 80014b8:	4b1f      	ldr	r3, [pc, #124]	; (8001538 <calculatePress+0x1d0>)
 80014ba:	f7ff f80d 	bl	80004d8 <__aeabi_dmul>
 80014be:	f7ff fabb 	bl	8000a38 <__aeabi_d2iz>
 80014c2:	4b24      	ldr	r3, [pc, #144]	; (8001554 <calculatePress+0x1ec>)
 80014c4:	4605      	mov	r5, r0
 80014c6:	6018      	str	r0, [r3, #0]
 80014c8:	4923      	ldr	r1, [pc, #140]	; (8001558 <calculatePress+0x1f0>)
 80014ca:	4620      	mov	r0, r4
 80014cc:	f7ff fc5a 	bl	8000d84 <__aeabi_fmul>
 80014d0:	f7fe ffaa 	bl	8000428 <__aeabi_f2d>
 80014d4:	2200      	movs	r2, #0
 80014d6:	4b18      	ldr	r3, [pc, #96]	; (8001538 <calculatePress+0x1d0>)
 80014d8:	f7fe fffe 	bl	80004d8 <__aeabi_dmul>
 80014dc:	f7ff faac 	bl	8000a38 <__aeabi_d2iz>
 80014e0:	4b1e      	ldr	r3, [pc, #120]	; (800155c <calculatePress+0x1f4>)
 80014e2:	6018      	str	r0, [r3, #0]
 80014e4:	4428      	add	r0, r5
 80014e6:	f600 60cf 	addw	r0, r0, #3791	; 0xecf
 80014ea:	f7fe ff8b 	bl	8000404 <__aeabi_i2d>
 80014ee:	2200      	movs	r2, #0
 80014f0:	4b1b      	ldr	r3, [pc, #108]	; (8001560 <calculatePress+0x1f8>)
 80014f2:	f7fe fff1 	bl	80004d8 <__aeabi_dmul>
 80014f6:	463b      	mov	r3, r7
 80014f8:	4632      	mov	r2, r6
 80014fa:	f7fe fe37 	bl	800016c <__adddf3>
 80014fe:	f7ff fae3 	bl	8000ac8 <__aeabi_d2f>
 8001502:	4b18      	ldr	r3, [pc, #96]	; (8001564 <calculatePress+0x1fc>)
 8001504:	6018      	str	r0, [r3, #0]
 8001506:	e8bd 83f8 	ldmia.w	sp!, {r3, r4, r5, r6, r7, r8, r9, pc}
 800150a:	bf00      	nop
 800150c:	20000270 	.word	0x20000270
 8001510:	20000254 	.word	0x20000254
 8001514:	20000258 	.word	0x20000258
 8001518:	3f300000 	.word	0x3f300000
 800151c:	2000024a 	.word	0x2000024a
 8001520:	2000023e 	.word	0x2000023e
 8001524:	2000023c 	.word	0x2000023c
 8001528:	2000024c 	.word	0x2000024c
 800152c:	20000240 	.word	0x20000240
 8001530:	3f200000 	.word	0x3f200000
 8001534:	20000248 	.word	0x20000248
 8001538:	3ef00000 	.word	0x3ef00000
 800153c:	3fd00000 	.word	0x3fd00000
 8001540:	20000280 	.word	0x20000280
 8001544:	20000242 	.word	0x20000242
 8001548:	20000250 	.word	0x20000250
 800154c:	2000025c 	.word	0x2000025c
 8001550:	3f700000 	.word	0x3f700000
 8001554:	20000278 	.word	0x20000278
 8001558:	c5e5e800 	.word	0xc5e5e800
 800155c:	2000027c 	.word	0x2000027c
 8001560:	3fb00000 	.word	0x3fb00000
 8001564:	20000268 	.word	0x20000268

08001568 <readTruePress>:
 8001568:	b508      	push	{r3, lr}
 800156a:	f7ff fefd 	bl	8001368 <calculatePress>
 800156e:	4b01      	ldr	r3, [pc, #4]	; (8001574 <readTruePress+0xc>)
 8001570:	6818      	ldr	r0, [r3, #0]
 8001572:	bd08      	pop	{r3, pc}
 8001574:	20000268 	.word	0x20000268

08001578 <readTrueAltitude>:
 8001578:	b508      	push	{r3, lr}
 800157a:	f7ff fff5 	bl	8001568 <readTruePress>
 800157e:	4b12      	ldr	r3, [pc, #72]	; (80015c8 <readTrueAltitude+0x50>)
 8001580:	4912      	ldr	r1, [pc, #72]	; (80015cc <readTrueAltitude+0x54>)
 8001582:	6818      	ldr	r0, [r3, #0]
 8001584:	f7ff fcb2 	bl	8000eec <__aeabi_fdiv>
 8001588:	f7fe ff4e 	bl	8000428 <__aeabi_f2d>
 800158c:	a30a      	add	r3, pc, #40	; (adr r3, 80015b8 <readTrueAltitude+0x40>)
 800158e:	e9d3 2300 	ldrd	r2, r3, [r3]
 8001592:	f009 fbeb 	bl	800ad6c <pow>
 8001596:	4602      	mov	r2, r0
 8001598:	460b      	mov	r3, r1
 800159a:	2000      	movs	r0, #0
 800159c:	490c      	ldr	r1, [pc, #48]	; (80015d0 <readTrueAltitude+0x58>)
 800159e:	f7fe fde3 	bl	8000168 <__aeabi_dsub>
 80015a2:	a307      	add	r3, pc, #28	; (adr r3, 80015c0 <readTrueAltitude+0x48>)
 80015a4:	e9d3 2300 	ldrd	r2, r3, [r3]
 80015a8:	f7fe ff96 	bl	80004d8 <__aeabi_dmul>
 80015ac:	f7ff fa8c 	bl	8000ac8 <__aeabi_d2f>
 80015b0:	bd08      	pop	{r3, pc}
 80015b2:	bf00      	nop
 80015b4:	f3af 8000 	nop.w
 80015b8:	ccd9456c 	.word	0xccd9456c
 80015bc:	3fc85b95 	.word	0x3fc85b95
 80015c0:	00000000 	.word	0x00000000
 80015c4:	40e5a540 	.word	0x40e5a540
 80015c8:	20000268 	.word	0x20000268
 80015cc:	47c5e680 	.word	0x47c5e680
 80015d0:	3ff00000 	.word	0x3ff00000

080015d4 <readCalibrationBMP180>:
 80015d4:	2100      	movs	r1, #0
 80015d6:	b510      	push	{r4, lr}
 80015d8:	b08a      	sub	sp, #40	; 0x28
 80015da:	2212      	movs	r2, #18
 80015dc:	a805      	add	r0, sp, #20
 80015de:	9104      	str	r1, [sp, #16]
 80015e0:	f007 fab1 	bl	8008b46 <memset>
 80015e4:	2316      	movs	r3, #22
 80015e6:	f44f 727a 	mov.w	r2, #1000	; 0x3e8
 80015ea:	ac04      	add	r4, sp, #16
 80015ec:	e9cd 3201 	strd	r3, r2, [sp, #4]
 80015f0:	21ee      	movs	r1, #238	; 0xee
 80015f2:	2301      	movs	r3, #1
 80015f4:	22aa      	movs	r2, #170	; 0xaa
 80015f6:	9400      	str	r4, [sp, #0]
 80015f8:	4803      	ldr	r0, [pc, #12]	; (8001608 <readCalibrationBMP180+0x34>)
 80015fa:	f002 fe51 	bl	80042a0 <HAL_I2C_Mem_Read>
 80015fe:	4620      	mov	r0, r4
 8001600:	f7ff fd9c 	bl	800113c <fillData>
 8001604:	b00a      	add	sp, #40	; 0x28
 8001606:	bd10      	pop	{r4, pc}
 8001608:	20002378 	.word	0x20002378

0800160c <initialBMP180>:
 800160c:	f7ff bfe2 	b.w	80015d4 <readCalibrationBMP180>

08001610 <SPI_TxBuffer>:
 8001610:	4b05      	ldr	r3, [pc, #20]	; (8001628 <SPI_TxBuffer+0x18>)
 8001612:	460a      	mov	r2, r1
 8001614:	6819      	ldr	r1, [r3, #0]
 8001616:	688b      	ldr	r3, [r1, #8]
 8001618:	079b      	lsls	r3, r3, #30
 800161a:	d5fc      	bpl.n	8001616 <SPI_TxBuffer+0x6>
 800161c:	4601      	mov	r1, r0
 800161e:	2364      	movs	r3, #100	; 0x64
 8001620:	4801      	ldr	r0, [pc, #4]	; (8001628 <SPI_TxBuffer+0x18>)
 8001622:	f004 b907 	b.w	8005834 <HAL_SPI_Transmit>
 8001626:	bf00      	nop
 8001628:	200023cc 	.word	0x200023cc

0800162c <SPI_TxByte>:
 800162c:	b507      	push	{r0, r1, r2, lr}
 800162e:	4b08      	ldr	r3, [pc, #32]	; (8001650 <SPI_TxByte+0x24>)
 8001630:	f88d 0007 	strb.w	r0, [sp, #7]
 8001634:	681a      	ldr	r2, [r3, #0]
 8001636:	6893      	ldr	r3, [r2, #8]
 8001638:	079b      	lsls	r3, r3, #30
 800163a:	d5fc      	bpl.n	8001636 <SPI_TxByte+0xa>
 800163c:	2364      	movs	r3, #100	; 0x64
 800163e:	2201      	movs	r2, #1
 8001640:	f10d 0107 	add.w	r1, sp, #7
 8001644:	4802      	ldr	r0, [pc, #8]	; (8001650 <SPI_TxByte+0x24>)
 8001646:	f004 f8f5 	bl	8005834 <HAL_SPI_Transmit>
 800164a:	b003      	add	sp, #12
 800164c:	f85d fb04 	ldr.w	pc, [sp], #4
 8001650:	200023cc 	.word	0x200023cc

08001654 <SELECT>:
 8001654:	b508      	push	{r3, lr}
 8001656:	4805      	ldr	r0, [pc, #20]	; (800166c <SELECT+0x18>)
 8001658:	2200      	movs	r2, #0
 800165a:	2101      	movs	r1, #1
 800165c:	f002 f854 	bl	8003708 <HAL_GPIO_WritePin>
 8001660:	e8bd 4008 	ldmia.w	sp!, {r3, lr}
 8001664:	2001      	movs	r0, #1
 8001666:	f001 be93 	b.w	8003390 <HAL_Delay>
 800166a:	bf00      	nop
 800166c:	40010c00 	.word	0x40010c00

08001670 <DESELECT>:
 8001670:	2201      	movs	r2, #1
 8001672:	b508      	push	{r3, lr}
 8001674:	4804      	ldr	r0, [pc, #16]	; (8001688 <DESELECT+0x18>)
 8001676:	4611      	mov	r1, r2
 8001678:	f002 f846 	bl	8003708 <HAL_GPIO_WritePin>
 800167c:	e8bd 4008 	ldmia.w	sp!, {r3, lr}
 8001680:	2001      	movs	r0, #1
 8001682:	f001 be85 	b.w	8003390 <HAL_Delay>
 8001686:	bf00      	nop
 8001688:	40010c00 	.word	0x40010c00

0800168c <SPI_RxByte>:
 800168c:	b51f      	push	{r0, r1, r2, r3, r4, lr}
 800168e:	23ff      	movs	r3, #255	; 0xff
 8001690:	f88d 300e 	strb.w	r3, [sp, #14]
 8001694:	4b09      	ldr	r3, [pc, #36]	; (80016bc <SPI_RxByte+0x30>)
 8001696:	681a      	ldr	r2, [r3, #0]
 8001698:	6893      	ldr	r3, [r2, #8]
 800169a:	079b      	lsls	r3, r3, #30
 800169c:	d5fc      	bpl.n	8001698 <SPI_RxByte+0xc>
 800169e:	2364      	movs	r3, #100	; 0x64
 80016a0:	f10d 020f 	add.w	r2, sp, #15
 80016a4:	9300      	str	r3, [sp, #0]
 80016a6:	f10d 010e 	add.w	r1, sp, #14
 80016aa:	2301      	movs	r3, #1
 80016ac:	4803      	ldr	r0, [pc, #12]	; (80016bc <SPI_RxByte+0x30>)
 80016ae:	f004 f975 	bl	800599c <HAL_SPI_TransmitReceive>
 80016b2:	f89d 000f 	ldrb.w	r0, [sp, #15]
 80016b6:	b005      	add	sp, #20
 80016b8:	f85d fb04 	ldr.w	pc, [sp], #4
 80016bc:	200023cc 	.word	0x200023cc

080016c0 <SD_PowerOn>:
 80016c0:	b513      	push	{r0, r1, r4, lr}
 80016c2:	f7ff ffd5 	bl	8001670 <DESELECT>
 80016c6:	240a      	movs	r4, #10
 80016c8:	20ff      	movs	r0, #255	; 0xff
 80016ca:	f7ff ffaf 	bl	800162c <SPI_TxByte>
 80016ce:	3c01      	subs	r4, #1
 80016d0:	d1fa      	bne.n	80016c8 <SD_PowerOn+0x8>
 80016d2:	f7ff ffbf 	bl	8001654 <SELECT>
 80016d6:	2340      	movs	r3, #64	; 0x40
 80016d8:	9300      	str	r3, [sp, #0]
 80016da:	f44f 4315 	mov.w	r3, #38144	; 0x9500
 80016de:	2106      	movs	r1, #6
 80016e0:	4668      	mov	r0, sp
 80016e2:	f8ad 3004 	strh.w	r3, [sp, #4]
 80016e6:	f44f 5400 	mov.w	r4, #8192	; 0x2000
 80016ea:	f7ff ff91 	bl	8001610 <SPI_TxBuffer>
 80016ee:	f7ff ffcd 	bl	800168c <SPI_RxByte>
 80016f2:	2801      	cmp	r0, #1
 80016f4:	d001      	beq.n	80016fa <SD_PowerOn+0x3a>
 80016f6:	3c01      	subs	r4, #1
 80016f8:	d1f9      	bne.n	80016ee <SD_PowerOn+0x2e>
 80016fa:	f7ff ffb9 	bl	8001670 <DESELECT>
 80016fe:	20ff      	movs	r0, #255	; 0xff
 8001700:	f7ff ff94 	bl	800162c <SPI_TxByte>
 8001704:	2201      	movs	r2, #1
 8001706:	4b02      	ldr	r3, [pc, #8]	; (8001710 <SD_PowerOn+0x50>)
 8001708:	701a      	strb	r2, [r3, #0]
 800170a:	b002      	add	sp, #8
 800170c:	bd10      	pop	{r4, pc}
 800170e:	bf00      	nop
 8001710:	20000285 	.word	0x20000285

08001714 <SD_ReadyWait>:
 8001714:	f44f 73fa 	mov.w	r3, #500	; 0x1f4
 8001718:	b510      	push	{r4, lr}
 800171a:	4c05      	ldr	r4, [pc, #20]	; (8001730 <SD_ReadyWait+0x1c>)
 800171c:	8023      	strh	r3, [r4, #0]
 800171e:	f7ff ffb5 	bl	800168c <SPI_RxByte>
 8001722:	28ff      	cmp	r0, #255	; 0xff
 8001724:	d003      	beq.n	800172e <SD_ReadyWait+0x1a>
 8001726:	8823      	ldrh	r3, [r4, #0]
 8001728:	b29b      	uxth	r3, r3
 800172a:	2b00      	cmp	r3, #0
 800172c:	d1f7      	bne.n	800171e <SD_ReadyWait+0xa>
 800172e:	bd10      	pop	{r4, pc}
 8001730:	200025f6 	.word	0x200025f6

08001734 <SD_TxDataBlock>:
 8001734:	b570      	push	{r4, r5, r6, lr}
 8001736:	4606      	mov	r6, r0
 8001738:	460d      	mov	r5, r1
 800173a:	f7ff ffeb 	bl	8001714 <SD_ReadyWait>
 800173e:	28ff      	cmp	r0, #255	; 0xff
 8001740:	f04f 0400 	mov.w	r4, #0
 8001744:	d123      	bne.n	800178e <SD_TxDataBlock+0x5a>
 8001746:	4628      	mov	r0, r5
 8001748:	f7ff ff70 	bl	800162c <SPI_TxByte>
 800174c:	2dfd      	cmp	r5, #253	; 0xfd
 800174e:	d018      	beq.n	8001782 <SD_TxDataBlock+0x4e>
 8001750:	f44f 7100 	mov.w	r1, #512	; 0x200
 8001754:	4630      	mov	r0, r6
 8001756:	f7ff ff5b 	bl	8001610 <SPI_TxBuffer>
 800175a:	2541      	movs	r5, #65	; 0x41
 800175c:	f7ff ff96 	bl	800168c <SPI_RxByte>
 8001760:	f7ff ff94 	bl	800168c <SPI_RxByte>
 8001764:	f7ff ff92 	bl	800168c <SPI_RxByte>
 8001768:	f000 031f 	and.w	r3, r0, #31
 800176c:	2b05      	cmp	r3, #5
 800176e:	4604      	mov	r4, r0
 8001770:	d003      	beq.n	800177a <SD_TxDataBlock+0x46>
 8001772:	3d01      	subs	r5, #1
 8001774:	f015 05ff 	ands.w	r5, r5, #255	; 0xff
 8001778:	d1f4      	bne.n	8001764 <SD_TxDataBlock+0x30>
 800177a:	f7ff ff87 	bl	800168c <SPI_RxByte>
 800177e:	2800      	cmp	r0, #0
 8001780:	d0fb      	beq.n	800177a <SD_TxDataBlock+0x46>
 8001782:	f004 041f 	and.w	r4, r4, #31
 8001786:	1f63      	subs	r3, r4, #5
 8001788:	4258      	negs	r0, r3
 800178a:	4158      	adcs	r0, r3
 800178c:	bd70      	pop	{r4, r5, r6, pc}
 800178e:	4620      	mov	r0, r4
 8001790:	e7fc      	b.n	800178c <SD_TxDataBlock+0x58>

08001792 <SD_SendCmd>:
 8001792:	b538      	push	{r3, r4, r5, lr}
 8001794:	4604      	mov	r4, r0
 8001796:	460d      	mov	r5, r1
 8001798:	f7ff ffbc 	bl	8001714 <SD_ReadyWait>
 800179c:	28ff      	cmp	r0, #255	; 0xff
 800179e:	d128      	bne.n	80017f2 <SD_SendCmd+0x60>
 80017a0:	4620      	mov	r0, r4
 80017a2:	f7ff ff43 	bl	800162c <SPI_TxByte>
 80017a6:	0e28      	lsrs	r0, r5, #24
 80017a8:	f7ff ff40 	bl	800162c <SPI_TxByte>
 80017ac:	f3c5 4007 	ubfx	r0, r5, #16, #8
 80017b0:	f7ff ff3c 	bl	800162c <SPI_TxByte>
 80017b4:	f3c5 2007 	ubfx	r0, r5, #8, #8
 80017b8:	f7ff ff38 	bl	800162c <SPI_TxByte>
 80017bc:	b2e8      	uxtb	r0, r5
 80017be:	f7ff ff35 	bl	800162c <SPI_TxByte>
 80017c2:	2c40      	cmp	r4, #64	; 0x40
 80017c4:	d013      	beq.n	80017ee <SD_SendCmd+0x5c>
 80017c6:	2c48      	cmp	r4, #72	; 0x48
 80017c8:	bf0c      	ite	eq
 80017ca:	2087      	moveq	r0, #135	; 0x87
 80017cc:	2001      	movne	r0, #1
 80017ce:	f7ff ff2d 	bl	800162c <SPI_TxByte>
 80017d2:	2c4c      	cmp	r4, #76	; 0x4c
 80017d4:	d101      	bne.n	80017da <SD_SendCmd+0x48>
 80017d6:	f7ff ff59 	bl	800168c <SPI_RxByte>
 80017da:	240a      	movs	r4, #10
 80017dc:	f7ff ff56 	bl	800168c <SPI_RxByte>
 80017e0:	0603      	lsls	r3, r0, #24
 80017e2:	d503      	bpl.n	80017ec <SD_SendCmd+0x5a>
 80017e4:	3c01      	subs	r4, #1
 80017e6:	f014 04ff 	ands.w	r4, r4, #255	; 0xff
 80017ea:	d1f7      	bne.n	80017dc <SD_SendCmd+0x4a>
 80017ec:	bd38      	pop	{r3, r4, r5, pc}
 80017ee:	2095      	movs	r0, #149	; 0x95
 80017f0:	e7ed      	b.n	80017ce <SD_SendCmd+0x3c>
 80017f2:	20ff      	movs	r0, #255	; 0xff
 80017f4:	e7fa      	b.n	80017ec <SD_SendCmd+0x5a>
	...

080017f8 <SD_RxDataBlock>:
 80017f8:	23c8      	movs	r3, #200	; 0xc8
 80017fa:	b570      	push	{r4, r5, r6, lr}
 80017fc:	4604      	mov	r4, r0
 80017fe:	460e      	mov	r6, r1
 8001800:	4d0e      	ldr	r5, [pc, #56]	; (800183c <SD_RxDataBlock+0x44>)
 8001802:	802b      	strh	r3, [r5, #0]
 8001804:	f7ff ff42 	bl	800168c <SPI_RxByte>
 8001808:	28ff      	cmp	r0, #255	; 0xff
 800180a:	d104      	bne.n	8001816 <SD_RxDataBlock+0x1e>
 800180c:	8828      	ldrh	r0, [r5, #0]
 800180e:	b280      	uxth	r0, r0
 8001810:	2800      	cmp	r0, #0
 8001812:	d1f7      	bne.n	8001804 <SD_RxDataBlock+0xc>
 8001814:	bd70      	pop	{r4, r5, r6, pc}
 8001816:	28fe      	cmp	r0, #254	; 0xfe
 8001818:	d10d      	bne.n	8001836 <SD_RxDataBlock+0x3e>
 800181a:	1e65      	subs	r5, r4, #1
 800181c:	4434      	add	r4, r6
 800181e:	f7ff ff35 	bl	800168c <SPI_RxByte>
 8001822:	f805 0f01 	strb.w	r0, [r5, #1]!
 8001826:	42a5      	cmp	r5, r4
 8001828:	d1f9      	bne.n	800181e <SD_RxDataBlock+0x26>
 800182a:	f7ff ff2f 	bl	800168c <SPI_RxByte>
 800182e:	f7ff ff2d 	bl	800168c <SPI_RxByte>
 8001832:	2001      	movs	r0, #1
 8001834:	e7ee      	b.n	8001814 <SD_RxDataBlock+0x1c>
 8001836:	2000      	movs	r0, #0
 8001838:	e7ec      	b.n	8001814 <SD_RxDataBlock+0x1c>
 800183a:	bf00      	nop
 800183c:	200025f5 	.word	0x200025f5

08001840 <SD_disk_initialize>:
 8001840:	e92d 41f3 	stmdb	sp!, {r0, r1, r4, r5, r6, r7, r8, lr}
 8001844:	2800      	cmp	r0, #0
 8001846:	f040 809e 	bne.w	8001986 <SD_disk_initialize+0x146>
 800184a:	4e50      	ldr	r6, [pc, #320]	; (800198c <SD_disk_initialize+0x14c>)
 800184c:	7835      	ldrb	r5, [r6, #0]
 800184e:	f015 0502 	ands.w	r5, r5, #2
 8001852:	d004      	beq.n	800185e <SD_disk_initialize+0x1e>
 8001854:	7830      	ldrb	r0, [r6, #0]
 8001856:	b2c0      	uxtb	r0, r0
 8001858:	b002      	add	sp, #8
 800185a:	e8bd 81f0 	ldmia.w	sp!, {r4, r5, r6, r7, r8, pc}
 800185e:	f7ff ff2f 	bl	80016c0 <SD_PowerOn>
 8001862:	f7ff fef7 	bl	8001654 <SELECT>
 8001866:	4629      	mov	r1, r5
 8001868:	2040      	movs	r0, #64	; 0x40
 800186a:	f7ff ff92 	bl	8001792 <SD_SendCmd>
 800186e:	2801      	cmp	r0, #1
 8001870:	4604      	mov	r4, r0
 8001872:	d17a      	bne.n	800196a <SD_disk_initialize+0x12a>
 8001874:	f44f 737a 	mov.w	r3, #1000	; 0x3e8
 8001878:	4f45      	ldr	r7, [pc, #276]	; (8001990 <SD_disk_initialize+0x150>)
 800187a:	f44f 71d5 	mov.w	r1, #426	; 0x1aa
 800187e:	2048      	movs	r0, #72	; 0x48
 8001880:	803b      	strh	r3, [r7, #0]
 8001882:	f7ff ff86 	bl	8001792 <SD_SendCmd>
 8001886:	2801      	cmp	r0, #1
 8001888:	d14b      	bne.n	8001922 <SD_disk_initialize+0xe2>
 800188a:	ad01      	add	r5, sp, #4
 800188c:	46a8      	mov	r8, r5
 800188e:	2404      	movs	r4, #4
 8001890:	f7ff fefc 	bl	800168c <SPI_RxByte>
 8001894:	3c01      	subs	r4, #1
 8001896:	f014 04ff 	ands.w	r4, r4, #255	; 0xff
 800189a:	f808 0b01 	strb.w	r0, [r8], #1
 800189e:	d1f7      	bne.n	8001890 <SD_disk_initialize+0x50>
 80018a0:	f89d 3006 	ldrb.w	r3, [sp, #6]
 80018a4:	2b01      	cmp	r3, #1
 80018a6:	d160      	bne.n	800196a <SD_disk_initialize+0x12a>
 80018a8:	f89d 3007 	ldrb.w	r3, [sp, #7]
 80018ac:	2baa      	cmp	r3, #170	; 0xaa
 80018ae:	d15c      	bne.n	800196a <SD_disk_initialize+0x12a>
 80018b0:	2100      	movs	r1, #0
 80018b2:	2077      	movs	r0, #119	; 0x77
 80018b4:	f7ff ff6d 	bl	8001792 <SD_SendCmd>
 80018b8:	2801      	cmp	r0, #1
 80018ba:	d92a      	bls.n	8001912 <SD_disk_initialize+0xd2>
 80018bc:	883b      	ldrh	r3, [r7, #0]
 80018be:	b29b      	uxth	r3, r3
 80018c0:	2b00      	cmp	r3, #0
 80018c2:	d1f5      	bne.n	80018b0 <SD_disk_initialize+0x70>
 80018c4:	883b      	ldrh	r3, [r7, #0]
 80018c6:	b29b      	uxth	r3, r3
 80018c8:	2b00      	cmp	r3, #0
 80018ca:	d04e      	beq.n	800196a <SD_disk_initialize+0x12a>
 80018cc:	2100      	movs	r1, #0
 80018ce:	207a      	movs	r0, #122	; 0x7a
 80018d0:	f7ff ff5f 	bl	8001792 <SD_SendCmd>
 80018d4:	2800      	cmp	r0, #0
 80018d6:	d148      	bne.n	800196a <SD_disk_initialize+0x12a>
 80018d8:	2404      	movs	r4, #4
 80018da:	f7ff fed7 	bl	800168c <SPI_RxByte>
 80018de:	3c01      	subs	r4, #1
 80018e0:	f014 04ff 	ands.w	r4, r4, #255	; 0xff
 80018e4:	f805 0b01 	strb.w	r0, [r5], #1
 80018e8:	d1f7      	bne.n	80018da <SD_disk_initialize+0x9a>
 80018ea:	f89d 3004 	ldrb.w	r3, [sp, #4]
 80018ee:	f013 0f40 	tst.w	r3, #64	; 0x40
 80018f2:	bf14      	ite	ne
 80018f4:	240c      	movne	r4, #12
 80018f6:	2404      	moveq	r4, #4
 80018f8:	4b26      	ldr	r3, [pc, #152]	; (8001994 <SD_disk_initialize+0x154>)
 80018fa:	701c      	strb	r4, [r3, #0]
 80018fc:	f7ff feb8 	bl	8001670 <DESELECT>
 8001900:	f7ff fec4 	bl	800168c <SPI_RxByte>
 8001904:	2c00      	cmp	r4, #0
 8001906:	d03b      	beq.n	8001980 <SD_disk_initialize+0x140>
 8001908:	7833      	ldrb	r3, [r6, #0]
 800190a:	f003 03fe 	and.w	r3, r3, #254	; 0xfe
 800190e:	7033      	strb	r3, [r6, #0]
 8001910:	e7a0      	b.n	8001854 <SD_disk_initialize+0x14>
 8001912:	f04f 4180 	mov.w	r1, #1073741824	; 0x40000000
 8001916:	2069      	movs	r0, #105	; 0x69
 8001918:	f7ff ff3b 	bl	8001792 <SD_SendCmd>
 800191c:	2800      	cmp	r0, #0
 800191e:	d1cd      	bne.n	80018bc <SD_disk_initialize+0x7c>
 8001920:	e7d0      	b.n	80018c4 <SD_disk_initialize+0x84>
 8001922:	4629      	mov	r1, r5
 8001924:	2077      	movs	r0, #119	; 0x77
 8001926:	f7ff ff34 	bl	8001792 <SD_SendCmd>
 800192a:	2801      	cmp	r0, #1
 800192c:	d806      	bhi.n	800193c <SD_disk_initialize+0xfc>
 800192e:	4629      	mov	r1, r5
 8001930:	2069      	movs	r0, #105	; 0x69
 8001932:	f7ff ff2e 	bl	8001792 <SD_SendCmd>
 8001936:	2801      	cmp	r0, #1
 8001938:	bf98      	it	ls
 800193a:	2402      	movls	r4, #2
 800193c:	2c02      	cmp	r4, #2
 800193e:	f04f 0100 	mov.w	r1, #0
 8001942:	d11b      	bne.n	800197c <SD_disk_initialize+0x13c>
 8001944:	2077      	movs	r0, #119	; 0x77
 8001946:	f7ff ff24 	bl	8001792 <SD_SendCmd>
 800194a:	2801      	cmp	r0, #1
 800194c:	d90f      	bls.n	800196e <SD_disk_initialize+0x12e>
 800194e:	883b      	ldrh	r3, [r7, #0]
 8001950:	b29b      	uxth	r3, r3
 8001952:	2b00      	cmp	r3, #0
 8001954:	d1f2      	bne.n	800193c <SD_disk_initialize+0xfc>
 8001956:	883b      	ldrh	r3, [r7, #0]
 8001958:	b29b      	uxth	r3, r3
 800195a:	b133      	cbz	r3, 800196a <SD_disk_initialize+0x12a>
 800195c:	f44f 7100 	mov.w	r1, #512	; 0x200
 8001960:	2050      	movs	r0, #80	; 0x50
 8001962:	f7ff ff16 	bl	8001792 <SD_SendCmd>
 8001966:	2800      	cmp	r0, #0
 8001968:	d0c6      	beq.n	80018f8 <SD_disk_initialize+0xb8>
 800196a:	2400      	movs	r4, #0
 800196c:	e7c4      	b.n	80018f8 <SD_disk_initialize+0xb8>
 800196e:	2100      	movs	r1, #0
 8001970:	2069      	movs	r0, #105	; 0x69
 8001972:	f7ff ff0e 	bl	8001792 <SD_SendCmd>
 8001976:	2800      	cmp	r0, #0
 8001978:	d1e9      	bne.n	800194e <SD_disk_initialize+0x10e>
 800197a:	e7ec      	b.n	8001956 <SD_disk_initialize+0x116>
 800197c:	2041      	movs	r0, #65	; 0x41
 800197e:	e7f8      	b.n	8001972 <SD_disk_initialize+0x132>
 8001980:	4b05      	ldr	r3, [pc, #20]	; (8001998 <SD_disk_initialize+0x158>)
 8001982:	701c      	strb	r4, [r3, #0]
 8001984:	e766      	b.n	8001854 <SD_disk_initialize+0x14>
 8001986:	2001      	movs	r0, #1
 8001988:	e766      	b.n	8001858 <SD_disk_initialize+0x18>
 800198a:	bf00      	nop
 800198c:	20000000 	.word	0x20000000
 8001990:	200025f5 	.word	0x200025f5
 8001994:	20000284 	.word	0x20000284
 8001998:	20000285 	.word	0x20000285

0800199c <SD_disk_status>:
 800199c:	b918      	cbnz	r0, 80019a6 <SD_disk_status+0xa>
 800199e:	4b03      	ldr	r3, [pc, #12]	; (80019ac <SD_disk_status+0x10>)
 80019a0:	7818      	ldrb	r0, [r3, #0]
 80019a2:	b2c0      	uxtb	r0, r0
 80019a4:	4770      	bx	lr
 80019a6:	2001      	movs	r0, #1
 80019a8:	4770      	bx	lr
 80019aa:	bf00      	nop
 80019ac:	20000000 	.word	0x20000000

080019b0 <SD_disk_read>:
 80019b0:	b570      	push	{r4, r5, r6, lr}
 80019b2:	460e      	mov	r6, r1
 80019b4:	4615      	mov	r5, r2
 80019b6:	461c      	mov	r4, r3
 80019b8:	2800      	cmp	r0, #0
 80019ba:	d137      	bne.n	8001a2c <SD_disk_read+0x7c>
 80019bc:	2b00      	cmp	r3, #0
 80019be:	d035      	beq.n	8001a2c <SD_disk_read+0x7c>
 80019c0:	4b1c      	ldr	r3, [pc, #112]	; (8001a34 <SD_disk_read+0x84>)
 80019c2:	781b      	ldrb	r3, [r3, #0]
 80019c4:	07da      	lsls	r2, r3, #31
 80019c6:	d433      	bmi.n	8001a30 <SD_disk_read+0x80>
 80019c8:	4b1b      	ldr	r3, [pc, #108]	; (8001a38 <SD_disk_read+0x88>)
 80019ca:	781b      	ldrb	r3, [r3, #0]
 80019cc:	075b      	lsls	r3, r3, #29
 80019ce:	bf58      	it	pl
 80019d0:	026d      	lslpl	r5, r5, #9
 80019d2:	f7ff fe3f 	bl	8001654 <SELECT>
 80019d6:	2c01      	cmp	r4, #1
 80019d8:	4629      	mov	r1, r5
 80019da:	d113      	bne.n	8001a04 <SD_disk_read+0x54>
 80019dc:	2051      	movs	r0, #81	; 0x51
 80019de:	f7ff fed8 	bl	8001792 <SD_SendCmd>
 80019e2:	b938      	cbnz	r0, 80019f4 <SD_disk_read+0x44>
 80019e4:	f44f 7100 	mov.w	r1, #512	; 0x200
 80019e8:	4630      	mov	r0, r6
 80019ea:	f7ff ff05 	bl	80017f8 <SD_RxDataBlock>
 80019ee:	fab0 f480 	clz	r4, r0
 80019f2:	0964      	lsrs	r4, r4, #5
 80019f4:	f7ff fe3c 	bl	8001670 <DESELECT>
 80019f8:	f7ff fe48 	bl	800168c <SPI_RxByte>
 80019fc:	1e20      	subs	r0, r4, #0
 80019fe:	bf18      	it	ne
 8001a00:	2001      	movne	r0, #1
 8001a02:	bd70      	pop	{r4, r5, r6, pc}
 8001a04:	2052      	movs	r0, #82	; 0x52
 8001a06:	f7ff fec4 	bl	8001792 <SD_SendCmd>
 8001a0a:	2800      	cmp	r0, #0
 8001a0c:	d1f2      	bne.n	80019f4 <SD_disk_read+0x44>
 8001a0e:	f44f 7100 	mov.w	r1, #512	; 0x200
 8001a12:	4630      	mov	r0, r6
 8001a14:	f7ff fef0 	bl	80017f8 <SD_RxDataBlock>
 8001a18:	b118      	cbz	r0, 8001a22 <SD_disk_read+0x72>
 8001a1a:	3c01      	subs	r4, #1
 8001a1c:	f506 7600 	add.w	r6, r6, #512	; 0x200
 8001a20:	d1f5      	bne.n	8001a0e <SD_disk_read+0x5e>
 8001a22:	2100      	movs	r1, #0
 8001a24:	204c      	movs	r0, #76	; 0x4c
 8001a26:	f7ff feb4 	bl	8001792 <SD_SendCmd>
 8001a2a:	e7e3      	b.n	80019f4 <SD_disk_read+0x44>
 8001a2c:	2004      	movs	r0, #4
 8001a2e:	e7e8      	b.n	8001a02 <SD_disk_read+0x52>
 8001a30:	2003      	movs	r0, #3
 8001a32:	e7e6      	b.n	8001a02 <SD_disk_read+0x52>
 8001a34:	20000000 	.word	0x20000000
 8001a38:	20000284 	.word	0x20000284

08001a3c <SD_disk_write>:
 8001a3c:	b5f8      	push	{r3, r4, r5, r6, r7, lr}
 8001a3e:	460d      	mov	r5, r1
 8001a40:	4616      	mov	r6, r2
 8001a42:	461c      	mov	r4, r3
 8001a44:	2800      	cmp	r0, #0
 8001a46:	d147      	bne.n	8001ad8 <SD_disk_write+0x9c>
 8001a48:	2b00      	cmp	r3, #0
 8001a4a:	d045      	beq.n	8001ad8 <SD_disk_write+0x9c>
 8001a4c:	4b25      	ldr	r3, [pc, #148]	; (8001ae4 <SD_disk_write+0xa8>)
 8001a4e:	781a      	ldrb	r2, [r3, #0]
 8001a50:	07d0      	lsls	r0, r2, #31
 8001a52:	d443      	bmi.n	8001adc <SD_disk_write+0xa0>
 8001a54:	781b      	ldrb	r3, [r3, #0]
 8001a56:	0759      	lsls	r1, r3, #29
 8001a58:	d442      	bmi.n	8001ae0 <SD_disk_write+0xa4>
 8001a5a:	4f23      	ldr	r7, [pc, #140]	; (8001ae8 <SD_disk_write+0xac>)
 8001a5c:	783b      	ldrb	r3, [r7, #0]
 8001a5e:	075a      	lsls	r2, r3, #29
 8001a60:	bf58      	it	pl
 8001a62:	0276      	lslpl	r6, r6, #9
 8001a64:	f7ff fdf6 	bl	8001654 <SELECT>
 8001a68:	2c01      	cmp	r4, #1
 8001a6a:	d113      	bne.n	8001a94 <SD_disk_write+0x58>
 8001a6c:	4631      	mov	r1, r6
 8001a6e:	2058      	movs	r0, #88	; 0x58
 8001a70:	f7ff fe8f 	bl	8001792 <SD_SendCmd>
 8001a74:	bb70      	cbnz	r0, 8001ad4 <SD_disk_write+0x98>
 8001a76:	21fe      	movs	r1, #254	; 0xfe
 8001a78:	4628      	mov	r0, r5
 8001a7a:	f7ff fe5b 	bl	8001734 <SD_TxDataBlock>
 8001a7e:	fab0 f480 	clz	r4, r0
 8001a82:	0964      	lsrs	r4, r4, #5
 8001a84:	f7ff fdf4 	bl	8001670 <DESELECT>
 8001a88:	f7ff fe00 	bl	800168c <SPI_RxByte>
 8001a8c:	1e20      	subs	r0, r4, #0
 8001a8e:	bf18      	it	ne
 8001a90:	2001      	movne	r0, #1
 8001a92:	bdf8      	pop	{r3, r4, r5, r6, r7, pc}
 8001a94:	783b      	ldrb	r3, [r7, #0]
 8001a96:	079b      	lsls	r3, r3, #30
 8001a98:	d507      	bpl.n	8001aaa <SD_disk_write+0x6e>
 8001a9a:	2100      	movs	r1, #0
 8001a9c:	2077      	movs	r0, #119	; 0x77
 8001a9e:	f7ff fe78 	bl	8001792 <SD_SendCmd>
 8001aa2:	4621      	mov	r1, r4
 8001aa4:	2057      	movs	r0, #87	; 0x57
 8001aa6:	f7ff fe74 	bl	8001792 <SD_SendCmd>
 8001aaa:	4631      	mov	r1, r6
 8001aac:	2059      	movs	r0, #89	; 0x59
 8001aae:	f7ff fe70 	bl	8001792 <SD_SendCmd>
 8001ab2:	2800      	cmp	r0, #0
 8001ab4:	d1e6      	bne.n	8001a84 <SD_disk_write+0x48>
 8001ab6:	21fc      	movs	r1, #252	; 0xfc
 8001ab8:	4628      	mov	r0, r5
 8001aba:	f7ff fe3b 	bl	8001734 <SD_TxDataBlock>
 8001abe:	b118      	cbz	r0, 8001ac8 <SD_disk_write+0x8c>
 8001ac0:	3c01      	subs	r4, #1
 8001ac2:	f505 7500 	add.w	r5, r5, #512	; 0x200
 8001ac6:	d1f6      	bne.n	8001ab6 <SD_disk_write+0x7a>
 8001ac8:	21fd      	movs	r1, #253	; 0xfd
 8001aca:	2000      	movs	r0, #0
 8001acc:	f7ff fe32 	bl	8001734 <SD_TxDataBlock>
 8001ad0:	2800      	cmp	r0, #0
 8001ad2:	d1d7      	bne.n	8001a84 <SD_disk_write+0x48>
 8001ad4:	2401      	movs	r4, #1
 8001ad6:	e7d5      	b.n	8001a84 <SD_disk_write+0x48>
 8001ad8:	2004      	movs	r0, #4
 8001ada:	e7da      	b.n	8001a92 <SD_disk_write+0x56>
 8001adc:	2003      	movs	r0, #3
 8001ade:	e7d8      	b.n	8001a92 <SD_disk_write+0x56>
 8001ae0:	2002      	movs	r0, #2
 8001ae2:	e7d6      	b.n	8001a92 <SD_disk_write+0x56>
 8001ae4:	20000000 	.word	0x20000000
 8001ae8:	20000284 	.word	0x20000284

08001aec <SD_disk_ioctl>:
 8001aec:	b57f      	push	{r0, r1, r2, r3, r4, r5, r6, lr}
 8001aee:	460e      	mov	r6, r1
 8001af0:	4615      	mov	r5, r2
 8001af2:	4604      	mov	r4, r0
 8001af4:	2800      	cmp	r0, #0
 8001af6:	f040 8091 	bne.w	8001c1c <SD_disk_ioctl+0x130>
 8001afa:	2905      	cmp	r1, #5
 8001afc:	d113      	bne.n	8001b26 <SD_disk_ioctl+0x3a>
 8001afe:	7813      	ldrb	r3, [r2, #0]
 8001b00:	2b01      	cmp	r3, #1
 8001b02:	d009      	beq.n	8001b18 <SD_disk_ioctl+0x2c>
 8001b04:	2b02      	cmp	r3, #2
 8001b06:	d00a      	beq.n	8001b1e <SD_disk_ioctl+0x32>
 8001b08:	2b00      	cmp	r3, #0
 8001b0a:	f040 8087 	bne.w	8001c1c <SD_disk_ioctl+0x130>
 8001b0e:	4b45      	ldr	r3, [pc, #276]	; (8001c24 <SD_disk_ioctl+0x138>)
 8001b10:	7018      	strb	r0, [r3, #0]
 8001b12:	4620      	mov	r0, r4
 8001b14:	b004      	add	sp, #16
 8001b16:	bd70      	pop	{r4, r5, r6, pc}
 8001b18:	f7ff fdd2 	bl	80016c0 <SD_PowerOn>
 8001b1c:	e7f9      	b.n	8001b12 <SD_disk_ioctl+0x26>
 8001b1e:	4b41      	ldr	r3, [pc, #260]	; (8001c24 <SD_disk_ioctl+0x138>)
 8001b20:	781b      	ldrb	r3, [r3, #0]
 8001b22:	7053      	strb	r3, [r2, #1]
 8001b24:	e7f5      	b.n	8001b12 <SD_disk_ioctl+0x26>
 8001b26:	4b40      	ldr	r3, [pc, #256]	; (8001c28 <SD_disk_ioctl+0x13c>)
 8001b28:	781c      	ldrb	r4, [r3, #0]
 8001b2a:	f014 0401 	ands.w	r4, r4, #1
 8001b2e:	d177      	bne.n	8001c20 <SD_disk_ioctl+0x134>
 8001b30:	f7ff fd90 	bl	8001654 <SELECT>
 8001b34:	2e0d      	cmp	r6, #13
 8001b36:	d867      	bhi.n	8001c08 <SD_disk_ioctl+0x11c>
 8001b38:	e8df f006 	tbb	[pc, r6]
 8001b3c:	66450749 	.word	0x66450749
 8001b40:	66666666 	.word	0x66666666
 8001b44:	50666666 	.word	0x50666666
 8001b48:	615e      	.short	0x615e
 8001b4a:	2100      	movs	r1, #0
 8001b4c:	2049      	movs	r0, #73	; 0x49
 8001b4e:	f7ff fe20 	bl	8001792 <SD_SendCmd>
 8001b52:	4604      	mov	r4, r0
 8001b54:	b128      	cbz	r0, 8001b62 <SD_disk_ioctl+0x76>
 8001b56:	2401      	movs	r4, #1
 8001b58:	f7ff fd8a 	bl	8001670 <DESELECT>
 8001b5c:	f7ff fd96 	bl	800168c <SPI_RxByte>
 8001b60:	e7d7      	b.n	8001b12 <SD_disk_ioctl+0x26>
 8001b62:	2110      	movs	r1, #16
 8001b64:	4668      	mov	r0, sp
 8001b66:	f7ff fe47 	bl	80017f8 <SD_RxDataBlock>
 8001b6a:	2800      	cmp	r0, #0
 8001b6c:	d0f3      	beq.n	8001b56 <SD_disk_ioctl+0x6a>
 8001b6e:	f89d 1000 	ldrb.w	r1, [sp]
 8001b72:	f89d 3009 	ldrb.w	r3, [sp, #9]
 8001b76:	0989      	lsrs	r1, r1, #6
 8001b78:	2901      	cmp	r1, #1
 8001b7a:	f89d 2008 	ldrb.w	r2, [sp, #8]
 8001b7e:	d106      	bne.n	8001b8e <SD_disk_ioctl+0xa2>
 8001b80:	3301      	adds	r3, #1
 8001b82:	eb03 2302 	add.w	r3, r3, r2, lsl #8
 8001b86:	b29b      	uxth	r3, r3
 8001b88:	029b      	lsls	r3, r3, #10
 8001b8a:	602b      	str	r3, [r5, #0]
 8001b8c:	e7e4      	b.n	8001b58 <SD_disk_ioctl+0x6c>
 8001b8e:	f89d 1007 	ldrb.w	r1, [sp, #7]
 8001b92:	0992      	lsrs	r2, r2, #6
 8001b94:	eb02 0281 	add.w	r2, r2, r1, lsl #2
 8001b98:	f89d 1006 	ldrb.w	r1, [sp, #6]
 8001b9c:	3201      	adds	r2, #1
 8001b9e:	0289      	lsls	r1, r1, #10
 8001ba0:	f401 6140 	and.w	r1, r1, #3072	; 0xc00
 8001ba4:	440a      	add	r2, r1
 8001ba6:	f89d 1005 	ldrb.w	r1, [sp, #5]
 8001baa:	f89d 000a 	ldrb.w	r0, [sp, #10]
 8001bae:	f001 010f 	and.w	r1, r1, #15
 8001bb2:	005b      	lsls	r3, r3, #1
 8001bb4:	eb01 11d0 	add.w	r1, r1, r0, lsr #7
 8001bb8:	f003 0306 	and.w	r3, r3, #6
 8001bbc:	440b      	add	r3, r1
 8001bbe:	3b07      	subs	r3, #7
 8001bc0:	fa02 f303 	lsl.w	r3, r2, r3
 8001bc4:	e7e1      	b.n	8001b8a <SD_disk_ioctl+0x9e>
 8001bc6:	f44f 7300 	mov.w	r3, #512	; 0x200
 8001bca:	802b      	strh	r3, [r5, #0]
 8001bcc:	e7c4      	b.n	8001b58 <SD_disk_ioctl+0x6c>
 8001bce:	f7ff fda1 	bl	8001714 <SD_ReadyWait>
 8001bd2:	f1b0 04ff 	subs.w	r4, r0, #255	; 0xff
 8001bd6:	bf18      	it	ne
 8001bd8:	2401      	movne	r4, #1
 8001bda:	e7bd      	b.n	8001b58 <SD_disk_ioctl+0x6c>
 8001bdc:	2100      	movs	r1, #0
 8001bde:	2049      	movs	r0, #73	; 0x49
 8001be0:	f7ff fdd7 	bl	8001792 <SD_SendCmd>
 8001be4:	2800      	cmp	r0, #0
 8001be6:	d1b6      	bne.n	8001b56 <SD_disk_ioctl+0x6a>
 8001be8:	2110      	movs	r1, #16
 8001bea:	4628      	mov	r0, r5
 8001bec:	f7ff fe04 	bl	80017f8 <SD_RxDataBlock>
 8001bf0:	fab0 f480 	clz	r4, r0
 8001bf4:	0964      	lsrs	r4, r4, #5
 8001bf6:	e7af      	b.n	8001b58 <SD_disk_ioctl+0x6c>
 8001bf8:	2100      	movs	r1, #0
 8001bfa:	204a      	movs	r0, #74	; 0x4a
 8001bfc:	e7f0      	b.n	8001be0 <SD_disk_ioctl+0xf4>
 8001bfe:	2100      	movs	r1, #0
 8001c00:	207a      	movs	r0, #122	; 0x7a
 8001c02:	f7ff fdc6 	bl	8001792 <SD_SendCmd>
 8001c06:	b108      	cbz	r0, 8001c0c <SD_disk_ioctl+0x120>
 8001c08:	2404      	movs	r4, #4
 8001c0a:	e7a5      	b.n	8001b58 <SD_disk_ioctl+0x6c>
 8001c0c:	1d2c      	adds	r4, r5, #4
 8001c0e:	f7ff fd3d 	bl	800168c <SPI_RxByte>
 8001c12:	f805 0b01 	strb.w	r0, [r5], #1
 8001c16:	42ac      	cmp	r4, r5
 8001c18:	d1f9      	bne.n	8001c0e <SD_disk_ioctl+0x122>
 8001c1a:	e7f5      	b.n	8001c08 <SD_disk_ioctl+0x11c>
 8001c1c:	2404      	movs	r4, #4
 8001c1e:	e778      	b.n	8001b12 <SD_disk_ioctl+0x26>
 8001c20:	2403      	movs	r4, #3
 8001c22:	e776      	b.n	8001b12 <SD_disk_ioctl+0x26>
 8001c24:	20000285 	.word	0x20000285
 8001c28:	20000000 	.word	0x20000000

08001c2c <__io_putchar>:
 8001c2c:	b507      	push	{r0, r1, r2, lr}
 8001c2e:	f64f 73ff 	movw	r3, #65535	; 0xffff
 8001c32:	9001      	str	r0, [sp, #4]
 8001c34:	2201      	movs	r2, #1
 8001c36:	a901      	add	r1, sp, #4
 8001c38:	4803      	ldr	r0, [pc, #12]	; (8001c48 <__io_putchar+0x1c>)
 8001c3a:	f004 fc78 	bl	800652e <HAL_UART_Transmit>
 8001c3e:	9801      	ldr	r0, [sp, #4]
 8001c40:	b003      	add	sp, #12
 8001c42:	f85d fb04 	ldr.w	pc, [sp], #4
 8001c46:	bf00      	nop
 8001c48:	200024fc 	.word	0x200024fc

08001c4c <SystemClock_Config>:
 8001c4c:	b510      	push	{r4, lr}
 8001c4e:	b090      	sub	sp, #64	; 0x40
 8001c50:	2220      	movs	r2, #32
 8001c52:	2100      	movs	r1, #0
 8001c54:	a807      	add	r0, sp, #28
 8001c56:	f006 ff76 	bl	8008b46 <memset>
 8001c5a:	2214      	movs	r2, #20
 8001c5c:	2100      	movs	r1, #0
 8001c5e:	a801      	add	r0, sp, #4
 8001c60:	f006 ff71 	bl	8008b46 <memset>
 8001c64:	2310      	movs	r3, #16
 8001c66:	2201      	movs	r2, #1
 8001c68:	2402      	movs	r4, #2
 8001c6a:	e9cd 230a 	strd	r2, r3, [sp, #40]	; 0x28
 8001c6e:	f44f 1360 	mov.w	r3, #3670016	; 0x380000
 8001c72:	a806      	add	r0, sp, #24
 8001c74:	9406      	str	r4, [sp, #24]
 8001c76:	940d      	str	r4, [sp, #52]	; 0x34
 8001c78:	930f      	str	r3, [sp, #60]	; 0x3c
 8001c7a:	f003 faa1 	bl	80051c0 <HAL_RCC_OscConfig>
 8001c7e:	b108      	cbz	r0, 8001c84 <SystemClock_Config+0x38>
 8001c80:	b672      	cpsid	i
 8001c82:	e7fe      	b.n	8001c82 <SystemClock_Config+0x36>
 8001c84:	230f      	movs	r3, #15
 8001c86:	e9cd 3401 	strd	r3, r4, [sp, #4]
 8001c8a:	f44f 6380 	mov.w	r3, #1024	; 0x400
 8001c8e:	9003      	str	r0, [sp, #12]
 8001c90:	e9cd 3004 	strd	r3, r0, [sp, #16]
 8001c94:	4621      	mov	r1, r4
 8001c96:	a801      	add	r0, sp, #4
 8001c98:	f003 fc54 	bl	8005544 <HAL_RCC_ClockConfig>
 8001c9c:	b108      	cbz	r0, 8001ca2 <SystemClock_Config+0x56>
 8001c9e:	b672      	cpsid	i
 8001ca0:	e7fe      	b.n	8001ca0 <SystemClock_Config+0x54>
 8001ca2:	b010      	add	sp, #64	; 0x40
 8001ca4:	bd10      	pop	{r4, pc}
	...

08001ca8 <HAL_TIM_PeriodElapsedCallback>:
 8001ca8:	6802      	ldr	r2, [r0, #0]
 8001caa:	4b07      	ldr	r3, [pc, #28]	; (8001cc8 <HAL_TIM_PeriodElapsedCallback+0x20>)
 8001cac:	429a      	cmp	r2, r3
 8001cae:	d109      	bne.n	8001cc4 <HAL_TIM_PeriodElapsedCallback+0x1c>
 8001cb0:	4b06      	ldr	r3, [pc, #24]	; (8001ccc <HAL_TIM_PeriodElapsedCallback+0x24>)
 8001cb2:	681a      	ldr	r2, [r3, #0]
 8001cb4:	2a04      	cmp	r2, #4
 8001cb6:	f102 0101 	add.w	r1, r2, #1
 8001cba:	d001      	beq.n	8001cc0 <HAL_TIM_PeriodElapsedCallback+0x18>
 8001cbc:	6019      	str	r1, [r3, #0]
 8001cbe:	4770      	bx	lr
 8001cc0:	2200      	movs	r2, #0
 8001cc2:	601a      	str	r2, [r3, #0]
 8001cc4:	4770      	bx	lr
 8001cc6:	bf00      	nop
 8001cc8:	40000400 	.word	0x40000400
 8001ccc:	20002580 	.word	0x20002580

08001cd0 <SysTick_Init>:
 8001cd0:	f04f 23e0 	mov.w	r3, #3758153728	; 0xe000e000
 8001cd4:	f06f 427f 	mvn.w	r2, #4278190080	; 0xff000000
 8001cd8:	615a      	str	r2, [r3, #20]
 8001cda:	2200      	movs	r2, #0
 8001cdc:	619a      	str	r2, [r3, #24]
 8001cde:	2205      	movs	r2, #5
 8001ce0:	611a      	str	r2, [r3, #16]
 8001ce2:	4770      	bx	lr
 8001ce4:	0000      	movs	r0, r0
	...

08001ce8 <updateQuaternion>:
 8001ce8:	e92d 4ff0 	stmdb	sp!, {r4, r5, r6, r7, r8, r9, sl, fp, lr}
 8001cec:	b08d      	sub	sp, #52	; 0x34
 8001cee:	4698      	mov	r8, r3
 8001cf0:	9b16      	ldr	r3, [sp, #88]	; 0x58
 8001cf2:	9205      	str	r2, [sp, #20]
 8001cf4:	930a      	str	r3, [sp, #40]	; 0x28
 8001cf6:	4ba8      	ldr	r3, [pc, #672]	; (8001f98 <updateQuaternion+0x2b0>)
 8001cf8:	9003      	str	r0, [sp, #12]
 8001cfa:	681a      	ldr	r2, [r3, #0]
 8001cfc:	9104      	str	r1, [sp, #16]
 8001cfe:	4610      	mov	r0, r2
 8001d00:	f04f 517c 	mov.w	r1, #1056964608	; 0x3f000000
 8001d04:	9202      	str	r2, [sp, #8]
 8001d06:	f7ff f83d 	bl	8000d84 <__aeabi_fmul>
 8001d0a:	4aa4      	ldr	r2, [pc, #656]	; (8001f9c <updateQuaternion+0x2b4>)
 8001d0c:	9006      	str	r0, [sp, #24]
 8001d0e:	f8d2 a000 	ldr.w	sl, [r2]
 8001d12:	f04f 517c 	mov.w	r1, #1056964608	; 0x3f000000
 8001d16:	4650      	mov	r0, sl
 8001d18:	f7ff f834 	bl	8000d84 <__aeabi_fmul>
 8001d1c:	49a0      	ldr	r1, [pc, #640]	; (8001fa0 <updateQuaternion+0x2b8>)
 8001d1e:	9007      	str	r0, [sp, #28]
 8001d20:	6808      	ldr	r0, [r1, #0]
 8001d22:	f04f 517c 	mov.w	r1, #1056964608	; 0x3f000000
 8001d26:	9000      	str	r0, [sp, #0]
 8001d28:	f7ff f82c 	bl	8000d84 <__aeabi_fmul>
 8001d2c:	9008      	str	r0, [sp, #32]
 8001d2e:	489d      	ldr	r0, [pc, #628]	; (8001fa4 <updateQuaternion+0x2bc>)
 8001d30:	f04f 517c 	mov.w	r1, #1056964608	; 0x3f000000
 8001d34:	6804      	ldr	r4, [r0, #0]
 8001d36:	f8dd b05c 	ldr.w	fp, [sp, #92]	; 0x5c
 8001d3a:	4620      	mov	r0, r4
 8001d3c:	9401      	str	r4, [sp, #4]
 8001d3e:	f7ff f821 	bl	8000d84 <__aeabi_fmul>
 8001d42:	9902      	ldr	r1, [sp, #8]
 8001d44:	9009      	str	r0, [sp, #36]	; 0x24
 8001d46:	4608      	mov	r0, r1
 8001d48:	f7fe ff14 	bl	8000b74 <__addsf3>
 8001d4c:	4651      	mov	r1, sl
 8001d4e:	4606      	mov	r6, r0
 8001d50:	4650      	mov	r0, sl
 8001d52:	f7fe ff0f 	bl	8000b74 <__addsf3>
 8001d56:	9900      	ldr	r1, [sp, #0]
 8001d58:	4605      	mov	r5, r0
 8001d5a:	4608      	mov	r0, r1
 8001d5c:	f7fe ff0a 	bl	8000b74 <__addsf3>
 8001d60:	4641      	mov	r1, r8
 8001d62:	4604      	mov	r4, r0
 8001d64:	4640      	mov	r0, r8
 8001d66:	f7ff f80d 	bl	8000d84 <__aeabi_fmul>
 8001d6a:	9b0a      	ldr	r3, [sp, #40]	; 0x28
 8001d6c:	4607      	mov	r7, r0
 8001d6e:	4619      	mov	r1, r3
 8001d70:	4618      	mov	r0, r3
 8001d72:	f7ff f807 	bl	8000d84 <__aeabi_fmul>
 8001d76:	4601      	mov	r1, r0
 8001d78:	4638      	mov	r0, r7
 8001d7a:	f7fe fefb 	bl	8000b74 <__addsf3>
 8001d7e:	4659      	mov	r1, fp
 8001d80:	4607      	mov	r7, r0
 8001d82:	4658      	mov	r0, fp
 8001d84:	f7fe fffe 	bl	8000d84 <__aeabi_fmul>
 8001d88:	4601      	mov	r1, r0
 8001d8a:	4638      	mov	r0, r7
 8001d8c:	f7fe fef2 	bl	8000b74 <__addsf3>
 8001d90:	f7fe fb4a 	bl	8000428 <__aeabi_f2d>
 8001d94:	f009 f852 	bl	800ae3c <sqrt>
 8001d98:	f7fe fe96 	bl	8000ac8 <__aeabi_d2f>
 8001d9c:	4629      	mov	r1, r5
 8001d9e:	4607      	mov	r7, r0
 8001da0:	9801      	ldr	r0, [sp, #4]
 8001da2:	f7fe ffef 	bl	8000d84 <__aeabi_fmul>
 8001da6:	4631      	mov	r1, r6
 8001da8:	4681      	mov	r9, r0
 8001daa:	9800      	ldr	r0, [sp, #0]
 8001dac:	f7fe ffea 	bl	8000d84 <__aeabi_fmul>
 8001db0:	4601      	mov	r1, r0
 8001db2:	4648      	mov	r0, r9
 8001db4:	f7fe fedc 	bl	8000b70 <__aeabi_fsub>
 8001db8:	4639      	mov	r1, r7
 8001dba:	4681      	mov	r9, r0
 8001dbc:	4640      	mov	r0, r8
 8001dbe:	f7ff f895 	bl	8000eec <__aeabi_fdiv>
 8001dc2:	4601      	mov	r1, r0
 8001dc4:	4648      	mov	r0, r9
 8001dc6:	f7fe fed3 	bl	8000b70 <__aeabi_fsub>
 8001dca:	4631      	mov	r1, r6
 8001dcc:	4681      	mov	r9, r0
 8001dce:	4650      	mov	r0, sl
 8001dd0:	f7fe ffd8 	bl	8000d84 <__aeabi_fmul>
 8001dd4:	4621      	mov	r1, r4
 8001dd6:	4680      	mov	r8, r0
 8001dd8:	9801      	ldr	r0, [sp, #4]
 8001dda:	f7fe ffd3 	bl	8000d84 <__aeabi_fmul>
 8001dde:	4601      	mov	r1, r0
 8001de0:	4640      	mov	r0, r8
 8001de2:	f7fe fec7 	bl	8000b74 <__addsf3>
 8001de6:	9b0a      	ldr	r3, [sp, #40]	; 0x28
 8001de8:	4680      	mov	r8, r0
 8001dea:	4639      	mov	r1, r7
 8001dec:	4618      	mov	r0, r3
 8001dee:	f7ff f87d 	bl	8000eec <__aeabi_fdiv>
 8001df2:	4601      	mov	r1, r0
 8001df4:	4640      	mov	r0, r8
 8001df6:	f7fe febb 	bl	8000b70 <__aeabi_fsub>
 8001dfa:	4629      	mov	r1, r5
 8001dfc:	4680      	mov	r8, r0
 8001dfe:	4650      	mov	r0, sl
 8001e00:	f7fe ffc0 	bl	8000d84 <__aeabi_fmul>
 8001e04:	4601      	mov	r1, r0
 8001e06:	f04f 507e 	mov.w	r0, #1065353216	; 0x3f800000
 8001e0a:	f7fe feb1 	bl	8000b70 <__aeabi_fsub>
 8001e0e:	4621      	mov	r1, r4
 8001e10:	900a      	str	r0, [sp, #40]	; 0x28
 8001e12:	9800      	ldr	r0, [sp, #0]
 8001e14:	f7fe ffb6 	bl	8000d84 <__aeabi_fmul>
 8001e18:	9b0a      	ldr	r3, [sp, #40]	; 0x28
 8001e1a:	4601      	mov	r1, r0
 8001e1c:	4618      	mov	r0, r3
 8001e1e:	f7fe fea7 	bl	8000b70 <__aeabi_fsub>
 8001e22:	4639      	mov	r1, r7
 8001e24:	900a      	str	r0, [sp, #40]	; 0x28
 8001e26:	4658      	mov	r0, fp
 8001e28:	f7ff f860 	bl	8000eec <__aeabi_fdiv>
 8001e2c:	9b0a      	ldr	r3, [sp, #40]	; 0x28
 8001e2e:	4601      	mov	r1, r0
 8001e30:	4618      	mov	r0, r3
 8001e32:	f7fe fe9d 	bl	8000b70 <__aeabi_fsub>
 8001e36:	9901      	ldr	r1, [sp, #4]
 8001e38:	4683      	mov	fp, r0
 8001e3a:	4608      	mov	r0, r1
 8001e3c:	f7fe fe9a 	bl	8000b74 <__addsf3>
 8001e40:	4641      	mov	r1, r8
 8001e42:	900a      	str	r0, [sp, #40]	; 0x28
 8001e44:	4628      	mov	r0, r5
 8001e46:	f7fe ff9d 	bl	8000d84 <__aeabi_fmul>
 8001e4a:	4649      	mov	r1, r9
 8001e4c:	4607      	mov	r7, r0
 8001e4e:	4620      	mov	r0, r4
 8001e50:	f7fe ff98 	bl	8000d84 <__aeabi_fmul>
 8001e54:	4601      	mov	r1, r0
 8001e56:	4638      	mov	r0, r7
 8001e58:	f7fe fe8a 	bl	8000b70 <__aeabi_fsub>
 8001e5c:	9a0a      	ldr	r2, [sp, #40]	; 0x28
 8001e5e:	900b      	str	r0, [sp, #44]	; 0x2c
 8001e60:	4611      	mov	r1, r2
 8001e62:	4648      	mov	r0, r9
 8001e64:	f7fe ff8e 	bl	8000d84 <__aeabi_fmul>
 8001e68:	4641      	mov	r1, r8
 8001e6a:	4607      	mov	r7, r0
 8001e6c:	4630      	mov	r0, r6
 8001e6e:	f7fe ff89 	bl	8000d84 <__aeabi_fmul>
 8001e72:	4601      	mov	r1, r0
 8001e74:	4638      	mov	r0, r7
 8001e76:	f7fe fe7d 	bl	8000b74 <__addsf3>
 8001e7a:	4629      	mov	r1, r5
 8001e7c:	4607      	mov	r7, r0
 8001e7e:	4628      	mov	r0, r5
 8001e80:	f7fe fe78 	bl	8000b74 <__addsf3>
 8001e84:	4659      	mov	r1, fp
 8001e86:	f7fe ff7d 	bl	8000d84 <__aeabi_fmul>
 8001e8a:	4601      	mov	r1, r0
 8001e8c:	4638      	mov	r0, r7
 8001e8e:	f7fe fe6f 	bl	8000b70 <__aeabi_fsub>
 8001e92:	9a0a      	ldr	r2, [sp, #40]	; 0x28
 8001e94:	4607      	mov	r7, r0
 8001e96:	4611      	mov	r1, r2
 8001e98:	4640      	mov	r0, r8
 8001e9a:	f7fe ff73 	bl	8000d84 <__aeabi_fmul>
 8001e9e:	4621      	mov	r1, r4
 8001ea0:	900a      	str	r0, [sp, #40]	; 0x28
 8001ea2:	4620      	mov	r0, r4
 8001ea4:	f7fe fe66 	bl	8000b74 <__addsf3>
 8001ea8:	4659      	mov	r1, fp
 8001eaa:	f7fe ff6b 	bl	8000d84 <__aeabi_fmul>
 8001eae:	9a0a      	ldr	r2, [sp, #40]	; 0x28
 8001eb0:	4601      	mov	r1, r0
 8001eb2:	4610      	mov	r0, r2
 8001eb4:	f7fe fe5c 	bl	8000b70 <__aeabi_fsub>
 8001eb8:	4649      	mov	r1, r9
 8001eba:	4683      	mov	fp, r0
 8001ebc:	4630      	mov	r0, r6
 8001ebe:	f7fe ff61 	bl	8000d84 <__aeabi_fmul>
 8001ec2:	4601      	mov	r1, r0
 8001ec4:	4658      	mov	r0, fp
 8001ec6:	f7fe fe53 	bl	8000b70 <__aeabi_fsub>
 8001eca:	4649      	mov	r1, r9
 8001ecc:	4606      	mov	r6, r0
 8001ece:	4628      	mov	r0, r5
 8001ed0:	f7fe ff58 	bl	8000d84 <__aeabi_fmul>
 8001ed4:	4641      	mov	r1, r8
 8001ed6:	4605      	mov	r5, r0
 8001ed8:	4620      	mov	r0, r4
 8001eda:	f7fe ff53 	bl	8000d84 <__aeabi_fmul>
 8001ede:	4601      	mov	r1, r0
 8001ee0:	4628      	mov	r0, r5
 8001ee2:	f7fe fe47 	bl	8000b74 <__addsf3>
 8001ee6:	9b0b      	ldr	r3, [sp, #44]	; 0x2c
 8001ee8:	4683      	mov	fp, r0
 8001eea:	4619      	mov	r1, r3
 8001eec:	4618      	mov	r0, r3
 8001eee:	930a      	str	r3, [sp, #40]	; 0x28
 8001ef0:	f7fe ff48 	bl	8000d84 <__aeabi_fmul>
 8001ef4:	4639      	mov	r1, r7
 8001ef6:	4604      	mov	r4, r0
 8001ef8:	4638      	mov	r0, r7
 8001efa:	f7fe ff43 	bl	8000d84 <__aeabi_fmul>
 8001efe:	4601      	mov	r1, r0
 8001f00:	4620      	mov	r0, r4
 8001f02:	f7fe fe37 	bl	8000b74 <__addsf3>
 8001f06:	4631      	mov	r1, r6
 8001f08:	4604      	mov	r4, r0
 8001f0a:	4630      	mov	r0, r6
 8001f0c:	f7fe ff3a 	bl	8000d84 <__aeabi_fmul>
 8001f10:	4601      	mov	r1, r0
 8001f12:	4620      	mov	r0, r4
 8001f14:	f7fe fe2e 	bl	8000b74 <__addsf3>
 8001f18:	4659      	mov	r1, fp
 8001f1a:	4604      	mov	r4, r0
 8001f1c:	4658      	mov	r0, fp
 8001f1e:	f7fe ff31 	bl	8000d84 <__aeabi_fmul>
 8001f22:	4601      	mov	r1, r0
 8001f24:	4620      	mov	r0, r4
 8001f26:	f7fe fe25 	bl	8000b74 <__addsf3>
 8001f2a:	f7fe fa7d 	bl	8000428 <__aeabi_f2d>
 8001f2e:	f008 ff85 	bl	800ae3c <sqrt>
 8001f32:	f7fe fdc9 	bl	8000ac8 <__aeabi_d2f>
 8001f36:	9d07      	ldr	r5, [sp, #28]
 8001f38:	4604      	mov	r4, r0
 8001f3a:	9903      	ldr	r1, [sp, #12]
 8001f3c:	f105 4000 	add.w	r0, r5, #2147483648	; 0x80000000
 8001f40:	f7fe ff20 	bl	8000d84 <__aeabi_fmul>
 8001f44:	9904      	ldr	r1, [sp, #16]
 8001f46:	4605      	mov	r5, r0
 8001f48:	9808      	ldr	r0, [sp, #32]
 8001f4a:	f7fe ff1b 	bl	8000d84 <__aeabi_fmul>
 8001f4e:	4601      	mov	r1, r0
 8001f50:	4628      	mov	r0, r5
 8001f52:	f7fe fe0d 	bl	8000b70 <__aeabi_fsub>
 8001f56:	9905      	ldr	r1, [sp, #20]
 8001f58:	4605      	mov	r5, r0
 8001f5a:	9809      	ldr	r0, [sp, #36]	; 0x24
 8001f5c:	f7fe ff12 	bl	8000d84 <__aeabi_fmul>
 8001f60:	4601      	mov	r1, r0
 8001f62:	4628      	mov	r0, r5
 8001f64:	f7fe fe04 	bl	8000b70 <__aeabi_fsub>
 8001f68:	f7fe fa5e 	bl	8000428 <__aeabi_f2d>
 8001f6c:	9b0a      	ldr	r3, [sp, #40]	; 0x28
 8001f6e:	4680      	mov	r8, r0
 8001f70:	4689      	mov	r9, r1
 8001f72:	4618      	mov	r0, r3
 8001f74:	4621      	mov	r1, r4
 8001f76:	f7fe ffb9 	bl	8000eec <__aeabi_fdiv>
 8001f7a:	f7fe fa55 	bl	8000428 <__aeabi_f2d>
 8001f7e:	a304      	add	r3, pc, #16	; (adr r3, 8001f90 <updateQuaternion+0x2a8>)
 8001f80:	e9d3 2300 	ldrd	r2, r3, [r3]
 8001f84:	f7fe faa8 	bl	80004d8 <__aeabi_dmul>
 8001f88:	4602      	mov	r2, r0
 8001f8a:	460b      	mov	r3, r1
 8001f8c:	e00c      	b.n	8001fa8 <updateQuaternion+0x2c0>
 8001f8e:	bf00      	nop
 8001f90:	eb18116f 	.word	0xeb18116f
 8001f94:	3f7c981b 	.word	0x3f7c981b
 8001f98:	20000004 	.word	0x20000004
 8001f9c:	20000288 	.word	0x20000288
 8001fa0:	2000028c 	.word	0x2000028c
 8001fa4:	20000290 	.word	0x20000290
 8001fa8:	4640      	mov	r0, r8
 8001faa:	4649      	mov	r1, r9
 8001fac:	f7fe f8dc 	bl	8000168 <__aeabi_dsub>
 8001fb0:	a387      	add	r3, pc, #540	; (adr r3, 80021d0 <updateQuaternion+0x4e8>)
 8001fb2:	e9d3 2300 	ldrd	r2, r3, [r3]
 8001fb6:	f7fe fa8f 	bl	80004d8 <__aeabi_dmul>
 8001fba:	4680      	mov	r8, r0
 8001fbc:	9802      	ldr	r0, [sp, #8]
 8001fbe:	4689      	mov	r9, r1
 8001fc0:	f7fe fa32 	bl	8000428 <__aeabi_f2d>
 8001fc4:	4602      	mov	r2, r0
 8001fc6:	460b      	mov	r3, r1
 8001fc8:	4640      	mov	r0, r8
 8001fca:	4649      	mov	r1, r9
 8001fcc:	f7fe f8ce 	bl	800016c <__adddf3>
 8001fd0:	f7fe fd7a 	bl	8000ac8 <__aeabi_d2f>
 8001fd4:	9903      	ldr	r1, [sp, #12]
 8001fd6:	4605      	mov	r5, r0
 8001fd8:	9806      	ldr	r0, [sp, #24]
 8001fda:	f7fe fed3 	bl	8000d84 <__aeabi_fmul>
 8001fde:	9905      	ldr	r1, [sp, #20]
 8001fe0:	4680      	mov	r8, r0
 8001fe2:	9808      	ldr	r0, [sp, #32]
 8001fe4:	f7fe fece 	bl	8000d84 <__aeabi_fmul>
 8001fe8:	4601      	mov	r1, r0
 8001fea:	4640      	mov	r0, r8
 8001fec:	f7fe fdc2 	bl	8000b74 <__addsf3>
 8001ff0:	9904      	ldr	r1, [sp, #16]
 8001ff2:	4680      	mov	r8, r0
 8001ff4:	9809      	ldr	r0, [sp, #36]	; 0x24
 8001ff6:	f7fe fec5 	bl	8000d84 <__aeabi_fmul>
 8001ffa:	4601      	mov	r1, r0
 8001ffc:	4640      	mov	r0, r8
 8001ffe:	f7fe fdb7 	bl	8000b70 <__aeabi_fsub>
 8002002:	f7fe fa11 	bl	8000428 <__aeabi_f2d>
 8002006:	4680      	mov	r8, r0
 8002008:	4689      	mov	r9, r1
 800200a:	4638      	mov	r0, r7
 800200c:	4621      	mov	r1, r4
 800200e:	f7fe ff6d 	bl	8000eec <__aeabi_fdiv>
 8002012:	f7fe fa09 	bl	8000428 <__aeabi_f2d>
 8002016:	a370      	add	r3, pc, #448	; (adr r3, 80021d8 <updateQuaternion+0x4f0>)
 8002018:	e9d3 2300 	ldrd	r2, r3, [r3]
 800201c:	f7fe fa5c 	bl	80004d8 <__aeabi_dmul>
 8002020:	4602      	mov	r2, r0
 8002022:	460b      	mov	r3, r1
 8002024:	4640      	mov	r0, r8
 8002026:	4649      	mov	r1, r9
 8002028:	f7fe f89e 	bl	8000168 <__aeabi_dsub>
 800202c:	a368      	add	r3, pc, #416	; (adr r3, 80021d0 <updateQuaternion+0x4e8>)
 800202e:	e9d3 2300 	ldrd	r2, r3, [r3]
 8002032:	f7fe fa51 	bl	80004d8 <__aeabi_dmul>
 8002036:	4680      	mov	r8, r0
 8002038:	4650      	mov	r0, sl
 800203a:	4689      	mov	r9, r1
 800203c:	f7fe f9f4 	bl	8000428 <__aeabi_f2d>
 8002040:	4602      	mov	r2, r0
 8002042:	460b      	mov	r3, r1
 8002044:	4640      	mov	r0, r8
 8002046:	4649      	mov	r1, r9
 8002048:	f7fe f890 	bl	800016c <__adddf3>
 800204c:	f7fe fd3c 	bl	8000ac8 <__aeabi_d2f>
 8002050:	9904      	ldr	r1, [sp, #16]
 8002052:	4607      	mov	r7, r0
 8002054:	9806      	ldr	r0, [sp, #24]
 8002056:	f7fe fe95 	bl	8000d84 <__aeabi_fmul>
 800205a:	9905      	ldr	r1, [sp, #20]
 800205c:	4680      	mov	r8, r0
 800205e:	9807      	ldr	r0, [sp, #28]
 8002060:	f7fe fe90 	bl	8000d84 <__aeabi_fmul>
 8002064:	4601      	mov	r1, r0
 8002066:	4640      	mov	r0, r8
 8002068:	f7fe fd82 	bl	8000b70 <__aeabi_fsub>
 800206c:	9903      	ldr	r1, [sp, #12]
 800206e:	4680      	mov	r8, r0
 8002070:	9809      	ldr	r0, [sp, #36]	; 0x24
 8002072:	f7fe fe87 	bl	8000d84 <__aeabi_fmul>
 8002076:	4601      	mov	r1, r0
 8002078:	4640      	mov	r0, r8
 800207a:	f7fe fd7b 	bl	8000b74 <__addsf3>
 800207e:	f7fe f9d3 	bl	8000428 <__aeabi_f2d>
 8002082:	4680      	mov	r8, r0
 8002084:	4689      	mov	r9, r1
 8002086:	4630      	mov	r0, r6
 8002088:	4621      	mov	r1, r4
 800208a:	f7fe ff2f 	bl	8000eec <__aeabi_fdiv>
 800208e:	f7fe f9cb 	bl	8000428 <__aeabi_f2d>
 8002092:	a351      	add	r3, pc, #324	; (adr r3, 80021d8 <updateQuaternion+0x4f0>)
 8002094:	e9d3 2300 	ldrd	r2, r3, [r3]
 8002098:	f7fe fa1e 	bl	80004d8 <__aeabi_dmul>
 800209c:	4602      	mov	r2, r0
 800209e:	460b      	mov	r3, r1
 80020a0:	4640      	mov	r0, r8
 80020a2:	4649      	mov	r1, r9
 80020a4:	f7fe f860 	bl	8000168 <__aeabi_dsub>
 80020a8:	a349      	add	r3, pc, #292	; (adr r3, 80021d0 <updateQuaternion+0x4e8>)
 80020aa:	e9d3 2300 	ldrd	r2, r3, [r3]
 80020ae:	f7fe fa13 	bl	80004d8 <__aeabi_dmul>
 80020b2:	4680      	mov	r8, r0
 80020b4:	9800      	ldr	r0, [sp, #0]
 80020b6:	4689      	mov	r9, r1
 80020b8:	f7fe f9b6 	bl	8000428 <__aeabi_f2d>
 80020bc:	4602      	mov	r2, r0
 80020be:	460b      	mov	r3, r1
 80020c0:	4640      	mov	r0, r8
 80020c2:	4649      	mov	r1, r9
 80020c4:	f7fe f852 	bl	800016c <__adddf3>
 80020c8:	f7fe fcfe 	bl	8000ac8 <__aeabi_d2f>
 80020cc:	9905      	ldr	r1, [sp, #20]
 80020ce:	4606      	mov	r6, r0
 80020d0:	9806      	ldr	r0, [sp, #24]
 80020d2:	f7fe fe57 	bl	8000d84 <__aeabi_fmul>
 80020d6:	9904      	ldr	r1, [sp, #16]
 80020d8:	4680      	mov	r8, r0
 80020da:	9807      	ldr	r0, [sp, #28]
 80020dc:	f7fe fe52 	bl	8000d84 <__aeabi_fmul>
 80020e0:	4601      	mov	r1, r0
 80020e2:	4640      	mov	r0, r8
 80020e4:	f7fe fd46 	bl	8000b74 <__addsf3>
 80020e8:	9903      	ldr	r1, [sp, #12]
 80020ea:	4680      	mov	r8, r0
 80020ec:	9808      	ldr	r0, [sp, #32]
 80020ee:	f7fe fe49 	bl	8000d84 <__aeabi_fmul>
 80020f2:	4601      	mov	r1, r0
 80020f4:	4640      	mov	r0, r8
 80020f6:	f7fe fd3b 	bl	8000b70 <__aeabi_fsub>
 80020fa:	f7fe f995 	bl	8000428 <__aeabi_f2d>
 80020fe:	4680      	mov	r8, r0
 8002100:	4689      	mov	r9, r1
 8002102:	4658      	mov	r0, fp
 8002104:	4621      	mov	r1, r4
 8002106:	f7fe fef1 	bl	8000eec <__aeabi_fdiv>
 800210a:	f7fe f98d 	bl	8000428 <__aeabi_f2d>
 800210e:	a332      	add	r3, pc, #200	; (adr r3, 80021d8 <updateQuaternion+0x4f0>)
 8002110:	e9d3 2300 	ldrd	r2, r3, [r3]
 8002114:	f7fe f9e0 	bl	80004d8 <__aeabi_dmul>
 8002118:	4602      	mov	r2, r0
 800211a:	460b      	mov	r3, r1
 800211c:	4640      	mov	r0, r8
 800211e:	4649      	mov	r1, r9
 8002120:	f7fe f822 	bl	8000168 <__aeabi_dsub>
 8002124:	a32a      	add	r3, pc, #168	; (adr r3, 80021d0 <updateQuaternion+0x4e8>)
 8002126:	e9d3 2300 	ldrd	r2, r3, [r3]
 800212a:	f7fe f9d5 	bl	80004d8 <__aeabi_dmul>
 800212e:	4680      	mov	r8, r0
 8002130:	9801      	ldr	r0, [sp, #4]
 8002132:	4689      	mov	r9, r1
 8002134:	f7fe f978 	bl	8000428 <__aeabi_f2d>
 8002138:	4602      	mov	r2, r0
 800213a:	460b      	mov	r3, r1
 800213c:	4640      	mov	r0, r8
 800213e:	4649      	mov	r1, r9
 8002140:	f7fe f814 	bl	800016c <__adddf3>
 8002144:	f7fe fcc0 	bl	8000ac8 <__aeabi_d2f>
 8002148:	4629      	mov	r1, r5
 800214a:	4680      	mov	r8, r0
 800214c:	4628      	mov	r0, r5
 800214e:	f7fe fe19 	bl	8000d84 <__aeabi_fmul>
 8002152:	4639      	mov	r1, r7
 8002154:	4604      	mov	r4, r0
 8002156:	4638      	mov	r0, r7
 8002158:	f7fe fe14 	bl	8000d84 <__aeabi_fmul>
 800215c:	4601      	mov	r1, r0
 800215e:	4620      	mov	r0, r4
 8002160:	f7fe fd08 	bl	8000b74 <__addsf3>
 8002164:	4631      	mov	r1, r6
 8002166:	4604      	mov	r4, r0
 8002168:	4630      	mov	r0, r6
 800216a:	f7fe fe0b 	bl	8000d84 <__aeabi_fmul>
 800216e:	4601      	mov	r1, r0
 8002170:	4620      	mov	r0, r4
 8002172:	f7fe fcff 	bl	8000b74 <__addsf3>
 8002176:	4641      	mov	r1, r8
 8002178:	4604      	mov	r4, r0
 800217a:	4640      	mov	r0, r8
 800217c:	f7fe fe02 	bl	8000d84 <__aeabi_fmul>
 8002180:	4601      	mov	r1, r0
 8002182:	4620      	mov	r0, r4
 8002184:	f7fe fcf6 	bl	8000b74 <__addsf3>
 8002188:	f7fe f94e 	bl	8000428 <__aeabi_f2d>
 800218c:	f008 fe56 	bl	800ae3c <sqrt>
 8002190:	f7fe fc9a 	bl	8000ac8 <__aeabi_d2f>
 8002194:	4604      	mov	r4, r0
 8002196:	4601      	mov	r1, r0
 8002198:	4628      	mov	r0, r5
 800219a:	f7fe fea7 	bl	8000eec <__aeabi_fdiv>
 800219e:	4b10      	ldr	r3, [pc, #64]	; (80021e0 <updateQuaternion+0x4f8>)
 80021a0:	4621      	mov	r1, r4
 80021a2:	6018      	str	r0, [r3, #0]
 80021a4:	4638      	mov	r0, r7
 80021a6:	f7fe fea1 	bl	8000eec <__aeabi_fdiv>
 80021aa:	4a0e      	ldr	r2, [pc, #56]	; (80021e4 <updateQuaternion+0x4fc>)
 80021ac:	4621      	mov	r1, r4
 80021ae:	6010      	str	r0, [r2, #0]
 80021b0:	4630      	mov	r0, r6
 80021b2:	f7fe fe9b 	bl	8000eec <__aeabi_fdiv>
 80021b6:	490c      	ldr	r1, [pc, #48]	; (80021e8 <updateQuaternion+0x500>)
 80021b8:	6008      	str	r0, [r1, #0]
 80021ba:	4621      	mov	r1, r4
 80021bc:	4640      	mov	r0, r8
 80021be:	f7fe fe95 	bl	8000eec <__aeabi_fdiv>
 80021c2:	4b0a      	ldr	r3, [pc, #40]	; (80021ec <updateQuaternion+0x504>)
 80021c4:	6018      	str	r0, [r3, #0]
 80021c6:	b00d      	add	sp, #52	; 0x34
 80021c8:	e8bd 8ff0 	ldmia.w	sp!, {r4, r5, r6, r7, r8, r9, sl, fp, pc}
 80021cc:	f3af 8000 	nop.w
 80021d0:	b7952d23 	.word	0xb7952d23
 80021d4:	3f469c23 	.word	0x3f469c23
 80021d8:	eb18116f 	.word	0xeb18116f
 80021dc:	3f7c981b 	.word	0x3f7c981b
 80021e0:	20000004 	.word	0x20000004
 80021e4:	20000288 	.word	0x20000288
 80021e8:	2000028c 	.word	0x2000028c
 80021ec:	20000290 	.word	0x20000290

080021f0 <setInitialQuaternion>:
 80021f0:	e92d 4ff7 	stmdb	sp!, {r0, r1, r2, r4, r5, r6, r7, r8, r9, sl, fp, lr}
 80021f4:	4614      	mov	r4, r2
 80021f6:	460d      	mov	r5, r1
 80021f8:	f7fe f916 	bl	8000428 <__aeabi_f2d>
 80021fc:	2200      	movs	r2, #0
 80021fe:	4b47      	ldr	r3, [pc, #284]	; (800231c <setInitialQuaternion+0x12c>)
 8002200:	f7fe f96a 	bl	80004d8 <__aeabi_dmul>
 8002204:	4680      	mov	r8, r0
 8002206:	4689      	mov	r9, r1
 8002208:	f008 fe3c 	bl	800ae84 <cos>
 800220c:	f7fe fc5c 	bl	8000ac8 <__aeabi_d2f>
 8002210:	4649      	mov	r1, r9
 8002212:	4606      	mov	r6, r0
 8002214:	4640      	mov	r0, r8
 8002216:	f008 fe7f 	bl	800af18 <sin>
 800221a:	f7fe fc55 	bl	8000ac8 <__aeabi_d2f>
 800221e:	4607      	mov	r7, r0
 8002220:	4628      	mov	r0, r5
 8002222:	f7fe f901 	bl	8000428 <__aeabi_f2d>
 8002226:	2200      	movs	r2, #0
 8002228:	4b3c      	ldr	r3, [pc, #240]	; (800231c <setInitialQuaternion+0x12c>)
 800222a:	f7fe f955 	bl	80004d8 <__aeabi_dmul>
 800222e:	4682      	mov	sl, r0
 8002230:	468b      	mov	fp, r1
 8002232:	f008 fe27 	bl	800ae84 <cos>
 8002236:	f7fe fc47 	bl	8000ac8 <__aeabi_d2f>
 800223a:	4659      	mov	r1, fp
 800223c:	4681      	mov	r9, r0
 800223e:	4650      	mov	r0, sl
 8002240:	f008 fe6a 	bl	800af18 <sin>
 8002244:	f7fe fc40 	bl	8000ac8 <__aeabi_d2f>
 8002248:	4680      	mov	r8, r0
 800224a:	4620      	mov	r0, r4
 800224c:	f7fe f8ec 	bl	8000428 <__aeabi_f2d>
 8002250:	2200      	movs	r2, #0
 8002252:	4b32      	ldr	r3, [pc, #200]	; (800231c <setInitialQuaternion+0x12c>)
 8002254:	f7fe f940 	bl	80004d8 <__aeabi_dmul>
 8002258:	4682      	mov	sl, r0
 800225a:	468b      	mov	fp, r1
 800225c:	f008 fe12 	bl	800ae84 <cos>
 8002260:	f7fe fc32 	bl	8000ac8 <__aeabi_d2f>
 8002264:	4659      	mov	r1, fp
 8002266:	4605      	mov	r5, r0
 8002268:	4650      	mov	r0, sl
 800226a:	f008 fe55 	bl	800af18 <sin>
 800226e:	f7fe fc2b 	bl	8000ac8 <__aeabi_d2f>
 8002272:	4649      	mov	r1, r9
 8002274:	4604      	mov	r4, r0
 8002276:	4630      	mov	r0, r6
 8002278:	f7fe fd84 	bl	8000d84 <__aeabi_fmul>
 800227c:	4641      	mov	r1, r8
 800227e:	4683      	mov	fp, r0
 8002280:	4638      	mov	r0, r7
 8002282:	f7fe fd7f 	bl	8000d84 <__aeabi_fmul>
 8002286:	4629      	mov	r1, r5
 8002288:	4682      	mov	sl, r0
 800228a:	4658      	mov	r0, fp
 800228c:	f7fe fd7a 	bl	8000d84 <__aeabi_fmul>
 8002290:	4621      	mov	r1, r4
 8002292:	9001      	str	r0, [sp, #4]
 8002294:	4650      	mov	r0, sl
 8002296:	f7fe fd75 	bl	8000d84 <__aeabi_fmul>
 800229a:	9b01      	ldr	r3, [sp, #4]
 800229c:	4601      	mov	r1, r0
 800229e:	4618      	mov	r0, r3
 80022a0:	f7fe fc68 	bl	8000b74 <__addsf3>
 80022a4:	4b1e      	ldr	r3, [pc, #120]	; (8002320 <setInitialQuaternion+0x130>)
 80022a6:	4621      	mov	r1, r4
 80022a8:	6018      	str	r0, [r3, #0]
 80022aa:	4658      	mov	r0, fp
 80022ac:	f7fe fd6a 	bl	8000d84 <__aeabi_fmul>
 80022b0:	4629      	mov	r1, r5
 80022b2:	4683      	mov	fp, r0
 80022b4:	4650      	mov	r0, sl
 80022b6:	f7fe fd65 	bl	8000d84 <__aeabi_fmul>
 80022ba:	4601      	mov	r1, r0
 80022bc:	4658      	mov	r0, fp
 80022be:	f7fe fc57 	bl	8000b70 <__aeabi_fsub>
 80022c2:	4b18      	ldr	r3, [pc, #96]	; (8002324 <setInitialQuaternion+0x134>)
 80022c4:	4649      	mov	r1, r9
 80022c6:	6018      	str	r0, [r3, #0]
 80022c8:	4638      	mov	r0, r7
 80022ca:	f7fe fd5b 	bl	8000d84 <__aeabi_fmul>
 80022ce:	4641      	mov	r1, r8
 80022d0:	4607      	mov	r7, r0
 80022d2:	4630      	mov	r0, r6
 80022d4:	f7fe fd56 	bl	8000d84 <__aeabi_fmul>
 80022d8:	4621      	mov	r1, r4
 80022da:	4606      	mov	r6, r0
 80022dc:	4638      	mov	r0, r7
 80022de:	f7fe fd51 	bl	8000d84 <__aeabi_fmul>
 80022e2:	4629      	mov	r1, r5
 80022e4:	4680      	mov	r8, r0
 80022e6:	4630      	mov	r0, r6
 80022e8:	f7fe fd4c 	bl	8000d84 <__aeabi_fmul>
 80022ec:	4601      	mov	r1, r0
 80022ee:	4640      	mov	r0, r8
 80022f0:	f7fe fc40 	bl	8000b74 <__addsf3>
 80022f4:	4b0c      	ldr	r3, [pc, #48]	; (8002328 <setInitialQuaternion+0x138>)
 80022f6:	4629      	mov	r1, r5
 80022f8:	6018      	str	r0, [r3, #0]
 80022fa:	4638      	mov	r0, r7
 80022fc:	f7fe fd42 	bl	8000d84 <__aeabi_fmul>
 8002300:	4621      	mov	r1, r4
 8002302:	4605      	mov	r5, r0
 8002304:	4630      	mov	r0, r6
 8002306:	f7fe fd3d 	bl	8000d84 <__aeabi_fmul>
 800230a:	4601      	mov	r1, r0
 800230c:	4628      	mov	r0, r5
 800230e:	f7fe fc2f 	bl	8000b70 <__aeabi_fsub>
 8002312:	4b06      	ldr	r3, [pc, #24]	; (800232c <setInitialQuaternion+0x13c>)
 8002314:	6018      	str	r0, [r3, #0]
 8002316:	b003      	add	sp, #12
 8002318:	e8bd 8ff0 	ldmia.w	sp!, {r4, r5, r6, r7, r8, r9, sl, fp, pc}
 800231c:	3fe00000 	.word	0x3fe00000
 8002320:	20000004 	.word	0x20000004
 8002324:	20000288 	.word	0x20000288
 8002328:	2000028c 	.word	0x2000028c
 800232c:	20000290 	.word	0x20000290

08002330 <main>:
 8002330:	e92d 4ff0 	stmdb	sp!, {r4, r5, r6, r7, r8, r9, sl, fp, lr}
 8002334:	2410      	movs	r4, #16
 8002336:	b0b3      	sub	sp, #204	; 0xcc
 8002338:	f001 f806 	bl	8003348 <HAL_Init>
 800233c:	f7ff fcc8 	bl	8001cd0 <SysTick_Init>
 8002340:	f7ff fc84 	bl	8001c4c <SystemClock_Config>
 8002344:	4622      	mov	r2, r4
 8002346:	2100      	movs	r1, #0
 8002348:	a819      	add	r0, sp, #100	; 0x64
 800234a:	f006 fbfc 	bl	8008b46 <memset>
 800234e:	4b9b      	ldr	r3, [pc, #620]	; (80025bc <main+0x28c>)
 8002350:	2500      	movs	r5, #0
 8002352:	699a      	ldr	r2, [r3, #24]
 8002354:	f44f 5600 	mov.w	r6, #8192	; 0x2000
 8002358:	4322      	orrs	r2, r4
 800235a:	619a      	str	r2, [r3, #24]
 800235c:	699a      	ldr	r2, [r3, #24]
 800235e:	2101      	movs	r1, #1
 8002360:	4022      	ands	r2, r4
 8002362:	920f      	str	r2, [sp, #60]	; 0x3c
 8002364:	9a0f      	ldr	r2, [sp, #60]	; 0x3c
 8002366:	699a      	ldr	r2, [r3, #24]
 8002368:	4895      	ldr	r0, [pc, #596]	; (80025c0 <main+0x290>)
 800236a:	f042 0220 	orr.w	r2, r2, #32
 800236e:	619a      	str	r2, [r3, #24]
 8002370:	699a      	ldr	r2, [r3, #24]
 8002372:	f44f 37e1 	mov.w	r7, #115200	; 0x1c200
 8002376:	f002 0220 	and.w	r2, r2, #32
 800237a:	9210      	str	r2, [sp, #64]	; 0x40
 800237c:	9a10      	ldr	r2, [sp, #64]	; 0x40
 800237e:	699a      	ldr	r2, [r3, #24]
 8002380:	f042 0204 	orr.w	r2, r2, #4
 8002384:	619a      	str	r2, [r3, #24]
 8002386:	699a      	ldr	r2, [r3, #24]
 8002388:	f002 0204 	and.w	r2, r2, #4
 800238c:	9211      	str	r2, [sp, #68]	; 0x44
 800238e:	9a11      	ldr	r2, [sp, #68]	; 0x44
 8002390:	699a      	ldr	r2, [r3, #24]
 8002392:	f042 0208 	orr.w	r2, r2, #8
 8002396:	619a      	str	r2, [r3, #24]
 8002398:	699b      	ldr	r3, [r3, #24]
 800239a:	2200      	movs	r2, #0
 800239c:	f003 0308 	and.w	r3, r3, #8
 80023a0:	9312      	str	r3, [sp, #72]	; 0x48
 80023a2:	9b12      	ldr	r3, [sp, #72]	; 0x48
 80023a4:	f001 f9b0 	bl	8003708 <HAL_GPIO_WritePin>
 80023a8:	4b86      	ldr	r3, [pc, #536]	; (80025c4 <main+0x294>)
 80023aa:	4887      	ldr	r0, [pc, #540]	; (80025c8 <main+0x298>)
 80023ac:	a919      	add	r1, sp, #100	; 0x64
 80023ae:	e9cd 6319 	strd	r6, r3, [sp, #100]	; 0x64
 80023b2:	951b      	str	r5, [sp, #108]	; 0x6c
 80023b4:	f001 f8ce 	bl	8003554 <HAL_GPIO_Init>
 80023b8:	2301      	movs	r3, #1
 80023ba:	e9cd 3319 	strd	r3, r3, [sp, #100]	; 0x64
 80023be:	2302      	movs	r3, #2
 80023c0:	260c      	movs	r6, #12
 80023c2:	487f      	ldr	r0, [pc, #508]	; (80025c0 <main+0x290>)
 80023c4:	a919      	add	r1, sp, #100	; 0x64
 80023c6:	931c      	str	r3, [sp, #112]	; 0x70
 80023c8:	951b      	str	r5, [sp, #108]	; 0x6c
 80023ca:	f001 f8c3 	bl	8003554 <HAL_GPIO_Init>
 80023ce:	462a      	mov	r2, r5
 80023d0:	4629      	mov	r1, r5
 80023d2:	2028      	movs	r0, #40	; 0x28
 80023d4:	f001 f800 	bl	80033d8 <HAL_NVIC_SetPriority>
 80023d8:	2028      	movs	r0, #40	; 0x28
 80023da:	f001 f82d 	bl	8003438 <HAL_NVIC_EnableIRQ>
 80023de:	487b      	ldr	r0, [pc, #492]	; (80025cc <main+0x29c>)
 80023e0:	4b7b      	ldr	r3, [pc, #492]	; (80025d0 <main+0x2a0>)
 80023e2:	e9c0 5502 	strd	r5, r5, [r0, #8]
 80023e6:	e9c0 3700 	strd	r3, r7, [r0]
 80023ea:	e9c0 6505 	strd	r6, r5, [r0, #20]
 80023ee:	6105      	str	r5, [r0, #16]
 80023f0:	61c5      	str	r5, [r0, #28]
 80023f2:	f004 f86d 	bl	80064d0 <HAL_UART_Init>
 80023f6:	4603      	mov	r3, r0
 80023f8:	b108      	cbz	r0, 80023fe <main+0xce>
 80023fa:	b672      	cpsid	i
 80023fc:	e7fe      	b.n	80023fc <main+0xcc>
 80023fe:	f44f 4580 	mov.w	r5, #16384	; 0x4000
 8002402:	4874      	ldr	r0, [pc, #464]	; (80025d4 <main+0x2a4>)
 8002404:	4a74      	ldr	r2, [pc, #464]	; (80025d8 <main+0x2a8>)
 8002406:	f8df 81d4 	ldr.w	r8, [pc, #468]	; 80025dc <main+0x2ac>
 800240a:	e9c0 3302 	strd	r3, r3, [r0, #8]
 800240e:	e9c0 5304 	strd	r5, r3, [r0, #16]
 8002412:	e9c0 3306 	strd	r3, r3, [r0, #24]
 8002416:	6203      	str	r3, [r0, #32]
 8002418:	e9c0 2800 	strd	r2, r8, [r0]
 800241c:	f001 fb84 	bl	8003b28 <HAL_I2C_Init>
 8002420:	4603      	mov	r3, r0
 8002422:	b108      	cbz	r0, 8002428 <main+0xf8>
 8002424:	b672      	cpsid	i
 8002426:	e7fe      	b.n	8002426 <main+0xf6>
 8002428:	486d      	ldr	r0, [pc, #436]	; (80025e0 <main+0x2b0>)
 800242a:	4a6e      	ldr	r2, [pc, #440]	; (80025e4 <main+0x2b4>)
 800242c:	e9c0 3302 	strd	r3, r3, [r0, #8]
 8002430:	e9c0 5304 	strd	r5, r3, [r0, #16]
 8002434:	e9c0 3306 	strd	r3, r3, [r0, #24]
 8002438:	6203      	str	r3, [r0, #32]
 800243a:	e9c0 2800 	strd	r2, r8, [r0]
 800243e:	f001 fb73 	bl	8003b28 <HAL_I2C_Init>
 8002442:	4603      	mov	r3, r0
 8002444:	b108      	cbz	r0, 800244a <main+0x11a>
 8002446:	b672      	cpsid	i
 8002448:	e7fe      	b.n	8002448 <main+0x118>
 800244a:	f44f 7282 	mov.w	r2, #260	; 0x104
 800244e:	4866      	ldr	r0, [pc, #408]	; (80025e8 <main+0x2b8>)
 8002450:	4d66      	ldr	r5, [pc, #408]	; (80025ec <main+0x2bc>)
 8002452:	e9c0 3302 	strd	r3, r3, [r0, #8]
 8002456:	e9c0 5200 	strd	r5, r2, [r0]
 800245a:	e9c0 3304 	strd	r3, r3, [r0, #16]
 800245e:	f44f 7200 	mov.w	r2, #512	; 0x200
 8002462:	e9c0 3308 	strd	r3, r3, [r0, #32]
 8002466:	6283      	str	r3, [r0, #40]	; 0x28
 8002468:	230a      	movs	r3, #10
 800246a:	e9c0 2406 	strd	r2, r4, [r0, #24]
 800246e:	62c3      	str	r3, [r0, #44]	; 0x2c
 8002470:	f003 f988 	bl	8005784 <HAL_SPI_Init>
 8002474:	4605      	mov	r5, r0
 8002476:	b108      	cbz	r0, 800247c <main+0x14c>
 8002478:	b672      	cpsid	i
 800247a:	e7fe      	b.n	800247a <main+0x14a>
 800247c:	4622      	mov	r2, r4
 800247e:	4601      	mov	r1, r0
 8002480:	a815      	add	r0, sp, #84	; 0x54
 8002482:	f006 fb60 	bl	8008b46 <memset>
 8002486:	4629      	mov	r1, r5
 8002488:	221c      	movs	r2, #28
 800248a:	a819      	add	r0, sp, #100	; 0x64
 800248c:	e9cd 5513 	strd	r5, r5, [sp, #76]	; 0x4c
 8002490:	f006 fb59 	bl	8008b46 <memset>
 8002494:	f240 43ff 	movw	r3, #1279	; 0x4ff
 8002498:	f04f 4180 	mov.w	r1, #1073741824	; 0x40000000
 800249c:	4c54      	ldr	r4, [pc, #336]	; (80025f0 <main+0x2c0>)
 800249e:	e9c4 1300 	strd	r1, r3, [r4]
 80024a2:	f240 33e7 	movw	r3, #999	; 0x3e7
 80024a6:	4620      	mov	r0, r4
 80024a8:	e9c4 3503 	strd	r3, r5, [r4, #12]
 80024ac:	60a5      	str	r5, [r4, #8]
 80024ae:	61a5      	str	r5, [r4, #24]
 80024b0:	f003 fd0e 	bl	8005ed0 <HAL_TIM_Base_Init>
 80024b4:	b108      	cbz	r0, 80024ba <main+0x18a>
 80024b6:	b672      	cpsid	i
 80024b8:	e7fe      	b.n	80024b8 <main+0x188>
 80024ba:	f44f 5380 	mov.w	r3, #4096	; 0x1000
 80024be:	4620      	mov	r0, r4
 80024c0:	a915      	add	r1, sp, #84	; 0x54
 80024c2:	9315      	str	r3, [sp, #84]	; 0x54
 80024c4:	f003 fe3d 	bl	8006142 <HAL_TIM_ConfigClockSource>
 80024c8:	b108      	cbz	r0, 80024ce <main+0x19e>
 80024ca:	b672      	cpsid	i
 80024cc:	e7fe      	b.n	80024cc <main+0x19c>
 80024ce:	4620      	mov	r0, r4
 80024d0:	f003 fd56 	bl	8005f80 <HAL_TIM_PWM_Init>
 80024d4:	b108      	cbz	r0, 80024da <main+0x1aa>
 80024d6:	b672      	cpsid	i
 80024d8:	e7fe      	b.n	80024d8 <main+0x1a8>
 80024da:	e9cd 0013 	strd	r0, r0, [sp, #76]	; 0x4c
 80024de:	a913      	add	r1, sp, #76	; 0x4c
 80024e0:	4620      	mov	r0, r4
 80024e2:	f003 ff27 	bl	8006334 <HAL_TIMEx_MasterConfigSynchronization>
 80024e6:	4602      	mov	r2, r0
 80024e8:	b108      	cbz	r0, 80024ee <main+0x1be>
 80024ea:	b672      	cpsid	i
 80024ec:	e7fe      	b.n	80024ec <main+0x1bc>
 80024ee:	2360      	movs	r3, #96	; 0x60
 80024f0:	901b      	str	r0, [sp, #108]	; 0x6c
 80024f2:	e9cd 3019 	strd	r3, r0, [sp, #100]	; 0x64
 80024f6:	901d      	str	r0, [sp, #116]	; 0x74
 80024f8:	a919      	add	r1, sp, #100	; 0x64
 80024fa:	4620      	mov	r0, r4
 80024fc:	f003 fdbe 	bl	800607c <HAL_TIM_PWM_ConfigChannel>
 8002500:	4605      	mov	r5, r0
 8002502:	b108      	cbz	r0, 8002508 <main+0x1d8>
 8002504:	b672      	cpsid	i
 8002506:	e7fe      	b.n	8002506 <main+0x1d6>
 8002508:	4620      	mov	r0, r4
 800250a:	f000 fd5d 	bl	8002fc8 <HAL_TIM_MspPostInit>
 800250e:	f004 fa0b 	bl	8006928 <MX_FATFS_Init>
 8002512:	4838      	ldr	r0, [pc, #224]	; (80025f4 <main+0x2c4>)
 8002514:	4b38      	ldr	r3, [pc, #224]	; (80025f8 <main+0x2c8>)
 8002516:	e9c0 5502 	strd	r5, r5, [r0, #8]
 800251a:	e9c0 3700 	strd	r3, r7, [r0]
 800251e:	e9c0 5604 	strd	r5, r6, [r0, #16]
 8002522:	e9c0 5506 	strd	r5, r5, [r0, #24]
 8002526:	f003 ffd3 	bl	80064d0 <HAL_UART_Init>
 800252a:	b108      	cbz	r0, 8002530 <main+0x200>
 800252c:	b672      	cpsid	i
 800252e:	e7fe      	b.n	800252e <main+0x1fe>
 8002530:	2500      	movs	r5, #0
 8002532:	2210      	movs	r2, #16
 8002534:	2100      	movs	r1, #0
 8002536:	a815      	add	r0, sp, #84	; 0x54
 8002538:	f006 fb05 	bl	8008b46 <memset>
 800253c:	221c      	movs	r2, #28
 800253e:	4629      	mov	r1, r5
 8002540:	a819      	add	r0, sp, #100	; 0x64
 8002542:	e9cd 5513 	strd	r5, r5, [sp, #76]	; 0x4c
 8002546:	f006 fafe 	bl	8008b46 <memset>
 800254a:	f641 03ff 	movw	r3, #6399	; 0x18ff
 800254e:	4c2b      	ldr	r4, [pc, #172]	; (80025fc <main+0x2cc>)
 8002550:	4a2b      	ldr	r2, [pc, #172]	; (8002600 <main+0x2d0>)
 8002552:	4620      	mov	r0, r4
 8002554:	e9c4 2300 	strd	r2, r3, [r4]
 8002558:	f242 730f 	movw	r3, #9999	; 0x270f
 800255c:	60a5      	str	r5, [r4, #8]
 800255e:	e9c4 3503 	strd	r3, r5, [r4, #12]
 8002562:	61a5      	str	r5, [r4, #24]
 8002564:	f003 fcb4 	bl	8005ed0 <HAL_TIM_Base_Init>
 8002568:	b108      	cbz	r0, 800256e <main+0x23e>
 800256a:	b672      	cpsid	i
 800256c:	e7fe      	b.n	800256c <main+0x23c>
 800256e:	f44f 5380 	mov.w	r3, #4096	; 0x1000
 8002572:	4620      	mov	r0, r4
 8002574:	a915      	add	r1, sp, #84	; 0x54
 8002576:	9315      	str	r3, [sp, #84]	; 0x54
 8002578:	f003 fde3 	bl	8006142 <HAL_TIM_ConfigClockSource>
 800257c:	b108      	cbz	r0, 8002582 <main+0x252>
 800257e:	b672      	cpsid	i
 8002580:	e7fe      	b.n	8002580 <main+0x250>
 8002582:	4620      	mov	r0, r4
 8002584:	f003 fcd0 	bl	8005f28 <HAL_TIM_OC_Init>
 8002588:	b108      	cbz	r0, 800258e <main+0x25e>
 800258a:	b672      	cpsid	i
 800258c:	e7fe      	b.n	800258c <main+0x25c>
 800258e:	e9cd 0013 	strd	r0, r0, [sp, #76]	; 0x4c
 8002592:	a913      	add	r1, sp, #76	; 0x4c
 8002594:	4620      	mov	r0, r4
 8002596:	f003 fecd 	bl	8006334 <HAL_TIMEx_MasterConfigSynchronization>
 800259a:	4602      	mov	r2, r0
 800259c:	b108      	cbz	r0, 80025a2 <main+0x272>
 800259e:	b672      	cpsid	i
 80025a0:	e7fe      	b.n	80025a0 <main+0x270>
 80025a2:	e9cd 0019 	strd	r0, r0, [sp, #100]	; 0x64
 80025a6:	901b      	str	r0, [sp, #108]	; 0x6c
 80025a8:	901d      	str	r0, [sp, #116]	; 0x74
 80025aa:	a919      	add	r1, sp, #100	; 0x64
 80025ac:	4620      	mov	r0, r4
 80025ae:	f003 fd3f 	bl	8006030 <HAL_TIM_OC_ConfigChannel>
 80025b2:	4605      	mov	r5, r0
 80025b4:	b330      	cbz	r0, 8002604 <main+0x2d4>
 80025b6:	b672      	cpsid	i
 80025b8:	e7fe      	b.n	80025b8 <main+0x288>
 80025ba:	bf00      	nop
 80025bc:	40021000 	.word	0x40021000
 80025c0:	40010c00 	.word	0x40010c00
 80025c4:	10110000 	.word	0x10110000
 80025c8:	40011000 	.word	0x40011000
 80025cc:	200024fc 	.word	0x200024fc
 80025d0:	40004400 	.word	0x40004400
 80025d4:	20002324 	.word	0x20002324
 80025d8:	40005400 	.word	0x40005400
 80025dc:	000186a0 	.word	0x000186a0
 80025e0:	20002378 	.word	0x20002378
 80025e4:	40005800 	.word	0x40005800
 80025e8:	200023cc 	.word	0x200023cc
 80025ec:	40013000 	.word	0x40013000
 80025f0:	20002424 	.word	0x20002424
 80025f4:	200024b4 	.word	0x200024b4
 80025f8:	40013800 	.word	0x40013800
 80025fc:	2000246c 	.word	0x2000246c
 8002600:	40000400 	.word	0x40000400
 8002604:	4620      	mov	r0, r4
 8002606:	f000 fcdf 	bl	8002fc8 <HAL_TIM_MspPostInit>
 800260a:	f7fe ffff 	bl	800160c <initialBMP180>
 800260e:	4853      	ldr	r0, [pc, #332]	; (800275c <main+0x42c>)
 8002610:	f000 fa70 	bl	8002af4 <MPU6050_Init>
 8002614:	4b52      	ldr	r3, [pc, #328]	; (8002760 <main+0x430>)
 8002616:	a815      	add	r0, sp, #84	; 0x54
 8002618:	9315      	str	r3, [sp, #84]	; 0x54
 800261a:	f88d 5058 	strb.w	r5, [sp, #88]	; 0x58
 800261e:	f000 faa1 	bl	8002b64 <MPU6050_Config>
 8002622:	4850      	ldr	r0, [pc, #320]	; (8002764 <main+0x434>)
 8002624:	f003 fb24 	bl	8005c70 <HAL_TIM_Base_Start>
 8002628:	4629      	mov	r1, r5
 800262a:	484e      	ldr	r0, [pc, #312]	; (8002764 <main+0x434>)
 800262c:	f003 fe80 	bl	8006330 <HAL_TIM_PWM_Start>
 8002630:	4620      	mov	r0, r4
 8002632:	f003 fb43 	bl	8005cbc <HAL_TIM_Base_Start_IT>
 8002636:	2201      	movs	r2, #1
 8002638:	494b      	ldr	r1, [pc, #300]	; (8002768 <main+0x438>)
 800263a:	484c      	ldr	r0, [pc, #304]	; (800276c <main+0x43c>)
 800263c:	f005 fa12 	bl	8007a64 <f_mount>
 8002640:	4c4b      	ldr	r4, [pc, #300]	; (8002770 <main+0x440>)
 8002642:	4e4c      	ldr	r6, [pc, #304]	; (8002774 <main+0x444>)
 8002644:	4d4c      	ldr	r5, [pc, #304]	; (8002778 <main+0x448>)
 8002646:	4622      	mov	r2, r4
 8002648:	4629      	mov	r1, r5
 800264a:	7030      	strb	r0, [r6, #0]
 800264c:	484b      	ldr	r0, [pc, #300]	; (800277c <main+0x44c>)
 800264e:	f005 fc42 	bl	8007ed6 <f_getfree>
 8002652:	6823      	ldr	r3, [r4, #0]
 8002654:	f503 5380 	add.w	r3, r3, #4096	; 0x1000
 8002658:	6958      	ldr	r0, [r3, #20]
 800265a:	789c      	ldrb	r4, [r3, #2]
 800265c:	3802      	subs	r0, #2
 800265e:	4360      	muls	r0, r4
 8002660:	f7fd fec0 	bl	80003e4 <__aeabi_ui2d>
 8002664:	2200      	movs	r2, #0
 8002666:	4b46      	ldr	r3, [pc, #280]	; (8002780 <main+0x450>)
 8002668:	f7fd ff36 	bl	80004d8 <__aeabi_dmul>
 800266c:	f7fe fa0c 	bl	8000a88 <__aeabi_d2uiz>
 8002670:	4b44      	ldr	r3, [pc, #272]	; (8002784 <main+0x454>)
 8002672:	6018      	str	r0, [r3, #0]
 8002674:	6828      	ldr	r0, [r5, #0]
 8002676:	4360      	muls	r0, r4
 8002678:	f7fd feb4 	bl	80003e4 <__aeabi_ui2d>
 800267c:	2200      	movs	r2, #0
 800267e:	4b40      	ldr	r3, [pc, #256]	; (8002780 <main+0x450>)
 8002680:	f7fd ff2a 	bl	80004d8 <__aeabi_dmul>
 8002684:	f7fe fa00 	bl	8000a88 <__aeabi_d2uiz>
 8002688:	4b3f      	ldr	r3, [pc, #252]	; (8002788 <main+0x458>)
 800268a:	2213      	movs	r2, #19
 800268c:	6018      	str	r0, [r3, #0]
 800268e:	493f      	ldr	r1, [pc, #252]	; (800278c <main+0x45c>)
 8002690:	483f      	ldr	r0, [pc, #252]	; (8002790 <main+0x460>)
 8002692:	f005 fa15 	bl	8007ac0 <f_open>
 8002696:	7030      	strb	r0, [r6, #0]
 8002698:	f7fe fe58 	bl	800134c <readTrueTemp>
 800269c:	4b3d      	ldr	r3, [pc, #244]	; (8002794 <main+0x464>)
 800269e:	4c3e      	ldr	r4, [pc, #248]	; (8002798 <main+0x468>)
 80026a0:	6018      	str	r0, [r3, #0]
 80026a2:	2000      	movs	r0, #0
 80026a4:	f7fe ff60 	bl	8001568 <readTruePress>
 80026a8:	4b3c      	ldr	r3, [pc, #240]	; (800279c <main+0x46c>)
 80026aa:	4e3d      	ldr	r6, [pc, #244]	; (80027a0 <main+0x470>)
 80026ac:	6018      	str	r0, [r3, #0]
 80026ae:	2000      	movs	r0, #0
 80026b0:	f7fe ff62 	bl	8001578 <readTrueAltitude>
 80026b4:	4b3b      	ldr	r3, [pc, #236]	; (80027a4 <main+0x474>)
 80026b6:	6018      	str	r0, [r3, #0]
 80026b8:	4620      	mov	r0, r4
 80026ba:	f000 fb01 	bl	8002cc0 <MPU6050_Get_Accel_Scale>
 80026be:	483a      	ldr	r0, [pc, #232]	; (80027a8 <main+0x478>)
 80026c0:	f000 fb4a 	bl	8002d58 <MPU6050_Get_Gyro_Scale>
 80026c4:	6833      	ldr	r3, [r6, #0]
 80026c6:	2b00      	cmp	r3, #0
 80026c8:	d17a      	bne.n	80027c0 <main+0x490>
 80026ca:	68a5      	ldr	r5, [r4, #8]
 80026cc:	f04f 517e 	mov.w	r1, #1065353216	; 0x3f800000
 80026d0:	4628      	mov	r0, r5
 80026d2:	f7fe fcff 	bl	80010d4 <__aeabi_fcmple>
 80026d6:	2800      	cmp	r0, #0
 80026d8:	d072      	beq.n	80027c0 <main+0x490>
 80026da:	6820      	ldr	r0, [r4, #0]
 80026dc:	4933      	ldr	r1, [pc, #204]	; (80027ac <main+0x47c>)
 80026de:	f7fe fc05 	bl	8000eec <__aeabi_fdiv>
 80026e2:	6866      	ldr	r6, [r4, #4]
 80026e4:	4f32      	ldr	r7, [pc, #200]	; (80027b0 <main+0x480>)
 80026e6:	4604      	mov	r4, r0
 80026e8:	6038      	str	r0, [r7, #0]
 80026ea:	4930      	ldr	r1, [pc, #192]	; (80027ac <main+0x47c>)
 80026ec:	4630      	mov	r0, r6
 80026ee:	f7fe fbfd 	bl	8000eec <__aeabi_fdiv>
 80026f2:	492e      	ldr	r1, [pc, #184]	; (80027ac <main+0x47c>)
 80026f4:	4606      	mov	r6, r0
 80026f6:	6078      	str	r0, [r7, #4]
 80026f8:	4628      	mov	r0, r5
 80026fa:	f7fe fbf7 	bl	8000eec <__aeabi_fdiv>
 80026fe:	4601      	mov	r1, r0
 8002700:	60b8      	str	r0, [r7, #8]
 8002702:	f7fe fb3f 	bl	8000d84 <__aeabi_fmul>
 8002706:	4607      	mov	r7, r0
 8002708:	4621      	mov	r1, r4
 800270a:	4620      	mov	r0, r4
 800270c:	f7fe fb3a 	bl	8000d84 <__aeabi_fmul>
 8002710:	4639      	mov	r1, r7
 8002712:	f7fe fa2f 	bl	8000b74 <__addsf3>
 8002716:	f008 fc47 	bl	800afa8 <sqrtf>
 800271a:	4601      	mov	r1, r0
 800271c:	4630      	mov	r0, r6
 800271e:	f008 fc41 	bl	800afa4 <atan2f>
 8002722:	4b24      	ldr	r3, [pc, #144]	; (80027b4 <main+0x484>)
 8002724:	4605      	mov	r5, r0
 8002726:	6018      	str	r0, [r3, #0]
 8002728:	4631      	mov	r1, r6
 800272a:	4630      	mov	r0, r6
 800272c:	f7fe fb2a 	bl	8000d84 <__aeabi_fmul>
 8002730:	4639      	mov	r1, r7
 8002732:	f7fe fa1f 	bl	8000b74 <__addsf3>
 8002736:	f008 fc37 	bl	800afa8 <sqrtf>
 800273a:	4601      	mov	r1, r0
 800273c:	f104 4000 	add.w	r0, r4, #2147483648	; 0x80000000
 8002740:	f008 fc30 	bl	800afa4 <atan2f>
 8002744:	4b1c      	ldr	r3, [pc, #112]	; (80027b8 <main+0x488>)
 8002746:	4601      	mov	r1, r0
 8002748:	6018      	str	r0, [r3, #0]
 800274a:	4b1c      	ldr	r3, [pc, #112]	; (80027bc <main+0x48c>)
 800274c:	462a      	mov	r2, r5
 800274e:	6058      	str	r0, [r3, #4]
 8002750:	2000      	movs	r0, #0
 8002752:	601d      	str	r5, [r3, #0]
 8002754:	6098      	str	r0, [r3, #8]
 8002756:	f7ff fd4b 	bl	80021f0 <setInitialQuaternion>
 800275a:	e79d      	b.n	8002698 <main+0x368>
 800275c:	20002324 	.word	0x20002324
 8002760:	01030100 	.word	0x01030100
 8002764:	20002424 	.word	0x20002424
 8002768:	0800d440 	.word	0x0800d440
 800276c:	200012ec 	.word	0x200012ec
 8002770:	2000255c 	.word	0x2000255c
 8002774:	200012e8 	.word	0x200012e8
 8002778:	200012e0 	.word	0x200012e0
 800277c:	0800d45c 	.word	0x0800d45c
 8002780:	3fe00000 	.word	0x3fe00000
 8002784:	2000258c 	.word	0x2000258c
 8002788:	200012e4 	.word	0x200012e4
 800278c:	0800d442 	.word	0x0800d442
 8002790:	200002b4 	.word	0x200002b4
 8002794:	20002588 	.word	0x20002588
 8002798:	20002544 	.word	0x20002544
 800279c:	20002560 	.word	0x20002560
 80027a0:	20002584 	.word	0x20002584
 80027a4:	200002a4 	.word	0x200002a4
 80027a8:	20002550 	.word	0x20002550
 80027ac:	40400000 	.word	0x40400000
 80027b0:	20000298 	.word	0x20000298
 80027b4:	2000231c 	.word	0x2000231c
 80027b8:	20002320 	.word	0x20002320
 80027bc:	20002564 	.word	0x20002564
 80027c0:	2301      	movs	r3, #1
 80027c2:	6033      	str	r3, [r6, #0]
 80027c4:	68a3      	ldr	r3, [r4, #8]
 80027c6:	f8df 82b8 	ldr.w	r8, [pc, #696]	; 8002a80 <main+0x750>
 80027ca:	9301      	str	r3, [sp, #4]
 80027cc:	6863      	ldr	r3, [r4, #4]
 80027ce:	f8df 92b4 	ldr.w	r9, [pc, #692]	; 8002a84 <main+0x754>
 80027d2:	9300      	str	r3, [sp, #0]
 80027d4:	f8d8 2008 	ldr.w	r2, [r8, #8]
 80027d8:	6823      	ldr	r3, [r4, #0]
 80027da:	f8d8 1004 	ldr.w	r1, [r8, #4]
 80027de:	f8d8 0000 	ldr.w	r0, [r8]
 80027e2:	f7ff fa81 	bl	8001ce8 <updateQuaternion>
 80027e6:	4ba8      	ldr	r3, [pc, #672]	; (8002a88 <main+0x758>)
 80027e8:	f8d3 a000 	ldr.w	sl, [r3]
 80027ec:	4ba7      	ldr	r3, [pc, #668]	; (8002a8c <main+0x75c>)
 80027ee:	4650      	mov	r0, sl
 80027f0:	f8d3 b000 	ldr.w	fp, [r3]
 80027f4:	4ba6      	ldr	r3, [pc, #664]	; (8002a90 <main+0x760>)
 80027f6:	4659      	mov	r1, fp
 80027f8:	681e      	ldr	r6, [r3, #0]
 80027fa:	4ba6      	ldr	r3, [pc, #664]	; (8002a94 <main+0x764>)
 80027fc:	681d      	ldr	r5, [r3, #0]
 80027fe:	f7fe fac1 	bl	8000d84 <__aeabi_fmul>
 8002802:	4629      	mov	r1, r5
 8002804:	4607      	mov	r7, r0
 8002806:	4630      	mov	r0, r6
 8002808:	f7fe fabc 	bl	8000d84 <__aeabi_fmul>
 800280c:	4601      	mov	r1, r0
 800280e:	4638      	mov	r0, r7
 8002810:	f7fe f9ae 	bl	8000b70 <__aeabi_fsub>
 8002814:	4601      	mov	r1, r0
 8002816:	f7fe f9ad 	bl	8000b74 <__addsf3>
 800281a:	4631      	mov	r1, r6
 800281c:	4607      	mov	r7, r0
 800281e:	f8c9 0000 	str.w	r0, [r9]
 8002822:	4650      	mov	r0, sl
 8002824:	f7fe faae 	bl	8000d84 <__aeabi_fmul>
 8002828:	4629      	mov	r1, r5
 800282a:	4606      	mov	r6, r0
 800282c:	4658      	mov	r0, fp
 800282e:	f7fe faa9 	bl	8000d84 <__aeabi_fmul>
 8002832:	4601      	mov	r1, r0
 8002834:	4630      	mov	r0, r6
 8002836:	f7fe f99d 	bl	8000b74 <__addsf3>
 800283a:	4601      	mov	r1, r0
 800283c:	f7fe f99a 	bl	8000b74 <__addsf3>
 8002840:	4651      	mov	r1, sl
 8002842:	4606      	mov	r6, r0
 8002844:	f8c9 0004 	str.w	r0, [r9, #4]
 8002848:	4650      	mov	r0, sl
 800284a:	f7fe fa9b 	bl	8000d84 <__aeabi_fmul>
 800284e:	4629      	mov	r1, r5
 8002850:	4682      	mov	sl, r0
 8002852:	4628      	mov	r0, r5
 8002854:	f7fe fa96 	bl	8000d84 <__aeabi_fmul>
 8002858:	4601      	mov	r1, r0
 800285a:	4650      	mov	r0, sl
 800285c:	f7fe f98a 	bl	8000b74 <__addsf3>
 8002860:	f7fd fde2 	bl	8000428 <__aeabi_f2d>
 8002864:	4602      	mov	r2, r0
 8002866:	460b      	mov	r3, r1
 8002868:	f7fd fc80 	bl	800016c <__adddf3>
 800286c:	4602      	mov	r2, r0
 800286e:	460b      	mov	r3, r1
 8002870:	2000      	movs	r0, #0
 8002872:	4989      	ldr	r1, [pc, #548]	; (8002a98 <main+0x768>)
 8002874:	f7fd fc78 	bl	8000168 <__aeabi_dsub>
 8002878:	f7fe f926 	bl	8000ac8 <__aeabi_d2f>
 800287c:	4b87      	ldr	r3, [pc, #540]	; (8002a9c <main+0x76c>)
 800287e:	4605      	mov	r5, r0
 8002880:	f8d3 b000 	ldr.w	fp, [r3]
 8002884:	685a      	ldr	r2, [r3, #4]
 8002886:	689b      	ldr	r3, [r3, #8]
 8002888:	4659      	mov	r1, fp
 800288a:	f8c9 0008 	str.w	r0, [r9, #8]
 800288e:	4638      	mov	r0, r7
 8002890:	930c      	str	r3, [sp, #48]	; 0x30
 8002892:	920d      	str	r2, [sp, #52]	; 0x34
 8002894:	f7fe fa76 	bl	8000d84 <__aeabi_fmul>
 8002898:	9a0d      	ldr	r2, [sp, #52]	; 0x34
 800289a:	4681      	mov	r9, r0
 800289c:	4611      	mov	r1, r2
 800289e:	4630      	mov	r0, r6
 80028a0:	f7fe fa70 	bl	8000d84 <__aeabi_fmul>
 80028a4:	4601      	mov	r1, r0
 80028a6:	4648      	mov	r0, r9
 80028a8:	f7fe f964 	bl	8000b74 <__addsf3>
 80028ac:	9b0c      	ldr	r3, [sp, #48]	; 0x30
 80028ae:	4681      	mov	r9, r0
 80028b0:	4619      	mov	r1, r3
 80028b2:	4628      	mov	r0, r5
 80028b4:	f7fe fa66 	bl	8000d84 <__aeabi_fmul>
 80028b8:	4601      	mov	r1, r0
 80028ba:	4648      	mov	r0, r9
 80028bc:	f7fe f95a 	bl	8000b74 <__addsf3>
 80028c0:	4977      	ldr	r1, [pc, #476]	; (8002aa0 <main+0x770>)
 80028c2:	4681      	mov	r9, r0
 80028c4:	6008      	str	r0, [r1, #0]
 80028c6:	4639      	mov	r1, r7
 80028c8:	4638      	mov	r0, r7
 80028ca:	f7fe fa5b 	bl	8000d84 <__aeabi_fmul>
 80028ce:	4631      	mov	r1, r6
 80028d0:	4682      	mov	sl, r0
 80028d2:	4630      	mov	r0, r6
 80028d4:	f7fe fa56 	bl	8000d84 <__aeabi_fmul>
 80028d8:	4601      	mov	r1, r0
 80028da:	4650      	mov	r0, sl
 80028dc:	f7fe f94a 	bl	8000b74 <__addsf3>
 80028e0:	4629      	mov	r1, r5
 80028e2:	4682      	mov	sl, r0
 80028e4:	4628      	mov	r0, r5
 80028e6:	f7fe fa4d 	bl	8000d84 <__aeabi_fmul>
 80028ea:	4601      	mov	r1, r0
 80028ec:	4650      	mov	r0, sl
 80028ee:	f7fe f941 	bl	8000b74 <__addsf3>
 80028f2:	f7fd fd99 	bl	8000428 <__aeabi_f2d>
 80028f6:	f008 faa1 	bl	800ae3c <sqrt>
 80028fa:	f7fe f8e5 	bl	8000ac8 <__aeabi_d2f>
 80028fe:	4969      	ldr	r1, [pc, #420]	; (8002aa4 <main+0x774>)
 8002900:	4682      	mov	sl, r0
 8002902:	6008      	str	r0, [r1, #0]
 8002904:	4659      	mov	r1, fp
 8002906:	4658      	mov	r0, fp
 8002908:	f7fe fa3c 	bl	8000d84 <__aeabi_fmul>
 800290c:	9a0d      	ldr	r2, [sp, #52]	; 0x34
 800290e:	4683      	mov	fp, r0
 8002910:	4611      	mov	r1, r2
 8002912:	4610      	mov	r0, r2
 8002914:	f7fe fa36 	bl	8000d84 <__aeabi_fmul>
 8002918:	4601      	mov	r1, r0
 800291a:	4658      	mov	r0, fp
 800291c:	f7fe f92a 	bl	8000b74 <__addsf3>
 8002920:	9b0c      	ldr	r3, [sp, #48]	; 0x30
 8002922:	4683      	mov	fp, r0
 8002924:	4619      	mov	r1, r3
 8002926:	4618      	mov	r0, r3
 8002928:	f7fe fa2c 	bl	8000d84 <__aeabi_fmul>
 800292c:	4601      	mov	r1, r0
 800292e:	4658      	mov	r0, fp
 8002930:	f7fe f920 	bl	8000b74 <__addsf3>
 8002934:	f7fd fd78 	bl	8000428 <__aeabi_f2d>
 8002938:	f008 fa80 	bl	800ae3c <sqrt>
 800293c:	f7fe f8c4 	bl	8000ac8 <__aeabi_d2f>
 8002940:	4b59      	ldr	r3, [pc, #356]	; (8002aa8 <main+0x778>)
 8002942:	4601      	mov	r1, r0
 8002944:	6018      	str	r0, [r3, #0]
 8002946:	4650      	mov	r0, sl
 8002948:	f7fe fa1c 	bl	8000d84 <__aeabi_fmul>
 800294c:	4601      	mov	r1, r0
 800294e:	4648      	mov	r0, r9
 8002950:	f7fe facc 	bl	8000eec <__aeabi_fdiv>
 8002954:	f7fd fd68 	bl	8000428 <__aeabi_f2d>
 8002958:	f008 f9e0 	bl	800ad1c <acos>
 800295c:	a346      	add	r3, pc, #280	; (adr r3, 8002a78 <main+0x748>)
 800295e:	e9d3 2300 	ldrd	r2, r3, [r3]
 8002962:	f7fd fdb9 	bl	80004d8 <__aeabi_dmul>
 8002966:	f7fe f8af 	bl	8000ac8 <__aeabi_d2f>
 800296a:	f8df a140 	ldr.w	sl, [pc, #320]	; 8002aac <main+0x77c>
 800296e:	4b50      	ldr	r3, [pc, #320]	; (8002ab0 <main+0x780>)
 8002970:	f8da 1000 	ldr.w	r1, [sl]
 8002974:	6018      	str	r0, [r3, #0]
 8002976:	4638      	mov	r0, r7
 8002978:	f7fe fa04 	bl	8000d84 <__aeabi_fmul>
 800297c:	f8da 1004 	ldr.w	r1, [sl, #4]
 8002980:	4681      	mov	r9, r0
 8002982:	4630      	mov	r0, r6
 8002984:	f7fe f9fe 	bl	8000d84 <__aeabi_fmul>
 8002988:	4601      	mov	r1, r0
 800298a:	4648      	mov	r0, r9
 800298c:	f7fe f8f2 	bl	8000b74 <__addsf3>
 8002990:	f8da 1008 	ldr.w	r1, [sl, #8]
 8002994:	4681      	mov	r9, r0
 8002996:	4628      	mov	r0, r5
 8002998:	f7fe f9f4 	bl	8000d84 <__aeabi_fmul>
 800299c:	4601      	mov	r1, r0
 800299e:	4648      	mov	r0, r9
 80029a0:	f7fe f8e8 	bl	8000b74 <__addsf3>
 80029a4:	4943      	ldr	r1, [pc, #268]	; (8002ab4 <main+0x784>)
 80029a6:	f7fe f9ed 	bl	8000d84 <__aeabi_fmul>
 80029aa:	4681      	mov	r9, r0
 80029ac:	4601      	mov	r1, r0
 80029ae:	4638      	mov	r0, r7
 80029b0:	f7fe f9e8 	bl	8000d84 <__aeabi_fmul>
 80029b4:	4601      	mov	r1, r0
 80029b6:	6820      	ldr	r0, [r4, #0]
 80029b8:	f7fe f8da 	bl	8000b70 <__aeabi_fsub>
 80029bc:	4649      	mov	r1, r9
 80029be:	4607      	mov	r7, r0
 80029c0:	6020      	str	r0, [r4, #0]
 80029c2:	4630      	mov	r0, r6
 80029c4:	f7fe f9de 	bl	8000d84 <__aeabi_fmul>
 80029c8:	4601      	mov	r1, r0
 80029ca:	6860      	ldr	r0, [r4, #4]
 80029cc:	f7fe f8d0 	bl	8000b70 <__aeabi_fsub>
 80029d0:	4649      	mov	r1, r9
 80029d2:	4682      	mov	sl, r0
 80029d4:	6060      	str	r0, [r4, #4]
 80029d6:	4628      	mov	r0, r5
 80029d8:	f7fe f9d4 	bl	8000d84 <__aeabi_fmul>
 80029dc:	68a1      	ldr	r1, [r4, #8]
 80029de:	f7fe f8c9 	bl	8000b74 <__addsf3>
 80029e2:	4605      	mov	r5, r0
 80029e4:	60a0      	str	r0, [r4, #8]
 80029e6:	4638      	mov	r0, r7
 80029e8:	f7fd fd1e 	bl	8000428 <__aeabi_f2d>
 80029ec:	4606      	mov	r6, r0
 80029ee:	4628      	mov	r0, r5
 80029f0:	460f      	mov	r7, r1
 80029f2:	f7fd fd19 	bl	8000428 <__aeabi_f2d>
 80029f6:	e9cd 0102 	strd	r0, r1, [sp, #8]
 80029fa:	4650      	mov	r0, sl
 80029fc:	f7fd fd14 	bl	8000428 <__aeabi_f2d>
 8002a00:	4632      	mov	r2, r6
 8002a02:	463b      	mov	r3, r7
 8002a04:	e9cd 0100 	strd	r0, r1, [sp]
 8002a08:	482b      	ldr	r0, [pc, #172]	; (8002ab8 <main+0x788>)
 8002a0a:	f006 f827 	bl	8008a5c <iprintf>
 8002a0e:	4b2b      	ldr	r3, [pc, #172]	; (8002abc <main+0x78c>)
 8002a10:	6818      	ldr	r0, [r3, #0]
 8002a12:	f7fd fd09 	bl	8000428 <__aeabi_f2d>
 8002a16:	4606      	mov	r6, r0
 8002a18:	68a0      	ldr	r0, [r4, #8]
 8002a1a:	460f      	mov	r7, r1
 8002a1c:	f7fd fd04 	bl	8000428 <__aeabi_f2d>
 8002a20:	e9cd 010a 	strd	r0, r1, [sp, #40]	; 0x28
 8002a24:	6860      	ldr	r0, [r4, #4]
 8002a26:	f7fd fcff 	bl	8000428 <__aeabi_f2d>
 8002a2a:	e9cd 0108 	strd	r0, r1, [sp, #32]
 8002a2e:	6820      	ldr	r0, [r4, #0]
 8002a30:	f7fd fcfa 	bl	8000428 <__aeabi_f2d>
 8002a34:	e9cd 0106 	strd	r0, r1, [sp, #24]
 8002a38:	f8d8 0008 	ldr.w	r0, [r8, #8]
 8002a3c:	f7fd fcf4 	bl	8000428 <__aeabi_f2d>
 8002a40:	e9cd 0104 	strd	r0, r1, [sp, #16]
 8002a44:	f8d8 0004 	ldr.w	r0, [r8, #4]
 8002a48:	f7fd fcee 	bl	8000428 <__aeabi_f2d>
 8002a4c:	e9cd 0102 	strd	r0, r1, [sp, #8]
 8002a50:	f8d8 0000 	ldr.w	r0, [r8]
 8002a54:	f7fd fce8 	bl	8000428 <__aeabi_f2d>
 8002a58:	463b      	mov	r3, r7
 8002a5a:	e9cd 0100 	strd	r0, r1, [sp]
 8002a5e:	4632      	mov	r2, r6
 8002a60:	4917      	ldr	r1, [pc, #92]	; (8002ac0 <main+0x790>)
 8002a62:	a819      	add	r0, sp, #100	; 0x64
 8002a64:	f006 f80c 	bl	8008a80 <siprintf>
 8002a68:	4b16      	ldr	r3, [pc, #88]	; (8002ac4 <main+0x794>)
 8002a6a:	781b      	ldrb	r3, [r3, #0]
 8002a6c:	2b00      	cmp	r3, #0
 8002a6e:	f47f ae13 	bne.w	8002698 <main+0x368>
 8002a72:	e029      	b.n	8002ac8 <main+0x798>
 8002a74:	f3af 8000 	nop.w
 8002a78:	1e7967cb 	.word	0x1e7967cb
 8002a7c:	404ca5dc 	.word	0x404ca5dc
 8002a80:	20002550 	.word	0x20002550
 8002a84:	20002574 	.word	0x20002574
 8002a88:	20000288 	.word	0x20000288
 8002a8c:	20000290 	.word	0x20000290
 8002a90:	20000004 	.word	0x20000004
 8002a94:	2000028c 	.word	0x2000028c
 8002a98:	3ff00000 	.word	0x3ff00000
 8002a9c:	20000014 	.word	0x20000014
 8002aa0:	20000294 	.word	0x20000294
 8002aa4:	200002a8 	.word	0x200002a8
 8002aa8:	200002b0 	.word	0x200002b0
 8002aac:	20000008 	.word	0x20000008
 8002ab0:	20002570 	.word	0x20002570
 8002ab4:	411cf5c3 	.word	0x411cf5c3
 8002ab8:	0800d44c 	.word	0x0800d44c
 8002abc:	200002a4 	.word	0x200002a4
 8002ac0:	0800d45d 	.word	0x0800d45d
 8002ac4:	200012e8 	.word	0x200012e8
 8002ac8:	a819      	add	r0, sp, #100	; 0x64
 8002aca:	f7fd fb41 	bl	8000150 <strlen>
 8002ace:	4b06      	ldr	r3, [pc, #24]	; (8002ae8 <main+0x7b8>)
 8002ad0:	4602      	mov	r2, r0
 8002ad2:	a919      	add	r1, sp, #100	; 0x64
 8002ad4:	4805      	ldr	r0, [pc, #20]	; (8002aec <main+0x7bc>)
 8002ad6:	f005 f8d3 	bl	8007c80 <f_write>
 8002ada:	4b05      	ldr	r3, [pc, #20]	; (8002af0 <main+0x7c0>)
 8002adc:	7018      	strb	r0, [r3, #0]
 8002ade:	4803      	ldr	r0, [pc, #12]	; (8002aec <main+0x7bc>)
 8002ae0:	f005 f9a4 	bl	8007e2c <f_sync>
 8002ae4:	e5d8      	b.n	8002698 <main+0x368>
 8002ae6:	bf00      	nop
 8002ae8:	200002ac 	.word	0x200002ac
 8002aec:	200002b4 	.word	0x200002b4
 8002af0:	200012e8 	.word	0x200012e8

08002af4 <MPU6050_Init>:
 8002af4:	4601      	mov	r1, r0
 8002af6:	2254      	movs	r2, #84	; 0x54
 8002af8:	4801      	ldr	r0, [pc, #4]	; (8002b00 <MPU6050_Init+0xc>)
 8002afa:	f006 b8b1 	b.w	8008c60 <memcpy>
 8002afe:	bf00      	nop
 8002b00:	200025a0 	.word	0x200025a0

08002b04 <I2C_Read>:
 8002b04:	b57f      	push	{r0, r1, r2, r3, r4, r5, r6, lr}
 8002b06:	230a      	movs	r3, #10
 8002b08:	4e0a      	ldr	r6, [pc, #40]	; (8002b34 <I2C_Read+0x30>)
 8002b0a:	460c      	mov	r4, r1
 8002b0c:	4615      	mov	r5, r2
 8002b0e:	f88d 000c 	strb.w	r0, [sp, #12]
 8002b12:	9300      	str	r3, [sp, #0]
 8002b14:	aa03      	add	r2, sp, #12
 8002b16:	2301      	movs	r3, #1
 8002b18:	21d0      	movs	r1, #208	; 0xd0
 8002b1a:	4630      	mov	r0, r6
 8002b1c:	f001 f8ac 	bl	8003c78 <HAL_I2C_Master_Transmit>
 8002b20:	2364      	movs	r3, #100	; 0x64
 8002b22:	4622      	mov	r2, r4
 8002b24:	9300      	str	r3, [sp, #0]
 8002b26:	21d0      	movs	r1, #208	; 0xd0
 8002b28:	462b      	mov	r3, r5
 8002b2a:	4630      	mov	r0, r6
 8002b2c:	f001 f97c 	bl	8003e28 <HAL_I2C_Master_Receive>
 8002b30:	b004      	add	sp, #16
 8002b32:	bd70      	pop	{r4, r5, r6, pc}
 8002b34:	200025a0 	.word	0x200025a0

08002b38 <I2C_Write8>:
 8002b38:	b51f      	push	{r0, r1, r2, r3, r4, lr}
 8002b3a:	2364      	movs	r3, #100	; 0x64
 8002b3c:	f88d 000c 	strb.w	r0, [sp, #12]
 8002b40:	f88d 100d 	strb.w	r1, [sp, #13]
 8002b44:	9300      	str	r3, [sp, #0]
 8002b46:	21d0      	movs	r1, #208	; 0xd0
 8002b48:	2302      	movs	r3, #2
 8002b4a:	aa03      	add	r2, sp, #12
 8002b4c:	4802      	ldr	r0, [pc, #8]	; (8002b58 <I2C_Write8+0x20>)
 8002b4e:	f001 f893 	bl	8003c78 <HAL_I2C_Master_Transmit>
 8002b52:	b005      	add	sp, #20
 8002b54:	f85d fb04 	ldr.w	pc, [sp], #4
 8002b58:	200025a0 	.word	0x200025a0

08002b5c <MPU6050_Set_SMPRT_DIV>:
 8002b5c:	4601      	mov	r1, r0
 8002b5e:	2019      	movs	r0, #25
 8002b60:	f7ff bfea 	b.w	8002b38 <I2C_Write8>

08002b64 <MPU6050_Config>:
 8002b64:	b510      	push	{r4, lr}
 8002b66:	4604      	mov	r4, r0
 8002b68:	2180      	movs	r1, #128	; 0x80
 8002b6a:	206b      	movs	r0, #107	; 0x6b
 8002b6c:	f7ff ffe4 	bl	8002b38 <I2C_Write8>
 8002b70:	2064      	movs	r0, #100	; 0x64
 8002b72:	f000 fc0d 	bl	8003390 <HAL_Delay>
 8002b76:	7821      	ldrb	r1, [r4, #0]
 8002b78:	7923      	ldrb	r3, [r4, #4]
 8002b7a:	f001 0107 	and.w	r1, r1, #7
 8002b7e:	ea41 1183 	orr.w	r1, r1, r3, lsl #6
 8002b82:	f001 01c7 	and.w	r1, r1, #199	; 0xc7
 8002b86:	206b      	movs	r0, #107	; 0x6b
 8002b88:	f7ff ffd6 	bl	8002b38 <I2C_Write8>
 8002b8c:	2064      	movs	r0, #100	; 0x64
 8002b8e:	f000 fbff 	bl	8003390 <HAL_Delay>
 8002b92:	78e1      	ldrb	r1, [r4, #3]
 8002b94:	201a      	movs	r0, #26
 8002b96:	f001 0107 	and.w	r1, r1, #7
 8002b9a:	f7ff ffcd 	bl	8002b38 <I2C_Write8>
 8002b9e:	7861      	ldrb	r1, [r4, #1]
 8002ba0:	201b      	movs	r0, #27
 8002ba2:	00c9      	lsls	r1, r1, #3
 8002ba4:	f001 0118 	and.w	r1, r1, #24
 8002ba8:	f7ff ffc6 	bl	8002b38 <I2C_Write8>
 8002bac:	78a1      	ldrb	r1, [r4, #2]
 8002bae:	201c      	movs	r0, #28
 8002bb0:	00c9      	lsls	r1, r1, #3
 8002bb2:	f001 0118 	and.w	r1, r1, #24
 8002bb6:	f7ff ffbf 	bl	8002b38 <I2C_Write8>
 8002bba:	2004      	movs	r0, #4
 8002bbc:	f7ff ffce 	bl	8002b5c <MPU6050_Set_SMPRT_DIV>
 8002bc0:	78a3      	ldrb	r3, [r4, #2]
 8002bc2:	2b03      	cmp	r3, #3
 8002bc4:	d807      	bhi.n	8002bd6 <MPU6050_Config+0x72>
 8002bc6:	e8df f003 	tbb	[pc, r3]
 8002bca:	0d02      	.short	0x0d02
 8002bcc:	1511      	.short	0x1511
 8002bce:	f04f 5262 	mov.w	r2, #947912704	; 0x38800000
 8002bd2:	4b11      	ldr	r3, [pc, #68]	; (8002c18 <MPU6050_Config+0xb4>)
 8002bd4:	601a      	str	r2, [r3, #0]
 8002bd6:	7863      	ldrb	r3, [r4, #1]
 8002bd8:	2b03      	cmp	r3, #3
 8002bda:	d812      	bhi.n	8002c02 <MPU6050_Config+0x9e>
 8002bdc:	e8df f003 	tbb	[pc, r3]
 8002be0:	1815120e 	.word	0x1815120e
 8002be4:	f04f 5264 	mov.w	r2, #956301312	; 0x39000000
 8002be8:	4b0b      	ldr	r3, [pc, #44]	; (8002c18 <MPU6050_Config+0xb4>)
 8002bea:	e7f3      	b.n	8002bd4 <MPU6050_Config+0x70>
 8002bec:	f04f 5266 	mov.w	r2, #964689920	; 0x39800000
 8002bf0:	4b09      	ldr	r3, [pc, #36]	; (8002c18 <MPU6050_Config+0xb4>)
 8002bf2:	e7ef      	b.n	8002bd4 <MPU6050_Config+0x70>
 8002bf4:	f04f 5268 	mov.w	r2, #973078528	; 0x3a000000
 8002bf8:	4b07      	ldr	r3, [pc, #28]	; (8002c18 <MPU6050_Config+0xb4>)
 8002bfa:	e7eb      	b.n	8002bd4 <MPU6050_Config+0x70>
 8002bfc:	4b07      	ldr	r3, [pc, #28]	; (8002c1c <MPU6050_Config+0xb8>)
 8002bfe:	4a08      	ldr	r2, [pc, #32]	; (8002c20 <MPU6050_Config+0xbc>)
 8002c00:	601a      	str	r2, [r3, #0]
 8002c02:	bd10      	pop	{r4, pc}
 8002c04:	4b05      	ldr	r3, [pc, #20]	; (8002c1c <MPU6050_Config+0xb8>)
 8002c06:	4a07      	ldr	r2, [pc, #28]	; (8002c24 <MPU6050_Config+0xc0>)
 8002c08:	e7fa      	b.n	8002c00 <MPU6050_Config+0x9c>
 8002c0a:	4b04      	ldr	r3, [pc, #16]	; (8002c1c <MPU6050_Config+0xb8>)
 8002c0c:	4a06      	ldr	r2, [pc, #24]	; (8002c28 <MPU6050_Config+0xc4>)
 8002c0e:	e7f7      	b.n	8002c00 <MPU6050_Config+0x9c>
 8002c10:	4b02      	ldr	r3, [pc, #8]	; (8002c1c <MPU6050_Config+0xb8>)
 8002c12:	4a06      	ldr	r2, [pc, #24]	; (8002c2c <MPU6050_Config+0xc8>)
 8002c14:	e7f4      	b.n	8002c00 <MPU6050_Config+0x9c>
 8002c16:	bf00      	nop
 8002c18:	20002598 	.word	0x20002598
 8002c1c:	2000259c 	.word	0x2000259c
 8002c20:	3bfa232d 	.word	0x3bfa232d
 8002c24:	3c7a232d 	.word	0x3c7a232d
 8002c28:	3cf9c190 	.word	0x3cf9c190
 8002c2c:	3d79c190 	.word	0x3d79c190

08002c30 <MPU6050_Get_Accel_RawData>:
 8002c30:	b510      	push	{r4, lr}
 8002c32:	b086      	sub	sp, #24
 8002c34:	4604      	mov	r4, r0
 8002c36:	2201      	movs	r2, #1
 8002c38:	203a      	movs	r0, #58	; 0x3a
 8002c3a:	f10d 0105 	add.w	r1, sp, #5
 8002c3e:	f7ff ff61 	bl	8002b04 <I2C_Read>
 8002c42:	f89d 3005 	ldrb.w	r3, [sp, #5]
 8002c46:	b3a3      	cbz	r3, 8002cb2 <MPU6050_Get_Accel_RawData+0x82>
 8002c48:	2206      	movs	r2, #6
 8002c4a:	203b      	movs	r0, #59	; 0x3b
 8002c4c:	a902      	add	r1, sp, #8
 8002c4e:	f7ff ff59 	bl	8002b04 <I2C_Read>
 8002c52:	f89d 2008 	ldrb.w	r2, [sp, #8]
 8002c56:	f89d 3009 	ldrb.w	r3, [sp, #9]
 8002c5a:	a904      	add	r1, sp, #16
 8002c5c:	eb03 2302 	add.w	r3, r3, r2, lsl #8
 8002c60:	8023      	strh	r3, [r4, #0]
 8002c62:	f89d 200a 	ldrb.w	r2, [sp, #10]
 8002c66:	f89d 300b 	ldrb.w	r3, [sp, #11]
 8002c6a:	2043      	movs	r0, #67	; 0x43
 8002c6c:	eb03 2302 	add.w	r3, r3, r2, lsl #8
 8002c70:	8063      	strh	r3, [r4, #2]
 8002c72:	f89d 200c 	ldrb.w	r2, [sp, #12]
 8002c76:	f89d 300d 	ldrb.w	r3, [sp, #13]
 8002c7a:	eb03 2302 	add.w	r3, r3, r2, lsl #8
 8002c7e:	80a3      	strh	r3, [r4, #4]
 8002c80:	2206      	movs	r2, #6
 8002c82:	f7ff ff3f 	bl	8002b04 <I2C_Read>
 8002c86:	f89d 1010 	ldrb.w	r1, [sp, #16]
 8002c8a:	f89d 2011 	ldrb.w	r2, [sp, #17]
 8002c8e:	4b0a      	ldr	r3, [pc, #40]	; (8002cb8 <MPU6050_Get_Accel_RawData+0x88>)
 8002c90:	eb02 2201 	add.w	r2, r2, r1, lsl #8
 8002c94:	801a      	strh	r2, [r3, #0]
 8002c96:	f89d 1012 	ldrb.w	r1, [sp, #18]
 8002c9a:	f89d 2013 	ldrb.w	r2, [sp, #19]
 8002c9e:	eb02 2201 	add.w	r2, r2, r1, lsl #8
 8002ca2:	805a      	strh	r2, [r3, #2]
 8002ca4:	f89d 1014 	ldrb.w	r1, [sp, #20]
 8002ca8:	f89d 2015 	ldrb.w	r2, [sp, #21]
 8002cac:	eb02 2201 	add.w	r2, r2, r1, lsl #8
 8002cb0:	809a      	strh	r2, [r3, #4]
 8002cb2:	b006      	add	sp, #24
 8002cb4:	bd10      	pop	{r4, pc}
 8002cb6:	bf00      	nop
 8002cb8:	20002590 	.word	0x20002590
 8002cbc:	00000000 	.word	0x00000000

08002cc0 <MPU6050_Get_Accel_Scale>:
 8002cc0:	b537      	push	{r0, r1, r2, r4, r5, lr}
 8002cc2:	4604      	mov	r4, r0
 8002cc4:	4668      	mov	r0, sp
 8002cc6:	f7ff ffb3 	bl	8002c30 <MPU6050_Get_Accel_RawData>
 8002cca:	4b1d      	ldr	r3, [pc, #116]	; (8002d40 <MPU6050_Get_Accel_Scale+0x80>)
 8002ccc:	f9bd 0000 	ldrsh.w	r0, [sp]
 8002cd0:	681d      	ldr	r5, [r3, #0]
 8002cd2:	f7fe f803 	bl	8000cdc <__aeabi_i2f>
 8002cd6:	4629      	mov	r1, r5
 8002cd8:	f7fe f854 	bl	8000d84 <__aeabi_fmul>
 8002cdc:	f7fd fba4 	bl	8000428 <__aeabi_f2d>
 8002ce0:	a315      	add	r3, pc, #84	; (adr r3, 8002d38 <MPU6050_Get_Accel_Scale+0x78>)
 8002ce2:	e9d3 2300 	ldrd	r2, r3, [r3]
 8002ce6:	f7fd fbf7 	bl	80004d8 <__aeabi_dmul>
 8002cea:	f7fd feed 	bl	8000ac8 <__aeabi_d2f>
 8002cee:	6020      	str	r0, [r4, #0]
 8002cf0:	f9bd 0002 	ldrsh.w	r0, [sp, #2]
 8002cf4:	f7fd fff2 	bl	8000cdc <__aeabi_i2f>
 8002cf8:	4629      	mov	r1, r5
 8002cfa:	f7fe f843 	bl	8000d84 <__aeabi_fmul>
 8002cfe:	f7fd fb93 	bl	8000428 <__aeabi_f2d>
 8002d02:	a30d      	add	r3, pc, #52	; (adr r3, 8002d38 <MPU6050_Get_Accel_Scale+0x78>)
 8002d04:	e9d3 2300 	ldrd	r2, r3, [r3]
 8002d08:	f7fd fbe6 	bl	80004d8 <__aeabi_dmul>
 8002d0c:	f7fd fedc 	bl	8000ac8 <__aeabi_d2f>
 8002d10:	6060      	str	r0, [r4, #4]
 8002d12:	f9bd 0004 	ldrsh.w	r0, [sp, #4]
 8002d16:	f7fd ffe1 	bl	8000cdc <__aeabi_i2f>
 8002d1a:	4629      	mov	r1, r5
 8002d1c:	f7fe f832 	bl	8000d84 <__aeabi_fmul>
 8002d20:	f7fd fb82 	bl	8000428 <__aeabi_f2d>
 8002d24:	a304      	add	r3, pc, #16	; (adr r3, 8002d38 <MPU6050_Get_Accel_Scale+0x78>)
 8002d26:	e9d3 2300 	ldrd	r2, r3, [r3]
 8002d2a:	f7fd fbd5 	bl	80004d8 <__aeabi_dmul>
 8002d2e:	f7fd fecb 	bl	8000ac8 <__aeabi_d2f>
 8002d32:	60a0      	str	r0, [r4, #8]
 8002d34:	b003      	add	sp, #12
 8002d36:	bd30      	pop	{r4, r5, pc}
 8002d38:	51eb851f 	.word	0x51eb851f
 8002d3c:	40239eb8 	.word	0x40239eb8
 8002d40:	20002598 	.word	0x20002598

08002d44 <MPU6050_Get_Gyro_RawData>:
 8002d44:	4b03      	ldr	r3, [pc, #12]	; (8002d54 <MPU6050_Get_Gyro_RawData+0x10>)
 8002d46:	881a      	ldrh	r2, [r3, #0]
 8002d48:	8002      	strh	r2, [r0, #0]
 8002d4a:	885a      	ldrh	r2, [r3, #2]
 8002d4c:	889b      	ldrh	r3, [r3, #4]
 8002d4e:	8042      	strh	r2, [r0, #2]
 8002d50:	8083      	strh	r3, [r0, #4]
 8002d52:	4770      	bx	lr
 8002d54:	20002590 	.word	0x20002590

08002d58 <MPU6050_Get_Gyro_Scale>:
 8002d58:	b537      	push	{r0, r1, r2, r4, r5, lr}
 8002d5a:	4604      	mov	r4, r0
 8002d5c:	4668      	mov	r0, sp
 8002d5e:	f7ff fff1 	bl	8002d44 <MPU6050_Get_Gyro_RawData>
 8002d62:	4b12      	ldr	r3, [pc, #72]	; (8002dac <MPU6050_Get_Gyro_Scale+0x54>)
 8002d64:	f9bd 0000 	ldrsh.w	r0, [sp]
 8002d68:	681d      	ldr	r5, [r3, #0]
 8002d6a:	f7fd ffb7 	bl	8000cdc <__aeabi_i2f>
 8002d6e:	4629      	mov	r1, r5
 8002d70:	f7fe f808 	bl	8000d84 <__aeabi_fmul>
 8002d74:	490e      	ldr	r1, [pc, #56]	; (8002db0 <MPU6050_Get_Gyro_Scale+0x58>)
 8002d76:	f7fd fefd 	bl	8000b74 <__addsf3>
 8002d7a:	6020      	str	r0, [r4, #0]
 8002d7c:	f9bd 0002 	ldrsh.w	r0, [sp, #2]
 8002d80:	f7fd ffac 	bl	8000cdc <__aeabi_i2f>
 8002d84:	4629      	mov	r1, r5
 8002d86:	f7fd fffd 	bl	8000d84 <__aeabi_fmul>
 8002d8a:	490a      	ldr	r1, [pc, #40]	; (8002db4 <MPU6050_Get_Gyro_Scale+0x5c>)
 8002d8c:	f7fd fef0 	bl	8000b70 <__aeabi_fsub>
 8002d90:	6060      	str	r0, [r4, #4]
 8002d92:	f9bd 0004 	ldrsh.w	r0, [sp, #4]
 8002d96:	f7fd ffa1 	bl	8000cdc <__aeabi_i2f>
 8002d9a:	4629      	mov	r1, r5
 8002d9c:	f7fd fff2 	bl	8000d84 <__aeabi_fmul>
 8002da0:	4905      	ldr	r1, [pc, #20]	; (8002db8 <MPU6050_Get_Gyro_Scale+0x60>)
 8002da2:	f7fd fee5 	bl	8000b70 <__aeabi_fsub>
 8002da6:	60a0      	str	r0, [r4, #8]
 8002da8:	b003      	add	sp, #12
 8002daa:	bd30      	pop	{r4, r5, pc}
 8002dac:	2000259c 	.word	0x2000259c
 8002db0:	40a07315 	.word	0x40a07315
 8002db4:	408115b8 	.word	0x408115b8
 8002db8:	3e4cd081 	.word	0x3e4cd081

08002dbc <HAL_MspInit>:
 8002dbc:	4b0e      	ldr	r3, [pc, #56]	; (8002df8 <HAL_MspInit+0x3c>)
 8002dbe:	b082      	sub	sp, #8
 8002dc0:	699a      	ldr	r2, [r3, #24]
 8002dc2:	f042 0201 	orr.w	r2, r2, #1
 8002dc6:	619a      	str	r2, [r3, #24]
 8002dc8:	699a      	ldr	r2, [r3, #24]
 8002dca:	f002 0201 	and.w	r2, r2, #1
 8002dce:	9200      	str	r2, [sp, #0]
 8002dd0:	9a00      	ldr	r2, [sp, #0]
 8002dd2:	69da      	ldr	r2, [r3, #28]
 8002dd4:	f042 5280 	orr.w	r2, r2, #268435456	; 0x10000000
 8002dd8:	61da      	str	r2, [r3, #28]
 8002dda:	69db      	ldr	r3, [r3, #28]
 8002ddc:	4a07      	ldr	r2, [pc, #28]	; (8002dfc <HAL_MspInit+0x40>)
 8002dde:	f003 5380 	and.w	r3, r3, #268435456	; 0x10000000
 8002de2:	9301      	str	r3, [sp, #4]
 8002de4:	9b01      	ldr	r3, [sp, #4]
 8002de6:	6853      	ldr	r3, [r2, #4]
 8002de8:	f023 63e0 	bic.w	r3, r3, #117440512	; 0x7000000
 8002dec:	f043 7300 	orr.w	r3, r3, #33554432	; 0x2000000
 8002df0:	6053      	str	r3, [r2, #4]
 8002df2:	b002      	add	sp, #8
 8002df4:	4770      	bx	lr
 8002df6:	bf00      	nop
 8002df8:	40021000 	.word	0x40021000
 8002dfc:	40010000 	.word	0x40010000

08002e00 <HAL_I2C_MspInit>:
 8002e00:	2210      	movs	r2, #16
 8002e02:	b510      	push	{r4, lr}
 8002e04:	4604      	mov	r4, r0
 8002e06:	b088      	sub	sp, #32
 8002e08:	eb0d 0002 	add.w	r0, sp, r2
 8002e0c:	2100      	movs	r1, #0
 8002e0e:	f005 fe9a 	bl	8008b46 <memset>
 8002e12:	6823      	ldr	r3, [r4, #0]
 8002e14:	4a30      	ldr	r2, [pc, #192]	; (8002ed8 <HAL_I2C_MspInit+0xd8>)
 8002e16:	4293      	cmp	r3, r2
 8002e18:	d12e      	bne.n	8002e78 <HAL_I2C_MspInit+0x78>
 8002e1a:	4c30      	ldr	r4, [pc, #192]	; (8002edc <HAL_I2C_MspInit+0xdc>)
 8002e1c:	21c0      	movs	r1, #192	; 0xc0
 8002e1e:	69a3      	ldr	r3, [r4, #24]
 8002e20:	482f      	ldr	r0, [pc, #188]	; (8002ee0 <HAL_I2C_MspInit+0xe0>)
 8002e22:	f043 0308 	orr.w	r3, r3, #8
 8002e26:	61a3      	str	r3, [r4, #24]
 8002e28:	69a3      	ldr	r3, [r4, #24]
 8002e2a:	f003 0308 	and.w	r3, r3, #8
 8002e2e:	9300      	str	r3, [sp, #0]
 8002e30:	9b00      	ldr	r3, [sp, #0]
 8002e32:	2312      	movs	r3, #18
 8002e34:	e9cd 1304 	strd	r1, r3, [sp, #16]
 8002e38:	2303      	movs	r3, #3
 8002e3a:	a904      	add	r1, sp, #16
 8002e3c:	9307      	str	r3, [sp, #28]
 8002e3e:	f000 fb89 	bl	8003554 <HAL_GPIO_Init>
 8002e42:	2200      	movs	r2, #0
 8002e44:	69e3      	ldr	r3, [r4, #28]
 8002e46:	4611      	mov	r1, r2
 8002e48:	f443 1300 	orr.w	r3, r3, #2097152	; 0x200000
 8002e4c:	61e3      	str	r3, [r4, #28]
 8002e4e:	69e3      	ldr	r3, [r4, #28]
 8002e50:	201f      	movs	r0, #31
 8002e52:	f403 1300 	and.w	r3, r3, #2097152	; 0x200000
 8002e56:	9301      	str	r3, [sp, #4]
 8002e58:	9b01      	ldr	r3, [sp, #4]
 8002e5a:	f000 fabd 	bl	80033d8 <HAL_NVIC_SetPriority>
 8002e5e:	201f      	movs	r0, #31
 8002e60:	f000 faea 	bl	8003438 <HAL_NVIC_EnableIRQ>
 8002e64:	2200      	movs	r2, #0
 8002e66:	2020      	movs	r0, #32
 8002e68:	4611      	mov	r1, r2
 8002e6a:	f000 fab5 	bl	80033d8 <HAL_NVIC_SetPriority>
 8002e6e:	2020      	movs	r0, #32
 8002e70:	f000 fae2 	bl	8003438 <HAL_NVIC_EnableIRQ>
 8002e74:	b008      	add	sp, #32
 8002e76:	bd10      	pop	{r4, pc}
 8002e78:	4a1a      	ldr	r2, [pc, #104]	; (8002ee4 <HAL_I2C_MspInit+0xe4>)
 8002e7a:	4293      	cmp	r3, r2
 8002e7c:	d1fa      	bne.n	8002e74 <HAL_I2C_MspInit+0x74>
 8002e7e:	4c17      	ldr	r4, [pc, #92]	; (8002edc <HAL_I2C_MspInit+0xdc>)
 8002e80:	f44f 6240 	mov.w	r2, #3072	; 0xc00
 8002e84:	69a3      	ldr	r3, [r4, #24]
 8002e86:	4816      	ldr	r0, [pc, #88]	; (8002ee0 <HAL_I2C_MspInit+0xe0>)
 8002e88:	f043 0308 	orr.w	r3, r3, #8
 8002e8c:	61a3      	str	r3, [r4, #24]
 8002e8e:	69a3      	ldr	r3, [r4, #24]
 8002e90:	a904      	add	r1, sp, #16
 8002e92:	f003 0308 	and.w	r3, r3, #8
 8002e96:	9302      	str	r3, [sp, #8]
 8002e98:	9b02      	ldr	r3, [sp, #8]
 8002e9a:	2312      	movs	r3, #18
 8002e9c:	e9cd 2304 	strd	r2, r3, [sp, #16]
 8002ea0:	2303      	movs	r3, #3
 8002ea2:	9307      	str	r3, [sp, #28]
 8002ea4:	f000 fb56 	bl	8003554 <HAL_GPIO_Init>
 8002ea8:	2200      	movs	r2, #0
 8002eaa:	69e3      	ldr	r3, [r4, #28]
 8002eac:	4611      	mov	r1, r2
 8002eae:	f443 0380 	orr.w	r3, r3, #4194304	; 0x400000
 8002eb2:	61e3      	str	r3, [r4, #28]
 8002eb4:	69e3      	ldr	r3, [r4, #28]
 8002eb6:	2021      	movs	r0, #33	; 0x21
 8002eb8:	f403 0380 	and.w	r3, r3, #4194304	; 0x400000
 8002ebc:	9303      	str	r3, [sp, #12]
 8002ebe:	9b03      	ldr	r3, [sp, #12]
 8002ec0:	f000 fa8a 	bl	80033d8 <HAL_NVIC_SetPriority>
 8002ec4:	2021      	movs	r0, #33	; 0x21
 8002ec6:	f000 fab7 	bl	8003438 <HAL_NVIC_EnableIRQ>
 8002eca:	2200      	movs	r2, #0
 8002ecc:	2022      	movs	r0, #34	; 0x22
 8002ece:	4611      	mov	r1, r2
 8002ed0:	f000 fa82 	bl	80033d8 <HAL_NVIC_SetPriority>
 8002ed4:	2022      	movs	r0, #34	; 0x22
 8002ed6:	e7cb      	b.n	8002e70 <HAL_I2C_MspInit+0x70>
 8002ed8:	40005400 	.word	0x40005400
 8002edc:	40021000 	.word	0x40021000
 8002ee0:	40010c00 	.word	0x40010c00
 8002ee4:	40005800 	.word	0x40005800

08002ee8 <HAL_SPI_MspInit>:
 8002ee8:	b510      	push	{r4, lr}
 8002eea:	4604      	mov	r4, r0
 8002eec:	b086      	sub	sp, #24
 8002eee:	2210      	movs	r2, #16
 8002ef0:	2100      	movs	r1, #0
 8002ef2:	a802      	add	r0, sp, #8
 8002ef4:	f005 fe27 	bl	8008b46 <memset>
 8002ef8:	6822      	ldr	r2, [r4, #0]
 8002efa:	4b16      	ldr	r3, [pc, #88]	; (8002f54 <HAL_SPI_MspInit+0x6c>)
 8002efc:	429a      	cmp	r2, r3
 8002efe:	d126      	bne.n	8002f4e <HAL_SPI_MspInit+0x66>
 8002f00:	f503 4360 	add.w	r3, r3, #57344	; 0xe000
 8002f04:	699a      	ldr	r2, [r3, #24]
 8002f06:	4814      	ldr	r0, [pc, #80]	; (8002f58 <HAL_SPI_MspInit+0x70>)
 8002f08:	f442 5280 	orr.w	r2, r2, #4096	; 0x1000
 8002f0c:	619a      	str	r2, [r3, #24]
 8002f0e:	699a      	ldr	r2, [r3, #24]
 8002f10:	a902      	add	r1, sp, #8
 8002f12:	f402 5280 	and.w	r2, r2, #4096	; 0x1000
 8002f16:	9200      	str	r2, [sp, #0]
 8002f18:	9a00      	ldr	r2, [sp, #0]
 8002f1a:	699a      	ldr	r2, [r3, #24]
 8002f1c:	f042 0204 	orr.w	r2, r2, #4
 8002f20:	619a      	str	r2, [r3, #24]
 8002f22:	699b      	ldr	r3, [r3, #24]
 8002f24:	22a0      	movs	r2, #160	; 0xa0
 8002f26:	f003 0304 	and.w	r3, r3, #4
 8002f2a:	9301      	str	r3, [sp, #4]
 8002f2c:	9b01      	ldr	r3, [sp, #4]
 8002f2e:	2302      	movs	r3, #2
 8002f30:	e9cd 2302 	strd	r2, r3, [sp, #8]
 8002f34:	2303      	movs	r3, #3
 8002f36:	9305      	str	r3, [sp, #20]
 8002f38:	f000 fb0c 	bl	8003554 <HAL_GPIO_Init>
 8002f3c:	2140      	movs	r1, #64	; 0x40
 8002f3e:	2300      	movs	r3, #0
 8002f40:	4805      	ldr	r0, [pc, #20]	; (8002f58 <HAL_SPI_MspInit+0x70>)
 8002f42:	e9cd 1302 	strd	r1, r3, [sp, #8]
 8002f46:	a902      	add	r1, sp, #8
 8002f48:	9304      	str	r3, [sp, #16]
 8002f4a:	f000 fb03 	bl	8003554 <HAL_GPIO_Init>
 8002f4e:	b006      	add	sp, #24
 8002f50:	bd10      	pop	{r4, pc}
 8002f52:	bf00      	nop
 8002f54:	40013000 	.word	0x40013000
 8002f58:	40010800 	.word	0x40010800

08002f5c <HAL_TIM_Base_MspInit>:
 8002f5c:	6803      	ldr	r3, [r0, #0]
 8002f5e:	b507      	push	{r0, r1, r2, lr}
 8002f60:	f1b3 4f80 	cmp.w	r3, #1073741824	; 0x40000000
 8002f64:	d115      	bne.n	8002f92 <HAL_TIM_Base_MspInit+0x36>
 8002f66:	f503 3304 	add.w	r3, r3, #135168	; 0x21000
 8002f6a:	69da      	ldr	r2, [r3, #28]
 8002f6c:	201c      	movs	r0, #28
 8002f6e:	f042 0201 	orr.w	r2, r2, #1
 8002f72:	61da      	str	r2, [r3, #28]
 8002f74:	2200      	movs	r2, #0
 8002f76:	69db      	ldr	r3, [r3, #28]
 8002f78:	4611      	mov	r1, r2
 8002f7a:	f003 0301 	and.w	r3, r3, #1
 8002f7e:	9300      	str	r3, [sp, #0]
 8002f80:	9b00      	ldr	r3, [sp, #0]
 8002f82:	f000 fa29 	bl	80033d8 <HAL_NVIC_SetPriority>
 8002f86:	201c      	movs	r0, #28
 8002f88:	b003      	add	sp, #12
 8002f8a:	f85d eb04 	ldr.w	lr, [sp], #4
 8002f8e:	f000 ba53 	b.w	8003438 <HAL_NVIC_EnableIRQ>
 8002f92:	4a0b      	ldr	r2, [pc, #44]	; (8002fc0 <HAL_TIM_Base_MspInit+0x64>)
 8002f94:	4293      	cmp	r3, r2
 8002f96:	d110      	bne.n	8002fba <HAL_TIM_Base_MspInit+0x5e>
 8002f98:	4b0a      	ldr	r3, [pc, #40]	; (8002fc4 <HAL_TIM_Base_MspInit+0x68>)
 8002f9a:	201d      	movs	r0, #29
 8002f9c:	69da      	ldr	r2, [r3, #28]
 8002f9e:	f042 0202 	orr.w	r2, r2, #2
 8002fa2:	61da      	str	r2, [r3, #28]
 8002fa4:	2200      	movs	r2, #0
 8002fa6:	69db      	ldr	r3, [r3, #28]
 8002fa8:	4611      	mov	r1, r2
 8002faa:	f003 0302 	and.w	r3, r3, #2
 8002fae:	9301      	str	r3, [sp, #4]
 8002fb0:	9b01      	ldr	r3, [sp, #4]
 8002fb2:	f000 fa11 	bl	80033d8 <HAL_NVIC_SetPriority>
 8002fb6:	201d      	movs	r0, #29
 8002fb8:	e7e6      	b.n	8002f88 <HAL_TIM_Base_MspInit+0x2c>
 8002fba:	b003      	add	sp, #12
 8002fbc:	f85d fb04 	ldr.w	pc, [sp], #4
 8002fc0:	40000400 	.word	0x40000400
 8002fc4:	40021000 	.word	0x40021000

08002fc8 <HAL_TIM_MspPostInit>:
 8002fc8:	b510      	push	{r4, lr}
 8002fca:	4604      	mov	r4, r0
 8002fcc:	b086      	sub	sp, #24
 8002fce:	2210      	movs	r2, #16
 8002fd0:	2100      	movs	r1, #0
 8002fd2:	a802      	add	r0, sp, #8
 8002fd4:	f005 fdb7 	bl	8008b46 <memset>
 8002fd8:	6823      	ldr	r3, [r4, #0]
 8002fda:	f1b3 4f80 	cmp.w	r3, #1073741824	; 0x40000000
 8002fde:	d115      	bne.n	800300c <HAL_TIM_MspPostInit+0x44>
 8002fe0:	f503 3304 	add.w	r3, r3, #135168	; 0x21000
 8002fe4:	699a      	ldr	r2, [r3, #24]
 8002fe6:	2101      	movs	r1, #1
 8002fe8:	f042 0204 	orr.w	r2, r2, #4
 8002fec:	619a      	str	r2, [r3, #24]
 8002fee:	699b      	ldr	r3, [r3, #24]
 8002ff0:	4815      	ldr	r0, [pc, #84]	; (8003048 <HAL_TIM_MspPostInit+0x80>)
 8002ff2:	f003 0304 	and.w	r3, r3, #4
 8002ff6:	9300      	str	r3, [sp, #0]
 8002ff8:	9b00      	ldr	r3, [sp, #0]
 8002ffa:	2302      	movs	r3, #2
 8002ffc:	e9cd 1302 	strd	r1, r3, [sp, #8]
 8003000:	a902      	add	r1, sp, #8
 8003002:	9305      	str	r3, [sp, #20]
 8003004:	f000 faa6 	bl	8003554 <HAL_GPIO_Init>
 8003008:	b006      	add	sp, #24
 800300a:	bd10      	pop	{r4, pc}
 800300c:	4a0f      	ldr	r2, [pc, #60]	; (800304c <HAL_TIM_MspPostInit+0x84>)
 800300e:	4293      	cmp	r3, r2
 8003010:	d1fa      	bne.n	8003008 <HAL_TIM_MspPostInit+0x40>
 8003012:	4b0f      	ldr	r3, [pc, #60]	; (8003050 <HAL_TIM_MspPostInit+0x88>)
 8003014:	480f      	ldr	r0, [pc, #60]	; (8003054 <HAL_TIM_MspPostInit+0x8c>)
 8003016:	699a      	ldr	r2, [r3, #24]
 8003018:	a902      	add	r1, sp, #8
 800301a:	f042 0210 	orr.w	r2, r2, #16
 800301e:	619a      	str	r2, [r3, #24]
 8003020:	699b      	ldr	r3, [r3, #24]
 8003022:	2240      	movs	r2, #64	; 0x40
 8003024:	f003 0310 	and.w	r3, r3, #16
 8003028:	9301      	str	r3, [sp, #4]
 800302a:	9b01      	ldr	r3, [sp, #4]
 800302c:	2302      	movs	r3, #2
 800302e:	e9cd 2302 	strd	r2, r3, [sp, #8]
 8003032:	9305      	str	r3, [sp, #20]
 8003034:	f000 fa8e 	bl	8003554 <HAL_GPIO_Init>
 8003038:	4a07      	ldr	r2, [pc, #28]	; (8003058 <HAL_TIM_MspPostInit+0x90>)
 800303a:	6853      	ldr	r3, [r2, #4]
 800303c:	f043 63e0 	orr.w	r3, r3, #117440512	; 0x7000000
 8003040:	f443 6340 	orr.w	r3, r3, #3072	; 0xc00
 8003044:	6053      	str	r3, [r2, #4]
 8003046:	e7df      	b.n	8003008 <HAL_TIM_MspPostInit+0x40>
 8003048:	40010800 	.word	0x40010800
 800304c:	40000400 	.word	0x40000400
 8003050:	40021000 	.word	0x40021000
 8003054:	40011000 	.word	0x40011000
 8003058:	40010000 	.word	0x40010000

0800305c <HAL_UART_MspInit>:
 800305c:	2210      	movs	r2, #16
 800305e:	b510      	push	{r4, lr}
 8003060:	4604      	mov	r4, r0
 8003062:	b088      	sub	sp, #32
 8003064:	eb0d 0002 	add.w	r0, sp, r2
 8003068:	2100      	movs	r1, #0
 800306a:	f005 fd6c 	bl	8008b46 <memset>
 800306e:	6823      	ldr	r3, [r4, #0]
 8003070:	4a2d      	ldr	r2, [pc, #180]	; (8003128 <HAL_UART_MspInit+0xcc>)
 8003072:	4293      	cmp	r3, r2
 8003074:	d131      	bne.n	80030da <HAL_UART_MspInit+0x7e>
 8003076:	4b2d      	ldr	r3, [pc, #180]	; (800312c <HAL_UART_MspInit+0xd0>)
 8003078:	f44f 7100 	mov.w	r1, #512	; 0x200
 800307c:	699a      	ldr	r2, [r3, #24]
 800307e:	482c      	ldr	r0, [pc, #176]	; (8003130 <HAL_UART_MspInit+0xd4>)
 8003080:	f442 4280 	orr.w	r2, r2, #16384	; 0x4000
 8003084:	619a      	str	r2, [r3, #24]
 8003086:	699a      	ldr	r2, [r3, #24]
 8003088:	2400      	movs	r4, #0
 800308a:	f402 4280 	and.w	r2, r2, #16384	; 0x4000
 800308e:	9200      	str	r2, [sp, #0]
 8003090:	9a00      	ldr	r2, [sp, #0]
 8003092:	699a      	ldr	r2, [r3, #24]
 8003094:	f042 0204 	orr.w	r2, r2, #4
 8003098:	619a      	str	r2, [r3, #24]
 800309a:	699b      	ldr	r3, [r3, #24]
 800309c:	f003 0304 	and.w	r3, r3, #4
 80030a0:	9301      	str	r3, [sp, #4]
 80030a2:	9b01      	ldr	r3, [sp, #4]
 80030a4:	2302      	movs	r3, #2
 80030a6:	e9cd 1304 	strd	r1, r3, [sp, #16]
 80030aa:	2303      	movs	r3, #3
 80030ac:	a904      	add	r1, sp, #16
 80030ae:	9307      	str	r3, [sp, #28]
 80030b0:	f000 fa50 	bl	8003554 <HAL_GPIO_Init>
 80030b4:	f44f 6380 	mov.w	r3, #1024	; 0x400
 80030b8:	481d      	ldr	r0, [pc, #116]	; (8003130 <HAL_UART_MspInit+0xd4>)
 80030ba:	a904      	add	r1, sp, #16
 80030bc:	e9cd 3404 	strd	r3, r4, [sp, #16]
 80030c0:	9406      	str	r4, [sp, #24]
 80030c2:	f000 fa47 	bl	8003554 <HAL_GPIO_Init>
 80030c6:	2025      	movs	r0, #37	; 0x25
 80030c8:	4622      	mov	r2, r4
 80030ca:	4621      	mov	r1, r4
 80030cc:	f000 f984 	bl	80033d8 <HAL_NVIC_SetPriority>
 80030d0:	2025      	movs	r0, #37	; 0x25
 80030d2:	f000 f9b1 	bl	8003438 <HAL_NVIC_EnableIRQ>
 80030d6:	b008      	add	sp, #32
 80030d8:	bd10      	pop	{r4, pc}
 80030da:	4a16      	ldr	r2, [pc, #88]	; (8003134 <HAL_UART_MspInit+0xd8>)
 80030dc:	4293      	cmp	r3, r2
 80030de:	d1fa      	bne.n	80030d6 <HAL_UART_MspInit+0x7a>
 80030e0:	4b12      	ldr	r3, [pc, #72]	; (800312c <HAL_UART_MspInit+0xd0>)
 80030e2:	4813      	ldr	r0, [pc, #76]	; (8003130 <HAL_UART_MspInit+0xd4>)
 80030e4:	69da      	ldr	r2, [r3, #28]
 80030e6:	a904      	add	r1, sp, #16
 80030e8:	f442 3200 	orr.w	r2, r2, #131072	; 0x20000
 80030ec:	61da      	str	r2, [r3, #28]
 80030ee:	69da      	ldr	r2, [r3, #28]
 80030f0:	f402 3200 	and.w	r2, r2, #131072	; 0x20000
 80030f4:	9202      	str	r2, [sp, #8]
 80030f6:	9a02      	ldr	r2, [sp, #8]
 80030f8:	699a      	ldr	r2, [r3, #24]
 80030fa:	f042 0204 	orr.w	r2, r2, #4
 80030fe:	619a      	str	r2, [r3, #24]
 8003100:	699b      	ldr	r3, [r3, #24]
 8003102:	220c      	movs	r2, #12
 8003104:	f003 0304 	and.w	r3, r3, #4
 8003108:	9303      	str	r3, [sp, #12]
 800310a:	9b03      	ldr	r3, [sp, #12]
 800310c:	2302      	movs	r3, #2
 800310e:	e9cd 2304 	strd	r2, r3, [sp, #16]
 8003112:	9307      	str	r3, [sp, #28]
 8003114:	f000 fa1e 	bl	8003554 <HAL_GPIO_Init>
 8003118:	2200      	movs	r2, #0
 800311a:	2026      	movs	r0, #38	; 0x26
 800311c:	4611      	mov	r1, r2
 800311e:	f000 f95b 	bl	80033d8 <HAL_NVIC_SetPriority>
 8003122:	2026      	movs	r0, #38	; 0x26
 8003124:	e7d5      	b.n	80030d2 <HAL_UART_MspInit+0x76>
 8003126:	bf00      	nop
 8003128:	40013800 	.word	0x40013800
 800312c:	40021000 	.word	0x40021000
 8003130:	40010800 	.word	0x40010800
 8003134:	40004400 	.word	0x40004400

08003138 <SDTimer_Handler>:
 8003138:	4a07      	ldr	r2, [pc, #28]	; (8003158 <SDTimer_Handler+0x20>)
 800313a:	7813      	ldrb	r3, [r2, #0]
 800313c:	b11b      	cbz	r3, 8003146 <SDTimer_Handler+0xe>
 800313e:	7813      	ldrb	r3, [r2, #0]
 8003140:	3b01      	subs	r3, #1
 8003142:	b2db      	uxtb	r3, r3
 8003144:	7013      	strb	r3, [r2, #0]
 8003146:	4a05      	ldr	r2, [pc, #20]	; (800315c <SDTimer_Handler+0x24>)
 8003148:	7813      	ldrb	r3, [r2, #0]
 800314a:	b11b      	cbz	r3, 8003154 <SDTimer_Handler+0x1c>
 800314c:	7813      	ldrb	r3, [r2, #0]
 800314e:	3b01      	subs	r3, #1
 8003150:	b2db      	uxtb	r3, r3
 8003152:	7013      	strb	r3, [r2, #0]
 8003154:	4770      	bx	lr
 8003156:	bf00      	nop
 8003158:	200025f5 	.word	0x200025f5
 800315c:	200025f6 	.word	0x200025f6

08003160 <NMI_Handler>:
 8003160:	e7fe      	b.n	8003160 <NMI_Handler>

08003162 <HardFault_Handler>:
 8003162:	e7fe      	b.n	8003162 <HardFault_Handler>

08003164 <MemManage_Handler>:
 8003164:	e7fe      	b.n	8003164 <MemManage_Handler>

08003166 <BusFault_Handler>:
 8003166:	e7fe      	b.n	8003166 <BusFault_Handler>

08003168 <UsageFault_Handler>:
 8003168:	e7fe      	b.n	8003168 <UsageFault_Handler>

0800316a <SVC_Handler>:
 800316a:	4770      	bx	lr

0800316c <DebugMon_Handler>:
 800316c:	4770      	bx	lr

0800316e <PendSV_Handler>:
 800316e:	4770      	bx	lr

08003170 <SysTick_Handler>:
 8003170:	b508      	push	{r3, lr}
 8003172:	4a08      	ldr	r2, [pc, #32]	; (8003194 <SysTick_Handler+0x24>)
 8003174:	7813      	ldrb	r3, [r2, #0]
 8003176:	3301      	adds	r3, #1
 8003178:	b2db      	uxtb	r3, r3
 800317a:	7013      	strb	r3, [r2, #0]
 800317c:	7813      	ldrb	r3, [r2, #0]
 800317e:	2b09      	cmp	r3, #9
 8003180:	d903      	bls.n	800318a <SysTick_Handler+0x1a>
 8003182:	2300      	movs	r3, #0
 8003184:	7013      	strb	r3, [r2, #0]
 8003186:	f7ff ffd7 	bl	8003138 <SDTimer_Handler>
 800318a:	e8bd 4008 	ldmia.w	sp!, {r3, lr}
 800318e:	f000 b8ed 	b.w	800336c <HAL_IncTick>
 8003192:	bf00      	nop
 8003194:	200025f4 	.word	0x200025f4

08003198 <TIM2_IRQHandler>:
 8003198:	4801      	ldr	r0, [pc, #4]	; (80031a0 <TIM2_IRQHandler+0x8>)
 800319a:	f002 bdbf 	b.w	8005d1c <HAL_TIM_IRQHandler>
 800319e:	bf00      	nop
 80031a0:	20002424 	.word	0x20002424

080031a4 <TIM3_IRQHandler>:
 80031a4:	4801      	ldr	r0, [pc, #4]	; (80031ac <TIM3_IRQHandler+0x8>)
 80031a6:	f002 bdb9 	b.w	8005d1c <HAL_TIM_IRQHandler>
 80031aa:	bf00      	nop
 80031ac:	2000246c 	.word	0x2000246c

080031b0 <I2C1_EV_IRQHandler>:
 80031b0:	4801      	ldr	r0, [pc, #4]	; (80031b8 <I2C1_EV_IRQHandler+0x8>)
 80031b2:	f001 bb1d 	b.w	80047f0 <HAL_I2C_EV_IRQHandler>
 80031b6:	bf00      	nop
 80031b8:	20002324 	.word	0x20002324

080031bc <I2C1_ER_IRQHandler>:
 80031bc:	4801      	ldr	r0, [pc, #4]	; (80031c4 <I2C1_ER_IRQHandler+0x8>)
 80031be:	f001 bf5f 	b.w	8005080 <HAL_I2C_ER_IRQHandler>
 80031c2:	bf00      	nop
 80031c4:	20002324 	.word	0x20002324

080031c8 <I2C2_EV_IRQHandler>:
 80031c8:	4801      	ldr	r0, [pc, #4]	; (80031d0 <I2C2_EV_IRQHandler+0x8>)
 80031ca:	f001 bb11 	b.w	80047f0 <HAL_I2C_EV_IRQHandler>
 80031ce:	bf00      	nop
 80031d0:	20002378 	.word	0x20002378

080031d4 <I2C2_ER_IRQHandler>:
 80031d4:	4801      	ldr	r0, [pc, #4]	; (80031dc <I2C2_ER_IRQHandler+0x8>)
 80031d6:	f001 bf53 	b.w	8005080 <HAL_I2C_ER_IRQHandler>
 80031da:	bf00      	nop
 80031dc:	20002378 	.word	0x20002378

080031e0 <USART1_IRQHandler>:
 80031e0:	4801      	ldr	r0, [pc, #4]	; (80031e8 <USART1_IRQHandler+0x8>)
 80031e2:	f003 ba57 	b.w	8006694 <HAL_UART_IRQHandler>
 80031e6:	bf00      	nop
 80031e8:	200024b4 	.word	0x200024b4

080031ec <USART2_IRQHandler>:
 80031ec:	4801      	ldr	r0, [pc, #4]	; (80031f4 <USART2_IRQHandler+0x8>)
 80031ee:	f003 ba51 	b.w	8006694 <HAL_UART_IRQHandler>
 80031f2:	bf00      	nop
 80031f4:	200024fc 	.word	0x200024fc

080031f8 <EXTI15_10_IRQHandler>:
 80031f8:	f44f 5000 	mov.w	r0, #8192	; 0x2000
 80031fc:	f000 ba8a 	b.w	8003714 <HAL_GPIO_EXTI_IRQHandler>

08003200 <_getpid>:
 8003200:	2001      	movs	r0, #1
 8003202:	4770      	bx	lr

08003204 <_kill>:
 8003204:	b508      	push	{r3, lr}
 8003206:	f005 fcf1 	bl	8008bec <__errno>
 800320a:	2316      	movs	r3, #22
 800320c:	6003      	str	r3, [r0, #0]
 800320e:	f04f 30ff 	mov.w	r0, #4294967295
 8003212:	bd08      	pop	{r3, pc}

08003214 <_exit>:
 8003214:	b508      	push	{r3, lr}
 8003216:	f005 fce9 	bl	8008bec <__errno>
 800321a:	2316      	movs	r3, #22
 800321c:	6003      	str	r3, [r0, #0]
 800321e:	e7fe      	b.n	800321e <_exit+0xa>

08003220 <_read>:
 8003220:	b570      	push	{r4, r5, r6, lr}
 8003222:	460d      	mov	r5, r1
 8003224:	4614      	mov	r4, r2
 8003226:	460e      	mov	r6, r1
 8003228:	1b73      	subs	r3, r6, r5
 800322a:	429c      	cmp	r4, r3
 800322c:	dc01      	bgt.n	8003232 <_read+0x12>
 800322e:	4620      	mov	r0, r4
 8003230:	bd70      	pop	{r4, r5, r6, pc}
 8003232:	f3af 8000 	nop.w
 8003236:	f806 0b01 	strb.w	r0, [r6], #1
 800323a:	e7f5      	b.n	8003228 <_read+0x8>

0800323c <_write>:
 800323c:	b570      	push	{r4, r5, r6, lr}
 800323e:	460d      	mov	r5, r1
 8003240:	4614      	mov	r4, r2
 8003242:	460e      	mov	r6, r1
 8003244:	1b73      	subs	r3, r6, r5
 8003246:	429c      	cmp	r4, r3
 8003248:	dc01      	bgt.n	800324e <_write+0x12>
 800324a:	4620      	mov	r0, r4
 800324c:	bd70      	pop	{r4, r5, r6, pc}
 800324e:	f816 0b01 	ldrb.w	r0, [r6], #1
 8003252:	f7fe fceb 	bl	8001c2c <__io_putchar>
 8003256:	e7f5      	b.n	8003244 <_write+0x8>

08003258 <_close>:
 8003258:	f04f 30ff 	mov.w	r0, #4294967295
 800325c:	4770      	bx	lr

0800325e <_fstat>:
 800325e:	f44f 5300 	mov.w	r3, #8192	; 0x2000
 8003262:	2000      	movs	r0, #0
 8003264:	604b      	str	r3, [r1, #4]
 8003266:	4770      	bx	lr

08003268 <_isatty>:
 8003268:	2001      	movs	r0, #1
 800326a:	4770      	bx	lr

0800326c <_lseek>:
 800326c:	2000      	movs	r0, #0
 800326e:	4770      	bx	lr

08003270 <_sbrk>:
 8003270:	4a0b      	ldr	r2, [pc, #44]	; (80032a0 <_sbrk+0x30>)
 8003272:	4603      	mov	r3, r0
 8003274:	6811      	ldr	r1, [r2, #0]
 8003276:	b510      	push	{r4, lr}
 8003278:	b909      	cbnz	r1, 800327e <_sbrk+0xe>
 800327a:	490a      	ldr	r1, [pc, #40]	; (80032a4 <_sbrk+0x34>)
 800327c:	6011      	str	r1, [r2, #0]
 800327e:	6810      	ldr	r0, [r2, #0]
 8003280:	4909      	ldr	r1, [pc, #36]	; (80032a8 <_sbrk+0x38>)
 8003282:	4c0a      	ldr	r4, [pc, #40]	; (80032ac <_sbrk+0x3c>)
 8003284:	4403      	add	r3, r0
 8003286:	1b09      	subs	r1, r1, r4
 8003288:	428b      	cmp	r3, r1
 800328a:	d906      	bls.n	800329a <_sbrk+0x2a>
 800328c:	f005 fcae 	bl	8008bec <__errno>
 8003290:	230c      	movs	r3, #12
 8003292:	6003      	str	r3, [r0, #0]
 8003294:	f04f 30ff 	mov.w	r0, #4294967295
 8003298:	bd10      	pop	{r4, pc}
 800329a:	6013      	str	r3, [r2, #0]
 800329c:	e7fc      	b.n	8003298 <_sbrk+0x28>
 800329e:	bf00      	nop
 80032a0:	200025f8 	.word	0x200025f8
 80032a4:	20002980 	.word	0x20002980
 80032a8:	20005000 	.word	0x20005000
 80032ac:	00000400 	.word	0x00000400

080032b0 <SystemInit>:
 80032b0:	4770      	bx	lr
	...

080032b4 <Reset_Handler>:
 80032b4:	f7ff fffc 	bl	80032b0 <SystemInit>
 80032b8:	480b      	ldr	r0, [pc, #44]	; (80032e8 <LoopFillZerobss+0xe>)
 80032ba:	490c      	ldr	r1, [pc, #48]	; (80032ec <LoopFillZerobss+0x12>)
 80032bc:	4a0c      	ldr	r2, [pc, #48]	; (80032f0 <LoopFillZerobss+0x16>)
 80032be:	2300      	movs	r3, #0
 80032c0:	e002      	b.n	80032c8 <LoopCopyDataInit>

080032c2 <CopyDataInit>:
 80032c2:	58d4      	ldr	r4, [r2, r3]
 80032c4:	50c4      	str	r4, [r0, r3]
 80032c6:	3304      	adds	r3, #4

080032c8 <LoopCopyDataInit>:
 80032c8:	18c4      	adds	r4, r0, r3
 80032ca:	428c      	cmp	r4, r1
 80032cc:	d3f9      	bcc.n	80032c2 <CopyDataInit>
 80032ce:	4a09      	ldr	r2, [pc, #36]	; (80032f4 <LoopFillZerobss+0x1a>)
 80032d0:	4c09      	ldr	r4, [pc, #36]	; (80032f8 <LoopFillZerobss+0x1e>)
 80032d2:	2300      	movs	r3, #0
 80032d4:	e001      	b.n	80032da <LoopFillZerobss>

080032d6 <FillZerobss>:
 80032d6:	6013      	str	r3, [r2, #0]
 80032d8:	3204      	adds	r2, #4

080032da <LoopFillZerobss>:
 80032da:	42a2      	cmp	r2, r4
 80032dc:	d3fb      	bcc.n	80032d6 <FillZerobss>
 80032de:	f005 fc8b 	bl	8008bf8 <__libc_init_array>
 80032e2:	f7ff f825 	bl	8002330 <main>
 80032e6:	4770      	bx	lr
 80032e8:	20000000 	.word	0x20000000
 80032ec:	20000220 	.word	0x20000220
 80032f0:	0800dfe8 	.word	0x0800dfe8
 80032f4:	20000220 	.word	0x20000220
 80032f8:	20002980 	.word	0x20002980

080032fc <ADC1_2_IRQHandler>:
 80032fc:	e7fe      	b.n	80032fc <ADC1_2_IRQHandler>
	...

08003300 <HAL_InitTick>:
 8003300:	b538      	push	{r3, r4, r5, lr}
 8003302:	4b0e      	ldr	r3, [pc, #56]	; (800333c <HAL_InitTick+0x3c>)
 8003304:	4605      	mov	r5, r0
 8003306:	781a      	ldrb	r2, [r3, #0]
 8003308:	f44f 737a 	mov.w	r3, #1000	; 0x3e8
 800330c:	fbb3 f3f2 	udiv	r3, r3, r2
 8003310:	4a0b      	ldr	r2, [pc, #44]	; (8003340 <HAL_InitTick+0x40>)
 8003312:	6810      	ldr	r0, [r2, #0]
 8003314:	fbb0 f0f3 	udiv	r0, r0, r3
 8003318:	f000 f89c 	bl	8003454 <HAL_SYSTICK_Config>
 800331c:	4604      	mov	r4, r0
 800331e:	b958      	cbnz	r0, 8003338 <HAL_InitTick+0x38>
 8003320:	2d0f      	cmp	r5, #15
 8003322:	d809      	bhi.n	8003338 <HAL_InitTick+0x38>
 8003324:	4602      	mov	r2, r0
 8003326:	4629      	mov	r1, r5
 8003328:	f04f 30ff 	mov.w	r0, #4294967295
 800332c:	f000 f854 	bl	80033d8 <HAL_NVIC_SetPriority>
 8003330:	4620      	mov	r0, r4
 8003332:	4b04      	ldr	r3, [pc, #16]	; (8003344 <HAL_InitTick+0x44>)
 8003334:	601d      	str	r5, [r3, #0]
 8003336:	bd38      	pop	{r3, r4, r5, pc}
 8003338:	2001      	movs	r0, #1
 800333a:	e7fc      	b.n	8003336 <HAL_InitTick+0x36>
 800333c:	20000024 	.word	0x20000024
 8003340:	20000020 	.word	0x20000020
 8003344:	20000028 	.word	0x20000028

08003348 <HAL_Init>:
 8003348:	4a07      	ldr	r2, [pc, #28]	; (8003368 <HAL_Init+0x20>)
 800334a:	b508      	push	{r3, lr}
 800334c:	6813      	ldr	r3, [r2, #0]
 800334e:	2003      	movs	r0, #3
 8003350:	f043 0310 	orr.w	r3, r3, #16
 8003354:	6013      	str	r3, [r2, #0]
 8003356:	f000 f82d 	bl	80033b4 <HAL_NVIC_SetPriorityGrouping>
 800335a:	2000      	movs	r0, #0
 800335c:	f7ff ffd0 	bl	8003300 <HAL_InitTick>
 8003360:	f7ff fd2c 	bl	8002dbc <HAL_MspInit>
 8003364:	2000      	movs	r0, #0
 8003366:	bd08      	pop	{r3, pc}
 8003368:	40022000 	.word	0x40022000

0800336c <HAL_IncTick>:
 800336c:	4a03      	ldr	r2, [pc, #12]	; (800337c <HAL_IncTick+0x10>)
 800336e:	4b04      	ldr	r3, [pc, #16]	; (8003380 <HAL_IncTick+0x14>)
 8003370:	6811      	ldr	r1, [r2, #0]
 8003372:	781b      	ldrb	r3, [r3, #0]
 8003374:	440b      	add	r3, r1
 8003376:	6013      	str	r3, [r2, #0]
 8003378:	4770      	bx	lr
 800337a:	bf00      	nop
 800337c:	200025fc 	.word	0x200025fc
 8003380:	20000024 	.word	0x20000024

08003384 <HAL_GetTick>:
 8003384:	4b01      	ldr	r3, [pc, #4]	; (800338c <HAL_GetTick+0x8>)
 8003386:	6818      	ldr	r0, [r3, #0]
 8003388:	4770      	bx	lr
 800338a:	bf00      	nop
 800338c:	200025fc 	.word	0x200025fc

08003390 <HAL_Delay>:
 8003390:	b538      	push	{r3, r4, r5, lr}
 8003392:	4604      	mov	r4, r0
 8003394:	f7ff fff6 	bl	8003384 <HAL_GetTick>
 8003398:	4605      	mov	r5, r0
 800339a:	1c63      	adds	r3, r4, #1
 800339c:	bf1e      	ittt	ne
 800339e:	4b04      	ldrne	r3, [pc, #16]	; (80033b0 <HAL_Delay+0x20>)
 80033a0:	781b      	ldrbne	r3, [r3, #0]
 80033a2:	18e4      	addne	r4, r4, r3
 80033a4:	f7ff ffee 	bl	8003384 <HAL_GetTick>
 80033a8:	1b43      	subs	r3, r0, r5
 80033aa:	42a3      	cmp	r3, r4
 80033ac:	d3fa      	bcc.n	80033a4 <HAL_Delay+0x14>
 80033ae:	bd38      	pop	{r3, r4, r5, pc}
 80033b0:	20000024 	.word	0x20000024

080033b4 <HAL_NVIC_SetPriorityGrouping>:
 80033b4:	4907      	ldr	r1, [pc, #28]	; (80033d4 <HAL_NVIC_SetPriorityGrouping+0x20>)
 80033b6:	0203      	lsls	r3, r0, #8
 80033b8:	68ca      	ldr	r2, [r1, #12]
 80033ba:	f403 63e0 	and.w	r3, r3, #1792	; 0x700
 80033be:	f422 62e0 	bic.w	r2, r2, #1792	; 0x700
 80033c2:	0412      	lsls	r2, r2, #16
 80033c4:	0c12      	lsrs	r2, r2, #16
 80033c6:	4313      	orrs	r3, r2
 80033c8:	f043 63bf 	orr.w	r3, r3, #100139008	; 0x5f80000
 80033cc:	f443 3300 	orr.w	r3, r3, #131072	; 0x20000
 80033d0:	60cb      	str	r3, [r1, #12]
 80033d2:	4770      	bx	lr
 80033d4:	e000ed00 	.word	0xe000ed00

080033d8 <HAL_NVIC_SetPriority>:
 80033d8:	4b15      	ldr	r3, [pc, #84]	; (8003430 <HAL_NVIC_SetPriority+0x58>)
 80033da:	b530      	push	{r4, r5, lr}
 80033dc:	68dc      	ldr	r4, [r3, #12]
 80033de:	f3c4 2402 	ubfx	r4, r4, #8, #3
 80033e2:	f1c4 0307 	rsb	r3, r4, #7
 80033e6:	1d25      	adds	r5, r4, #4
 80033e8:	2b04      	cmp	r3, #4
 80033ea:	bf28      	it	cs
 80033ec:	2304      	movcs	r3, #4
 80033ee:	2d06      	cmp	r5, #6
 80033f0:	f04f 35ff 	mov.w	r5, #4294967295
 80033f4:	bf94      	ite	ls
 80033f6:	2400      	movls	r4, #0
 80033f8:	3c03      	subhi	r4, #3
 80033fa:	fa05 f303 	lsl.w	r3, r5, r3
 80033fe:	ea21 0303 	bic.w	r3, r1, r3
 8003402:	40a5      	lsls	r5, r4
 8003404:	ea22 0205 	bic.w	r2, r2, r5
 8003408:	40a3      	lsls	r3, r4
 800340a:	2800      	cmp	r0, #0
 800340c:	ea43 0302 	orr.w	r3, r3, r2
 8003410:	bfac      	ite	ge
 8003412:	f100 4060 	addge.w	r0, r0, #3758096384	; 0xe0000000
 8003416:	4a07      	ldrlt	r2, [pc, #28]	; (8003434 <HAL_NVIC_SetPriority+0x5c>)
 8003418:	ea4f 1303 	mov.w	r3, r3, lsl #4
 800341c:	b2db      	uxtb	r3, r3
 800341e:	bfab      	itete	ge
 8003420:	f500 4061 	addge.w	r0, r0, #57600	; 0xe100
 8003424:	f000 000f 	andlt.w	r0, r0, #15
 8003428:	f880 3300 	strbge.w	r3, [r0, #768]	; 0x300
 800342c:	5413      	strblt	r3, [r2, r0]
 800342e:	bd30      	pop	{r4, r5, pc}
 8003430:	e000ed00 	.word	0xe000ed00
 8003434:	e000ed14 	.word	0xe000ed14

08003438 <HAL_NVIC_EnableIRQ>:
 8003438:	2800      	cmp	r0, #0
 800343a:	db07      	blt.n	800344c <HAL_NVIC_EnableIRQ+0x14>
 800343c:	2301      	movs	r3, #1
 800343e:	0941      	lsrs	r1, r0, #5
 8003440:	4a03      	ldr	r2, [pc, #12]	; (8003450 <HAL_NVIC_EnableIRQ+0x18>)
 8003442:	f000 001f 	and.w	r0, r0, #31
 8003446:	4083      	lsls	r3, r0
 8003448:	f842 3021 	str.w	r3, [r2, r1, lsl #2]
 800344c:	4770      	bx	lr
 800344e:	bf00      	nop
 8003450:	e000e100 	.word	0xe000e100

08003454 <HAL_SYSTICK_Config>:
 8003454:	3801      	subs	r0, #1
 8003456:	f1b0 7f80 	cmp.w	r0, #16777216	; 0x1000000
 800345a:	d20b      	bcs.n	8003474 <HAL_SYSTICK_Config+0x20>
 800345c:	f04f 23e0 	mov.w	r3, #3758153728	; 0xe000e000
 8003460:	21f0      	movs	r1, #240	; 0xf0
 8003462:	4a05      	ldr	r2, [pc, #20]	; (8003478 <HAL_SYSTICK_Config+0x24>)
 8003464:	6158      	str	r0, [r3, #20]
 8003466:	f882 1023 	strb.w	r1, [r2, #35]	; 0x23
 800346a:	2000      	movs	r0, #0
 800346c:	2207      	movs	r2, #7
 800346e:	6198      	str	r0, [r3, #24]
 8003470:	611a      	str	r2, [r3, #16]
 8003472:	4770      	bx	lr
 8003474:	2001      	movs	r0, #1
 8003476:	4770      	bx	lr
 8003478:	e000ed00 	.word	0xe000ed00

0800347c <HAL_DMA_Abort>:
 800347c:	f890 2021 	ldrb.w	r2, [r0, #33]	; 0x21
 8003480:	4603      	mov	r3, r0
 8003482:	2a02      	cmp	r2, #2
 8003484:	d006      	beq.n	8003494 <HAL_DMA_Abort+0x18>
 8003486:	2204      	movs	r2, #4
 8003488:	6382      	str	r2, [r0, #56]	; 0x38
 800348a:	2001      	movs	r0, #1
 800348c:	2200      	movs	r2, #0
 800348e:	f883 2020 	strb.w	r2, [r3, #32]
 8003492:	4770      	bx	lr
 8003494:	6802      	ldr	r2, [r0, #0]
 8003496:	6bc0      	ldr	r0, [r0, #60]	; 0x3c
 8003498:	6811      	ldr	r1, [r2, #0]
 800349a:	f021 010e 	bic.w	r1, r1, #14
 800349e:	6011      	str	r1, [r2, #0]
 80034a0:	6811      	ldr	r1, [r2, #0]
 80034a2:	f021 0101 	bic.w	r1, r1, #1
 80034a6:	6011      	str	r1, [r2, #0]
 80034a8:	2101      	movs	r1, #1
 80034aa:	6c1a      	ldr	r2, [r3, #64]	; 0x40
 80034ac:	fa01 f202 	lsl.w	r2, r1, r2
 80034b0:	6042      	str	r2, [r0, #4]
 80034b2:	2000      	movs	r0, #0
 80034b4:	f883 1021 	strb.w	r1, [r3, #33]	; 0x21
 80034b8:	e7e8      	b.n	800348c <HAL_DMA_Abort+0x10>
	...

080034bc <HAL_DMA_Abort_IT>:
 80034bc:	b510      	push	{r4, lr}
 80034be:	f890 3021 	ldrb.w	r3, [r0, #33]	; 0x21
 80034c2:	2b02      	cmp	r3, #2
 80034c4:	d003      	beq.n	80034ce <HAL_DMA_Abort_IT+0x12>
 80034c6:	2304      	movs	r3, #4
 80034c8:	6383      	str	r3, [r0, #56]	; 0x38
 80034ca:	2001      	movs	r0, #1
 80034cc:	bd10      	pop	{r4, pc}
 80034ce:	6803      	ldr	r3, [r0, #0]
 80034d0:	681a      	ldr	r2, [r3, #0]
 80034d2:	f022 020e 	bic.w	r2, r2, #14
 80034d6:	601a      	str	r2, [r3, #0]
 80034d8:	681a      	ldr	r2, [r3, #0]
 80034da:	f022 0201 	bic.w	r2, r2, #1
 80034de:	601a      	str	r2, [r3, #0]
 80034e0:	4a18      	ldr	r2, [pc, #96]	; (8003544 <HAL_DMA_Abort_IT+0x88>)
 80034e2:	4293      	cmp	r3, r2
 80034e4:	d01f      	beq.n	8003526 <HAL_DMA_Abort_IT+0x6a>
 80034e6:	3214      	adds	r2, #20
 80034e8:	4293      	cmp	r3, r2
 80034ea:	d01e      	beq.n	800352a <HAL_DMA_Abort_IT+0x6e>
 80034ec:	3214      	adds	r2, #20
 80034ee:	4293      	cmp	r3, r2
 80034f0:	d01d      	beq.n	800352e <HAL_DMA_Abort_IT+0x72>
 80034f2:	3214      	adds	r2, #20
 80034f4:	4293      	cmp	r3, r2
 80034f6:	d01d      	beq.n	8003534 <HAL_DMA_Abort_IT+0x78>
 80034f8:	3214      	adds	r2, #20
 80034fa:	4293      	cmp	r3, r2
 80034fc:	d01d      	beq.n	800353a <HAL_DMA_Abort_IT+0x7e>
 80034fe:	3214      	adds	r2, #20
 8003500:	4293      	cmp	r3, r2
 8003502:	bf0c      	ite	eq
 8003504:	f44f 1380 	moveq.w	r3, #1048576	; 0x100000
 8003508:	f04f 7380 	movne.w	r3, #16777216	; 0x1000000
 800350c:	4a0e      	ldr	r2, [pc, #56]	; (8003548 <HAL_DMA_Abort_IT+0x8c>)
 800350e:	2400      	movs	r4, #0
 8003510:	6053      	str	r3, [r2, #4]
 8003512:	2301      	movs	r3, #1
 8003514:	f880 3021 	strb.w	r3, [r0, #33]	; 0x21
 8003518:	6b43      	ldr	r3, [r0, #52]	; 0x34
 800351a:	f880 4020 	strb.w	r4, [r0, #32]
 800351e:	b17b      	cbz	r3, 8003540 <HAL_DMA_Abort_IT+0x84>
 8003520:	4798      	blx	r3
 8003522:	4620      	mov	r0, r4
 8003524:	e7d2      	b.n	80034cc <HAL_DMA_Abort_IT+0x10>
 8003526:	2301      	movs	r3, #1
 8003528:	e7f0      	b.n	800350c <HAL_DMA_Abort_IT+0x50>
 800352a:	2310      	movs	r3, #16
 800352c:	e7ee      	b.n	800350c <HAL_DMA_Abort_IT+0x50>
 800352e:	f44f 7380 	mov.w	r3, #256	; 0x100
 8003532:	e7eb      	b.n	800350c <HAL_DMA_Abort_IT+0x50>
 8003534:	f44f 5380 	mov.w	r3, #4096	; 0x1000
 8003538:	e7e8      	b.n	800350c <HAL_DMA_Abort_IT+0x50>
 800353a:	f44f 3380 	mov.w	r3, #65536	; 0x10000
 800353e:	e7e5      	b.n	800350c <HAL_DMA_Abort_IT+0x50>
 8003540:	4618      	mov	r0, r3
 8003542:	e7c3      	b.n	80034cc <HAL_DMA_Abort_IT+0x10>
 8003544:	40020008 	.word	0x40020008
 8003548:	40020000 	.word	0x40020000

0800354c <HAL_DMA_GetState>:
 800354c:	f890 0021 	ldrb.w	r0, [r0, #33]	; 0x21
 8003550:	4770      	bx	lr
	...

08003554 <HAL_GPIO_Init>:
 8003554:	e92d 4ff7 	stmdb	sp!, {r0, r1, r2, r4, r5, r6, r7, r8, r9, sl, fp, lr}
 8003558:	2200      	movs	r2, #0
 800355a:	4616      	mov	r6, r2
 800355c:	4f64      	ldr	r7, [pc, #400]	; (80036f0 <HAL_GPIO_Init+0x19c>)
 800355e:	4b65      	ldr	r3, [pc, #404]	; (80036f4 <HAL_GPIO_Init+0x1a0>)
 8003560:	f8df c194 	ldr.w	ip, [pc, #404]	; 80036f8 <HAL_GPIO_Init+0x1a4>
 8003564:	f8df e194 	ldr.w	lr, [pc, #404]	; 80036fc <HAL_GPIO_Init+0x1a8>
 8003568:	680d      	ldr	r5, [r1, #0]
 800356a:	fa35 f406 	lsrs.w	r4, r5, r6
 800356e:	d102      	bne.n	8003576 <HAL_GPIO_Init+0x22>
 8003570:	b003      	add	sp, #12
 8003572:	e8bd 8ff0 	ldmia.w	sp!, {r4, r5, r6, r7, r8, r9, sl, fp, pc}
 8003576:	f04f 0801 	mov.w	r8, #1
 800357a:	fa08 f806 	lsl.w	r8, r8, r6
 800357e:	ea05 0408 	and.w	r4, r5, r8
 8003582:	ea38 0505 	bics.w	r5, r8, r5
 8003586:	d17a      	bne.n	800367e <HAL_GPIO_Init+0x12a>
 8003588:	684d      	ldr	r5, [r1, #4]
 800358a:	2d03      	cmp	r5, #3
 800358c:	d807      	bhi.n	800359e <HAL_GPIO_Init+0x4a>
 800358e:	3d01      	subs	r5, #1
 8003590:	2d02      	cmp	r5, #2
 8003592:	f200 8087 	bhi.w	80036a4 <HAL_GPIO_Init+0x150>
 8003596:	e8df f005 	tbb	[pc, r5]
 800359a:	9a95      	.short	0x9a95
 800359c:	a0          	.byte	0xa0
 800359d:	00          	.byte	0x00
 800359e:	2d12      	cmp	r5, #18
 80035a0:	f000 8098 	beq.w	80036d4 <HAL_GPIO_Init+0x180>
 80035a4:	d86d      	bhi.n	8003682 <HAL_GPIO_Init+0x12e>
 80035a6:	2d11      	cmp	r5, #17
 80035a8:	f000 808e 	beq.w	80036c8 <HAL_GPIO_Init+0x174>
 80035ac:	2cff      	cmp	r4, #255	; 0xff
 80035ae:	bf98      	it	ls
 80035b0:	4682      	movls	sl, r0
 80035b2:	f04f 090f 	mov.w	r9, #15
 80035b6:	bf88      	it	hi
 80035b8:	f100 0a04 	addhi.w	sl, r0, #4
 80035bc:	ea4f 0586 	mov.w	r5, r6, lsl #2
 80035c0:	f8da 8000 	ldr.w	r8, [sl]
 80035c4:	bf88      	it	hi
 80035c6:	3d20      	subhi	r5, #32
 80035c8:	fa09 fb05 	lsl.w	fp, r9, r5
 80035cc:	ea28 080b 	bic.w	r8, r8, fp
 80035d0:	fa02 f505 	lsl.w	r5, r2, r5
 80035d4:	ea48 0505 	orr.w	r5, r8, r5
 80035d8:	f8ca 5000 	str.w	r5, [sl]
 80035dc:	f8d1 a004 	ldr.w	sl, [r1, #4]
 80035e0:	f01a 5f80 	tst.w	sl, #268435456	; 0x10000000
 80035e4:	d04b      	beq.n	800367e <HAL_GPIO_Init+0x12a>
 80035e6:	69bd      	ldr	r5, [r7, #24]
 80035e8:	f026 0803 	bic.w	r8, r6, #3
 80035ec:	f045 0501 	orr.w	r5, r5, #1
 80035f0:	61bd      	str	r5, [r7, #24]
 80035f2:	69bd      	ldr	r5, [r7, #24]
 80035f4:	f108 4880 	add.w	r8, r8, #1073741824	; 0x40000000
 80035f8:	f005 0501 	and.w	r5, r5, #1
 80035fc:	9501      	str	r5, [sp, #4]
 80035fe:	f508 3880 	add.w	r8, r8, #65536	; 0x10000
 8003602:	f006 0b03 	and.w	fp, r6, #3
 8003606:	9d01      	ldr	r5, [sp, #4]
 8003608:	ea4f 0b8b 	mov.w	fp, fp, lsl #2
 800360c:	f8d8 5008 	ldr.w	r5, [r8, #8]
 8003610:	fa09 f90b 	lsl.w	r9, r9, fp
 8003614:	ea25 0909 	bic.w	r9, r5, r9
 8003618:	4d39      	ldr	r5, [pc, #228]	; (8003700 <HAL_GPIO_Init+0x1ac>)
 800361a:	42a8      	cmp	r0, r5
 800361c:	d061      	beq.n	80036e2 <HAL_GPIO_Init+0x18e>
 800361e:	f505 6580 	add.w	r5, r5, #1024	; 0x400
 8003622:	42a8      	cmp	r0, r5
 8003624:	d05f      	beq.n	80036e6 <HAL_GPIO_Init+0x192>
 8003626:	f505 6580 	add.w	r5, r5, #1024	; 0x400
 800362a:	42a8      	cmp	r0, r5
 800362c:	d05d      	beq.n	80036ea <HAL_GPIO_Init+0x196>
 800362e:	f505 6580 	add.w	r5, r5, #1024	; 0x400
 8003632:	42a8      	cmp	r0, r5
 8003634:	bf0c      	ite	eq
 8003636:	2503      	moveq	r5, #3
 8003638:	2504      	movne	r5, #4
 800363a:	fa05 f50b 	lsl.w	r5, r5, fp
 800363e:	ea45 0509 	orr.w	r5, r5, r9
 8003642:	f8c8 5008 	str.w	r5, [r8, #8]
 8003646:	689d      	ldr	r5, [r3, #8]
 8003648:	f41a 1f80 	tst.w	sl, #1048576	; 0x100000
 800364c:	bf14      	ite	ne
 800364e:	4325      	orrne	r5, r4
 8003650:	43a5      	biceq	r5, r4
 8003652:	609d      	str	r5, [r3, #8]
 8003654:	68dd      	ldr	r5, [r3, #12]
 8003656:	f41a 1f00 	tst.w	sl, #2097152	; 0x200000
 800365a:	bf14      	ite	ne
 800365c:	4325      	orrne	r5, r4
 800365e:	43a5      	biceq	r5, r4
 8003660:	60dd      	str	r5, [r3, #12]
 8003662:	685d      	ldr	r5, [r3, #4]
 8003664:	f41a 3f00 	tst.w	sl, #131072	; 0x20000
 8003668:	bf14      	ite	ne
 800366a:	4325      	orrne	r5, r4
 800366c:	43a5      	biceq	r5, r4
 800366e:	605d      	str	r5, [r3, #4]
 8003670:	681d      	ldr	r5, [r3, #0]
 8003672:	f41a 3f80 	tst.w	sl, #65536	; 0x10000
 8003676:	bf14      	ite	ne
 8003678:	4325      	orrne	r5, r4
 800367a:	43a5      	biceq	r5, r4
 800367c:	601d      	str	r5, [r3, #0]
 800367e:	3601      	adds	r6, #1
 8003680:	e772      	b.n	8003568 <HAL_GPIO_Init+0x14>
 8003682:	f8df 9080 	ldr.w	r9, [pc, #128]	; 8003704 <HAL_GPIO_Init+0x1b0>
 8003686:	454d      	cmp	r5, r9
 8003688:	d00c      	beq.n	80036a4 <HAL_GPIO_Init+0x150>
 800368a:	d817      	bhi.n	80036bc <HAL_GPIO_Init+0x168>
 800368c:	f5a9 1980 	sub.w	r9, r9, #1048576	; 0x100000
 8003690:	454d      	cmp	r5, r9
 8003692:	d007      	beq.n	80036a4 <HAL_GPIO_Init+0x150>
 8003694:	f509 2970 	add.w	r9, r9, #983040	; 0xf0000
 8003698:	454d      	cmp	r5, r9
 800369a:	d003      	beq.n	80036a4 <HAL_GPIO_Init+0x150>
 800369c:	f5a9 1980 	sub.w	r9, r9, #1048576	; 0x100000
 80036a0:	454d      	cmp	r5, r9
 80036a2:	d183      	bne.n	80035ac <HAL_GPIO_Init+0x58>
 80036a4:	688a      	ldr	r2, [r1, #8]
 80036a6:	b1d2      	cbz	r2, 80036de <HAL_GPIO_Init+0x18a>
 80036a8:	2a01      	cmp	r2, #1
 80036aa:	bf08      	it	eq
 80036ac:	f8c0 8010 	streq.w	r8, [r0, #16]
 80036b0:	f04f 0208 	mov.w	r2, #8
 80036b4:	bf18      	it	ne
 80036b6:	f8c0 8014 	strne.w	r8, [r0, #20]
 80036ba:	e777      	b.n	80035ac <HAL_GPIO_Init+0x58>
 80036bc:	4565      	cmp	r5, ip
 80036be:	d0f1      	beq.n	80036a4 <HAL_GPIO_Init+0x150>
 80036c0:	4575      	cmp	r5, lr
 80036c2:	e7ee      	b.n	80036a2 <HAL_GPIO_Init+0x14e>
 80036c4:	68ca      	ldr	r2, [r1, #12]
 80036c6:	e771      	b.n	80035ac <HAL_GPIO_Init+0x58>
 80036c8:	68ca      	ldr	r2, [r1, #12]
 80036ca:	3204      	adds	r2, #4
 80036cc:	e76e      	b.n	80035ac <HAL_GPIO_Init+0x58>
 80036ce:	68ca      	ldr	r2, [r1, #12]
 80036d0:	3208      	adds	r2, #8
 80036d2:	e76b      	b.n	80035ac <HAL_GPIO_Init+0x58>
 80036d4:	68ca      	ldr	r2, [r1, #12]
 80036d6:	320c      	adds	r2, #12
 80036d8:	e768      	b.n	80035ac <HAL_GPIO_Init+0x58>
 80036da:	2200      	movs	r2, #0
 80036dc:	e766      	b.n	80035ac <HAL_GPIO_Init+0x58>
 80036de:	2204      	movs	r2, #4
 80036e0:	e764      	b.n	80035ac <HAL_GPIO_Init+0x58>
 80036e2:	2500      	movs	r5, #0
 80036e4:	e7a9      	b.n	800363a <HAL_GPIO_Init+0xe6>
 80036e6:	2501      	movs	r5, #1
 80036e8:	e7a7      	b.n	800363a <HAL_GPIO_Init+0xe6>
 80036ea:	2502      	movs	r5, #2
 80036ec:	e7a5      	b.n	800363a <HAL_GPIO_Init+0xe6>
 80036ee:	bf00      	nop
 80036f0:	40021000 	.word	0x40021000
 80036f4:	40010400 	.word	0x40010400
 80036f8:	10310000 	.word	0x10310000
 80036fc:	10320000 	.word	0x10320000
 8003700:	40010800 	.word	0x40010800
 8003704:	10220000 	.word	0x10220000

08003708 <HAL_GPIO_WritePin>:
 8003708:	b10a      	cbz	r2, 800370e <HAL_GPIO_WritePin+0x6>
 800370a:	6101      	str	r1, [r0, #16]
 800370c:	4770      	bx	lr
 800370e:	0409      	lsls	r1, r1, #16
 8003710:	e7fb      	b.n	800370a <HAL_GPIO_WritePin+0x2>

08003712 <HAL_GPIO_EXTI_Callback>:
 8003712:	4770      	bx	lr

08003714 <HAL_GPIO_EXTI_IRQHandler>:
 8003714:	4a04      	ldr	r2, [pc, #16]	; (8003728 <HAL_GPIO_EXTI_IRQHandler+0x14>)
 8003716:	b508      	push	{r3, lr}
 8003718:	6951      	ldr	r1, [r2, #20]
 800371a:	4201      	tst	r1, r0
 800371c:	d002      	beq.n	8003724 <HAL_GPIO_EXTI_IRQHandler+0x10>
 800371e:	6150      	str	r0, [r2, #20]
 8003720:	f7ff fff7 	bl	8003712 <HAL_GPIO_EXTI_Callback>
 8003724:	bd08      	pop	{r3, pc}
 8003726:	bf00      	nop
 8003728:	40010400 	.word	0x40010400

0800372c <I2C_IsAcknowledgeFailed>:
 800372c:	6801      	ldr	r1, [r0, #0]
 800372e:	2200      	movs	r2, #0
 8003730:	694b      	ldr	r3, [r1, #20]
 8003732:	f413 6380 	ands.w	r3, r3, #1024	; 0x400
 8003736:	d010      	beq.n	800375a <I2C_IsAcknowledgeFailed+0x2e>
 8003738:	f46f 6380 	mvn.w	r3, #1024	; 0x400
 800373c:	614b      	str	r3, [r1, #20]
 800373e:	2320      	movs	r3, #32
 8003740:	6302      	str	r2, [r0, #48]	; 0x30
 8003742:	f880 303d 	strb.w	r3, [r0, #61]	; 0x3d
 8003746:	f880 203e 	strb.w	r2, [r0, #62]	; 0x3e
 800374a:	6c03      	ldr	r3, [r0, #64]	; 0x40
 800374c:	f880 203c 	strb.w	r2, [r0, #60]	; 0x3c
 8003750:	f043 0304 	orr.w	r3, r3, #4
 8003754:	6403      	str	r3, [r0, #64]	; 0x40
 8003756:	2001      	movs	r0, #1
 8003758:	4770      	bx	lr
 800375a:	4618      	mov	r0, r3
 800375c:	4770      	bx	lr

0800375e <I2C_WaitOnFlagUntilTimeout>:
 800375e:	e92d 46f8 	stmdb	sp!, {r3, r4, r5, r6, r7, r9, sl, lr}
 8003762:	4606      	mov	r6, r0
 8003764:	460f      	mov	r7, r1
 8003766:	4691      	mov	r9, r2
 8003768:	461d      	mov	r5, r3
 800376a:	ea4f 4a11 	mov.w	sl, r1, lsr #16
 800376e:	6833      	ldr	r3, [r6, #0]
 8003770:	f1ba 0f01 	cmp.w	sl, #1
 8003774:	bf0c      	ite	eq
 8003776:	695c      	ldreq	r4, [r3, #20]
 8003778:	699c      	ldrne	r4, [r3, #24]
 800377a:	ea27 0404 	bic.w	r4, r7, r4
 800377e:	b2a4      	uxth	r4, r4
 8003780:	fab4 f484 	clz	r4, r4
 8003784:	0964      	lsrs	r4, r4, #5
 8003786:	45a1      	cmp	r9, r4
 8003788:	d001      	beq.n	800378e <I2C_WaitOnFlagUntilTimeout+0x30>
 800378a:	2000      	movs	r0, #0
 800378c:	e025      	b.n	80037da <I2C_WaitOnFlagUntilTimeout+0x7c>
 800378e:	1c6a      	adds	r2, r5, #1
 8003790:	d0ee      	beq.n	8003770 <I2C_WaitOnFlagUntilTimeout+0x12>
 8003792:	f7ff fdf7 	bl	8003384 <HAL_GetTick>
 8003796:	9b08      	ldr	r3, [sp, #32]
 8003798:	1ac0      	subs	r0, r0, r3
 800379a:	42a8      	cmp	r0, r5
 800379c:	d801      	bhi.n	80037a2 <I2C_WaitOnFlagUntilTimeout+0x44>
 800379e:	2d00      	cmp	r5, #0
 80037a0:	d1e5      	bne.n	800376e <I2C_WaitOnFlagUntilTimeout+0x10>
 80037a2:	6833      	ldr	r3, [r6, #0]
 80037a4:	f1ba 0f01 	cmp.w	sl, #1
 80037a8:	bf0c      	ite	eq
 80037aa:	695b      	ldreq	r3, [r3, #20]
 80037ac:	699b      	ldrne	r3, [r3, #24]
 80037ae:	ea27 0303 	bic.w	r3, r7, r3
 80037b2:	b29b      	uxth	r3, r3
 80037b4:	fab3 f383 	clz	r3, r3
 80037b8:	095b      	lsrs	r3, r3, #5
 80037ba:	4599      	cmp	r9, r3
 80037bc:	d1d7      	bne.n	800376e <I2C_WaitOnFlagUntilTimeout+0x10>
 80037be:	2300      	movs	r3, #0
 80037c0:	2220      	movs	r2, #32
 80037c2:	2001      	movs	r0, #1
 80037c4:	6333      	str	r3, [r6, #48]	; 0x30
 80037c6:	f886 203d 	strb.w	r2, [r6, #61]	; 0x3d
 80037ca:	f886 303e 	strb.w	r3, [r6, #62]	; 0x3e
 80037ce:	6c32      	ldr	r2, [r6, #64]	; 0x40
 80037d0:	f886 303c 	strb.w	r3, [r6, #60]	; 0x3c
 80037d4:	f042 0220 	orr.w	r2, r2, #32
 80037d8:	6432      	str	r2, [r6, #64]	; 0x40
 80037da:	e8bd 86f8 	ldmia.w	sp!, {r3, r4, r5, r6, r7, r9, sl, pc}

080037de <I2C_WaitOnMasterAddressFlagUntilTimeout>:
 80037de:	e92d 41f0 	stmdb	sp!, {r4, r5, r6, r7, r8, lr}
 80037e2:	4604      	mov	r4, r0
 80037e4:	460f      	mov	r7, r1
 80037e6:	4616      	mov	r6, r2
 80037e8:	4698      	mov	r8, r3
 80037ea:	6825      	ldr	r5, [r4, #0]
 80037ec:	6968      	ldr	r0, [r5, #20]
 80037ee:	ea27 0000 	bic.w	r0, r7, r0
 80037f2:	b280      	uxth	r0, r0
 80037f4:	b1b8      	cbz	r0, 8003826 <I2C_WaitOnMasterAddressFlagUntilTimeout+0x48>
 80037f6:	696b      	ldr	r3, [r5, #20]
 80037f8:	055a      	lsls	r2, r3, #21
 80037fa:	d516      	bpl.n	800382a <I2C_WaitOnMasterAddressFlagUntilTimeout+0x4c>
 80037fc:	682b      	ldr	r3, [r5, #0]
 80037fe:	2220      	movs	r2, #32
 8003800:	f443 7300 	orr.w	r3, r3, #512	; 0x200
 8003804:	602b      	str	r3, [r5, #0]
 8003806:	f46f 6380 	mvn.w	r3, #1024	; 0x400
 800380a:	616b      	str	r3, [r5, #20]
 800380c:	2300      	movs	r3, #0
 800380e:	6323      	str	r3, [r4, #48]	; 0x30
 8003810:	f884 203d 	strb.w	r2, [r4, #61]	; 0x3d
 8003814:	f884 303e 	strb.w	r3, [r4, #62]	; 0x3e
 8003818:	6c22      	ldr	r2, [r4, #64]	; 0x40
 800381a:	f042 0204 	orr.w	r2, r2, #4
 800381e:	2001      	movs	r0, #1
 8003820:	6422      	str	r2, [r4, #64]	; 0x40
 8003822:	f884 303c 	strb.w	r3, [r4, #60]	; 0x3c
 8003826:	e8bd 81f0 	ldmia.w	sp!, {r4, r5, r6, r7, r8, pc}
 800382a:	1c73      	adds	r3, r6, #1
 800382c:	d0de      	beq.n	80037ec <I2C_WaitOnMasterAddressFlagUntilTimeout+0xe>
 800382e:	f7ff fda9 	bl	8003384 <HAL_GetTick>
 8003832:	eba0 0008 	sub.w	r0, r0, r8
 8003836:	42b0      	cmp	r0, r6
 8003838:	d801      	bhi.n	800383e <I2C_WaitOnMasterAddressFlagUntilTimeout+0x60>
 800383a:	2e00      	cmp	r6, #0
 800383c:	d1d5      	bne.n	80037ea <I2C_WaitOnMasterAddressFlagUntilTimeout+0xc>
 800383e:	6823      	ldr	r3, [r4, #0]
 8003840:	695a      	ldr	r2, [r3, #20]
 8003842:	ea27 0202 	bic.w	r2, r7, r2
 8003846:	b292      	uxth	r2, r2
 8003848:	2a00      	cmp	r2, #0
 800384a:	d0ce      	beq.n	80037ea <I2C_WaitOnMasterAddressFlagUntilTimeout+0xc>
 800384c:	2300      	movs	r3, #0
 800384e:	2220      	movs	r2, #32
 8003850:	6323      	str	r3, [r4, #48]	; 0x30
 8003852:	f884 203d 	strb.w	r2, [r4, #61]	; 0x3d
 8003856:	f884 303e 	strb.w	r3, [r4, #62]	; 0x3e
 800385a:	6c22      	ldr	r2, [r4, #64]	; 0x40
 800385c:	f042 0220 	orr.w	r2, r2, #32
 8003860:	e7dd      	b.n	800381e <I2C_WaitOnMasterAddressFlagUntilTimeout+0x40>

08003862 <I2C_WaitOnTXEFlagUntilTimeout>:
 8003862:	b570      	push	{r4, r5, r6, lr}
 8003864:	4604      	mov	r4, r0
 8003866:	460d      	mov	r5, r1
 8003868:	4616      	mov	r6, r2
 800386a:	6823      	ldr	r3, [r4, #0]
 800386c:	695b      	ldr	r3, [r3, #20]
 800386e:	061b      	lsls	r3, r3, #24
 8003870:	d501      	bpl.n	8003876 <I2C_WaitOnTXEFlagUntilTimeout+0x14>
 8003872:	2000      	movs	r0, #0
 8003874:	bd70      	pop	{r4, r5, r6, pc}
 8003876:	4620      	mov	r0, r4
 8003878:	f7ff ff58 	bl	800372c <I2C_IsAcknowledgeFailed>
 800387c:	b9c8      	cbnz	r0, 80038b2 <I2C_WaitOnTXEFlagUntilTimeout+0x50>
 800387e:	1c6a      	adds	r2, r5, #1
 8003880:	d0f3      	beq.n	800386a <I2C_WaitOnTXEFlagUntilTimeout+0x8>
 8003882:	f7ff fd7f 	bl	8003384 <HAL_GetTick>
 8003886:	1b80      	subs	r0, r0, r6
 8003888:	42a8      	cmp	r0, r5
 800388a:	d801      	bhi.n	8003890 <I2C_WaitOnTXEFlagUntilTimeout+0x2e>
 800388c:	2d00      	cmp	r5, #0
 800388e:	d1ec      	bne.n	800386a <I2C_WaitOnTXEFlagUntilTimeout+0x8>
 8003890:	6823      	ldr	r3, [r4, #0]
 8003892:	695b      	ldr	r3, [r3, #20]
 8003894:	f013 0380 	ands.w	r3, r3, #128	; 0x80
 8003898:	d1e7      	bne.n	800386a <I2C_WaitOnTXEFlagUntilTimeout+0x8>
 800389a:	2220      	movs	r2, #32
 800389c:	6323      	str	r3, [r4, #48]	; 0x30
 800389e:	f884 203d 	strb.w	r2, [r4, #61]	; 0x3d
 80038a2:	f884 303e 	strb.w	r3, [r4, #62]	; 0x3e
 80038a6:	6c22      	ldr	r2, [r4, #64]	; 0x40
 80038a8:	f884 303c 	strb.w	r3, [r4, #60]	; 0x3c
 80038ac:	f042 0220 	orr.w	r2, r2, #32
 80038b0:	6422      	str	r2, [r4, #64]	; 0x40
 80038b2:	2001      	movs	r0, #1
 80038b4:	e7de      	b.n	8003874 <I2C_WaitOnTXEFlagUntilTimeout+0x12>
	...

080038b8 <I2C_RequestMemoryWrite>:
 80038b8:	e92d 43f0 	stmdb	sp!, {r4, r5, r6, r7, r8, r9, lr}
 80038bc:	4615      	mov	r5, r2
 80038be:	6802      	ldr	r2, [r0, #0]
 80038c0:	4699      	mov	r9, r3
 80038c2:	6813      	ldr	r3, [r2, #0]
 80038c4:	b085      	sub	sp, #20
 80038c6:	f443 7380 	orr.w	r3, r3, #256	; 0x100
 80038ca:	6013      	str	r3, [r2, #0]
 80038cc:	e9dd 780c 	ldrd	r7, r8, [sp, #48]	; 0x30
 80038d0:	460e      	mov	r6, r1
 80038d2:	463b      	mov	r3, r7
 80038d4:	2200      	movs	r2, #0
 80038d6:	f04f 1101 	mov.w	r1, #65537	; 0x10001
 80038da:	f8cd 8000 	str.w	r8, [sp]
 80038de:	4604      	mov	r4, r0
 80038e0:	f7ff ff3d 	bl	800375e <I2C_WaitOnFlagUntilTimeout>
 80038e4:	6823      	ldr	r3, [r4, #0]
 80038e6:	b138      	cbz	r0, 80038f8 <I2C_RequestMemoryWrite+0x40>
 80038e8:	681b      	ldr	r3, [r3, #0]
 80038ea:	05db      	lsls	r3, r3, #23
 80038ec:	d502      	bpl.n	80038f4 <I2C_RequestMemoryWrite+0x3c>
 80038ee:	f44f 7300 	mov.w	r3, #512	; 0x200
 80038f2:	6423      	str	r3, [r4, #64]	; 0x40
 80038f4:	2003      	movs	r0, #3
 80038f6:	e00a      	b.n	800390e <I2C_RequestMemoryWrite+0x56>
 80038f8:	f006 06fe 	and.w	r6, r6, #254	; 0xfe
 80038fc:	611e      	str	r6, [r3, #16]
 80038fe:	463a      	mov	r2, r7
 8003900:	4643      	mov	r3, r8
 8003902:	4620      	mov	r0, r4
 8003904:	4917      	ldr	r1, [pc, #92]	; (8003964 <I2C_RequestMemoryWrite+0xac>)
 8003906:	f7ff ff6a 	bl	80037de <I2C_WaitOnMasterAddressFlagUntilTimeout>
 800390a:	b118      	cbz	r0, 8003914 <I2C_RequestMemoryWrite+0x5c>
 800390c:	2001      	movs	r0, #1
 800390e:	b005      	add	sp, #20
 8003910:	e8bd 83f0 	ldmia.w	sp!, {r4, r5, r6, r7, r8, r9, pc}
 8003914:	6823      	ldr	r3, [r4, #0]
 8003916:	9003      	str	r0, [sp, #12]
 8003918:	695a      	ldr	r2, [r3, #20]
 800391a:	4639      	mov	r1, r7
 800391c:	9203      	str	r2, [sp, #12]
 800391e:	699b      	ldr	r3, [r3, #24]
 8003920:	4642      	mov	r2, r8
 8003922:	9303      	str	r3, [sp, #12]
 8003924:	4620      	mov	r0, r4
 8003926:	9b03      	ldr	r3, [sp, #12]
 8003928:	f7ff ff9b 	bl	8003862 <I2C_WaitOnTXEFlagUntilTimeout>
 800392c:	b140      	cbz	r0, 8003940 <I2C_RequestMemoryWrite+0x88>
 800392e:	6c23      	ldr	r3, [r4, #64]	; 0x40
 8003930:	2b04      	cmp	r3, #4
 8003932:	bf01      	itttt	eq
 8003934:	6822      	ldreq	r2, [r4, #0]
 8003936:	6813      	ldreq	r3, [r2, #0]
 8003938:	f443 7300 	orreq.w	r3, r3, #512	; 0x200
 800393c:	6013      	streq	r3, [r2, #0]
 800393e:	e7e5      	b.n	800390c <I2C_RequestMemoryWrite+0x54>
 8003940:	f1b9 0f01 	cmp.w	r9, #1
 8003944:	6823      	ldr	r3, [r4, #0]
 8003946:	d102      	bne.n	800394e <I2C_RequestMemoryWrite+0x96>
 8003948:	b2ed      	uxtb	r5, r5
 800394a:	611d      	str	r5, [r3, #16]
 800394c:	e7df      	b.n	800390e <I2C_RequestMemoryWrite+0x56>
 800394e:	0a2a      	lsrs	r2, r5, #8
 8003950:	611a      	str	r2, [r3, #16]
 8003952:	4639      	mov	r1, r7
 8003954:	4642      	mov	r2, r8
 8003956:	4620      	mov	r0, r4
 8003958:	f7ff ff83 	bl	8003862 <I2C_WaitOnTXEFlagUntilTimeout>
 800395c:	2800      	cmp	r0, #0
 800395e:	d1e6      	bne.n	800392e <I2C_RequestMemoryWrite+0x76>
 8003960:	6823      	ldr	r3, [r4, #0]
 8003962:	e7f1      	b.n	8003948 <I2C_RequestMemoryWrite+0x90>
 8003964:	00010002 	.word	0x00010002

08003968 <I2C_RequestMemoryRead>:
 8003968:	e92d 47ff 	stmdb	sp!, {r0, r1, r2, r3, r4, r5, r6, r7, r8, r9, sl, lr}
 800396c:	469a      	mov	sl, r3
 800396e:	e9dd 780c 	ldrd	r7, r8, [sp, #48]	; 0x30
 8003972:	6803      	ldr	r3, [r0, #0]
 8003974:	4615      	mov	r5, r2
 8003976:	681a      	ldr	r2, [r3, #0]
 8003978:	460e      	mov	r6, r1
 800397a:	f442 6280 	orr.w	r2, r2, #1024	; 0x400
 800397e:	601a      	str	r2, [r3, #0]
 8003980:	681a      	ldr	r2, [r3, #0]
 8003982:	f04f 1101 	mov.w	r1, #65537	; 0x10001
 8003986:	f442 7280 	orr.w	r2, r2, #256	; 0x100
 800398a:	601a      	str	r2, [r3, #0]
 800398c:	463b      	mov	r3, r7
 800398e:	2200      	movs	r2, #0
 8003990:	f8cd 8000 	str.w	r8, [sp]
 8003994:	4604      	mov	r4, r0
 8003996:	f7ff fee2 	bl	800375e <I2C_WaitOnFlagUntilTimeout>
 800399a:	6823      	ldr	r3, [r4, #0]
 800399c:	b148      	cbz	r0, 80039b2 <I2C_RequestMemoryRead+0x4a>
 800399e:	681b      	ldr	r3, [r3, #0]
 80039a0:	05db      	lsls	r3, r3, #23
 80039a2:	d502      	bpl.n	80039aa <I2C_RequestMemoryRead+0x42>
 80039a4:	f44f 7300 	mov.w	r3, #512	; 0x200
 80039a8:	6423      	str	r3, [r4, #64]	; 0x40
 80039aa:	2003      	movs	r0, #3
 80039ac:	b004      	add	sp, #16
 80039ae:	e8bd 87f0 	ldmia.w	sp!, {r4, r5, r6, r7, r8, r9, sl, pc}
 80039b2:	fa5f f986 	uxtb.w	r9, r6
 80039b6:	f006 06fe 	and.w	r6, r6, #254	; 0xfe
 80039ba:	611e      	str	r6, [r3, #16]
 80039bc:	463a      	mov	r2, r7
 80039be:	4643      	mov	r3, r8
 80039c0:	4620      	mov	r0, r4
 80039c2:	4929      	ldr	r1, [pc, #164]	; (8003a68 <I2C_RequestMemoryRead+0x100>)
 80039c4:	f7ff ff0b 	bl	80037de <I2C_WaitOnMasterAddressFlagUntilTimeout>
 80039c8:	b108      	cbz	r0, 80039ce <I2C_RequestMemoryRead+0x66>
 80039ca:	2001      	movs	r0, #1
 80039cc:	e7ee      	b.n	80039ac <I2C_RequestMemoryRead+0x44>
 80039ce:	6823      	ldr	r3, [r4, #0]
 80039d0:	9003      	str	r0, [sp, #12]
 80039d2:	695a      	ldr	r2, [r3, #20]
 80039d4:	4639      	mov	r1, r7
 80039d6:	9203      	str	r2, [sp, #12]
 80039d8:	699b      	ldr	r3, [r3, #24]
 80039da:	4642      	mov	r2, r8
 80039dc:	9303      	str	r3, [sp, #12]
 80039de:	4620      	mov	r0, r4
 80039e0:	9b03      	ldr	r3, [sp, #12]
 80039e2:	f7ff ff3e 	bl	8003862 <I2C_WaitOnTXEFlagUntilTimeout>
 80039e6:	b140      	cbz	r0, 80039fa <I2C_RequestMemoryRead+0x92>
 80039e8:	6c23      	ldr	r3, [r4, #64]	; 0x40
 80039ea:	2b04      	cmp	r3, #4
 80039ec:	bf01      	itttt	eq
 80039ee:	6822      	ldreq	r2, [r4, #0]
 80039f0:	6813      	ldreq	r3, [r2, #0]
 80039f2:	f443 7300 	orreq.w	r3, r3, #512	; 0x200
 80039f6:	6013      	streq	r3, [r2, #0]
 80039f8:	e7e7      	b.n	80039ca <I2C_RequestMemoryRead+0x62>
 80039fa:	f1ba 0f01 	cmp.w	sl, #1
 80039fe:	6823      	ldr	r3, [r4, #0]
 8003a00:	d11a      	bne.n	8003a38 <I2C_RequestMemoryRead+0xd0>
 8003a02:	b2ed      	uxtb	r5, r5
 8003a04:	4642      	mov	r2, r8
 8003a06:	4639      	mov	r1, r7
 8003a08:	4620      	mov	r0, r4
 8003a0a:	611d      	str	r5, [r3, #16]
 8003a0c:	f7ff ff29 	bl	8003862 <I2C_WaitOnTXEFlagUntilTimeout>
 8003a10:	4602      	mov	r2, r0
 8003a12:	2800      	cmp	r0, #0
 8003a14:	d1e8      	bne.n	80039e8 <I2C_RequestMemoryRead+0x80>
 8003a16:	6821      	ldr	r1, [r4, #0]
 8003a18:	4620      	mov	r0, r4
 8003a1a:	680b      	ldr	r3, [r1, #0]
 8003a1c:	f443 7380 	orr.w	r3, r3, #256	; 0x100
 8003a20:	600b      	str	r3, [r1, #0]
 8003a22:	463b      	mov	r3, r7
 8003a24:	f04f 1101 	mov.w	r1, #65537	; 0x10001
 8003a28:	f8cd 8000 	str.w	r8, [sp]
 8003a2c:	f7ff fe97 	bl	800375e <I2C_WaitOnFlagUntilTimeout>
 8003a30:	6822      	ldr	r2, [r4, #0]
 8003a32:	b160      	cbz	r0, 8003a4e <I2C_RequestMemoryRead+0xe6>
 8003a34:	6813      	ldr	r3, [r2, #0]
 8003a36:	e7b3      	b.n	80039a0 <I2C_RequestMemoryRead+0x38>
 8003a38:	0a2a      	lsrs	r2, r5, #8
 8003a3a:	611a      	str	r2, [r3, #16]
 8003a3c:	4639      	mov	r1, r7
 8003a3e:	4642      	mov	r2, r8
 8003a40:	4620      	mov	r0, r4
 8003a42:	f7ff ff0e 	bl	8003862 <I2C_WaitOnTXEFlagUntilTimeout>
 8003a46:	2800      	cmp	r0, #0
 8003a48:	d1ce      	bne.n	80039e8 <I2C_RequestMemoryRead+0x80>
 8003a4a:	6823      	ldr	r3, [r4, #0]
 8003a4c:	e7d9      	b.n	8003a02 <I2C_RequestMemoryRead+0x9a>
 8003a4e:	f049 0301 	orr.w	r3, r9, #1
 8003a52:	6113      	str	r3, [r2, #16]
 8003a54:	4620      	mov	r0, r4
 8003a56:	4643      	mov	r3, r8
 8003a58:	463a      	mov	r2, r7
 8003a5a:	4903      	ldr	r1, [pc, #12]	; (8003a68 <I2C_RequestMemoryRead+0x100>)
 8003a5c:	f7ff febf 	bl	80037de <I2C_WaitOnMasterAddressFlagUntilTimeout>
 8003a60:	3800      	subs	r0, #0
 8003a62:	bf18      	it	ne
 8003a64:	2001      	movne	r0, #1
 8003a66:	e7a1      	b.n	80039ac <I2C_RequestMemoryRead+0x44>
 8003a68:	00010002 	.word	0x00010002

08003a6c <I2C_WaitOnBTFFlagUntilTimeout>:
 8003a6c:	b570      	push	{r4, r5, r6, lr}
 8003a6e:	4604      	mov	r4, r0
 8003a70:	460d      	mov	r5, r1
 8003a72:	4616      	mov	r6, r2
 8003a74:	6823      	ldr	r3, [r4, #0]
 8003a76:	695b      	ldr	r3, [r3, #20]
 8003a78:	075b      	lsls	r3, r3, #29
 8003a7a:	d501      	bpl.n	8003a80 <I2C_WaitOnBTFFlagUntilTimeout+0x14>
 8003a7c:	2000      	movs	r0, #0
 8003a7e:	bd70      	pop	{r4, r5, r6, pc}
 8003a80:	4620      	mov	r0, r4
 8003a82:	f7ff fe53 	bl	800372c <I2C_IsAcknowledgeFailed>
 8003a86:	b9c8      	cbnz	r0, 8003abc <I2C_WaitOnBTFFlagUntilTimeout+0x50>
 8003a88:	1c6a      	adds	r2, r5, #1
 8003a8a:	d0f3      	beq.n	8003a74 <I2C_WaitOnBTFFlagUntilTimeout+0x8>
 8003a8c:	f7ff fc7a 	bl	8003384 <HAL_GetTick>
 8003a90:	1b80      	subs	r0, r0, r6
 8003a92:	42a8      	cmp	r0, r5
 8003a94:	d801      	bhi.n	8003a9a <I2C_WaitOnBTFFlagUntilTimeout+0x2e>
 8003a96:	2d00      	cmp	r5, #0
 8003a98:	d1ec      	bne.n	8003a74 <I2C_WaitOnBTFFlagUntilTimeout+0x8>
 8003a9a:	6823      	ldr	r3, [r4, #0]
 8003a9c:	695b      	ldr	r3, [r3, #20]
 8003a9e:	f013 0304 	ands.w	r3, r3, #4
 8003aa2:	d1e7      	bne.n	8003a74 <I2C_WaitOnBTFFlagUntilTimeout+0x8>
 8003aa4:	2220      	movs	r2, #32
 8003aa6:	6323      	str	r3, [r4, #48]	; 0x30
 8003aa8:	f884 203d 	strb.w	r2, [r4, #61]	; 0x3d
 8003aac:	f884 303e 	strb.w	r3, [r4, #62]	; 0x3e
 8003ab0:	6c22      	ldr	r2, [r4, #64]	; 0x40
 8003ab2:	f884 303c 	strb.w	r3, [r4, #60]	; 0x3c
 8003ab6:	f042 0220 	orr.w	r2, r2, #32
 8003aba:	6422      	str	r2, [r4, #64]	; 0x40
 8003abc:	2001      	movs	r0, #1
 8003abe:	e7de      	b.n	8003a7e <I2C_WaitOnBTFFlagUntilTimeout+0x12>

08003ac0 <I2C_WaitOnRXNEFlagUntilTimeout>:
 8003ac0:	b570      	push	{r4, r5, r6, lr}
 8003ac2:	4604      	mov	r4, r0
 8003ac4:	460d      	mov	r5, r1
 8003ac6:	4616      	mov	r6, r2
 8003ac8:	6821      	ldr	r1, [r4, #0]
 8003aca:	694b      	ldr	r3, [r1, #20]
 8003acc:	f013 0340 	ands.w	r3, r3, #64	; 0x40
 8003ad0:	d001      	beq.n	8003ad6 <I2C_WaitOnRXNEFlagUntilTimeout+0x16>
 8003ad2:	2000      	movs	r0, #0
 8003ad4:	e010      	b.n	8003af8 <I2C_WaitOnRXNEFlagUntilTimeout+0x38>
 8003ad6:	694a      	ldr	r2, [r1, #20]
 8003ad8:	06d2      	lsls	r2, r2, #27
 8003ada:	d50e      	bpl.n	8003afa <I2C_WaitOnRXNEFlagUntilTimeout+0x3a>
 8003adc:	f06f 0210 	mvn.w	r2, #16
 8003ae0:	614a      	str	r2, [r1, #20]
 8003ae2:	2220      	movs	r2, #32
 8003ae4:	6323      	str	r3, [r4, #48]	; 0x30
 8003ae6:	f884 203d 	strb.w	r2, [r4, #61]	; 0x3d
 8003aea:	f884 303e 	strb.w	r3, [r4, #62]	; 0x3e
 8003aee:	6c22      	ldr	r2, [r4, #64]	; 0x40
 8003af0:	2001      	movs	r0, #1
 8003af2:	6422      	str	r2, [r4, #64]	; 0x40
 8003af4:	f884 303c 	strb.w	r3, [r4, #60]	; 0x3c
 8003af8:	bd70      	pop	{r4, r5, r6, pc}
 8003afa:	f7ff fc43 	bl	8003384 <HAL_GetTick>
 8003afe:	1b80      	subs	r0, r0, r6
 8003b00:	42a8      	cmp	r0, r5
 8003b02:	d801      	bhi.n	8003b08 <I2C_WaitOnRXNEFlagUntilTimeout+0x48>
 8003b04:	2d00      	cmp	r5, #0
 8003b06:	d1df      	bne.n	8003ac8 <I2C_WaitOnRXNEFlagUntilTimeout+0x8>
 8003b08:	6823      	ldr	r3, [r4, #0]
 8003b0a:	695b      	ldr	r3, [r3, #20]
 8003b0c:	f013 0340 	ands.w	r3, r3, #64	; 0x40
 8003b10:	d1da      	bne.n	8003ac8 <I2C_WaitOnRXNEFlagUntilTimeout+0x8>
 8003b12:	2220      	movs	r2, #32
 8003b14:	6323      	str	r3, [r4, #48]	; 0x30
 8003b16:	f884 203d 	strb.w	r2, [r4, #61]	; 0x3d
 8003b1a:	f884 303e 	strb.w	r3, [r4, #62]	; 0x3e
 8003b1e:	6c22      	ldr	r2, [r4, #64]	; 0x40
 8003b20:	f042 0220 	orr.w	r2, r2, #32
 8003b24:	e7e4      	b.n	8003af0 <I2C_WaitOnRXNEFlagUntilTimeout+0x30>
	...

08003b28 <HAL_I2C_Init>:
 8003b28:	b570      	push	{r4, r5, r6, lr}
 8003b2a:	4604      	mov	r4, r0
 8003b2c:	b908      	cbnz	r0, 8003b32 <HAL_I2C_Init+0xa>
 8003b2e:	2001      	movs	r0, #1
 8003b30:	bd70      	pop	{r4, r5, r6, pc}
 8003b32:	f890 303d 	ldrb.w	r3, [r0, #61]	; 0x3d
 8003b36:	f003 02ff 	and.w	r2, r3, #255	; 0xff
 8003b3a:	b91b      	cbnz	r3, 8003b44 <HAL_I2C_Init+0x1c>
 8003b3c:	f880 203c 	strb.w	r2, [r0, #60]	; 0x3c
 8003b40:	f7ff f95e 	bl	8002e00 <HAL_I2C_MspInit>
 8003b44:	2324      	movs	r3, #36	; 0x24
 8003b46:	f884 303d 	strb.w	r3, [r4, #61]	; 0x3d
 8003b4a:	6823      	ldr	r3, [r4, #0]
 8003b4c:	681a      	ldr	r2, [r3, #0]
 8003b4e:	f022 0201 	bic.w	r2, r2, #1
 8003b52:	601a      	str	r2, [r3, #0]
 8003b54:	681a      	ldr	r2, [r3, #0]
 8003b56:	f442 4200 	orr.w	r2, r2, #32768	; 0x8000
 8003b5a:	601a      	str	r2, [r3, #0]
 8003b5c:	681a      	ldr	r2, [r3, #0]
 8003b5e:	f422 4200 	bic.w	r2, r2, #32768	; 0x8000
 8003b62:	601a      	str	r2, [r3, #0]
 8003b64:	f001 fd8a 	bl	800567c <HAL_RCC_GetPCLK1Freq>
 8003b68:	4b3f      	ldr	r3, [pc, #252]	; (8003c68 <HAL_I2C_Init+0x140>)
 8003b6a:	6865      	ldr	r5, [r4, #4]
 8003b6c:	429d      	cmp	r5, r3
 8003b6e:	bf94      	ite	ls
 8003b70:	4b3e      	ldrls	r3, [pc, #248]	; (8003c6c <HAL_I2C_Init+0x144>)
 8003b72:	4b3f      	ldrhi	r3, [pc, #252]	; (8003c70 <HAL_I2C_Init+0x148>)
 8003b74:	4298      	cmp	r0, r3
 8003b76:	bf8c      	ite	hi
 8003b78:	2300      	movhi	r3, #0
 8003b7a:	2301      	movls	r3, #1
 8003b7c:	2b00      	cmp	r3, #0
 8003b7e:	d1d6      	bne.n	8003b2e <HAL_I2C_Init+0x6>
 8003b80:	4e39      	ldr	r6, [pc, #228]	; (8003c68 <HAL_I2C_Init+0x140>)
 8003b82:	4b3c      	ldr	r3, [pc, #240]	; (8003c74 <HAL_I2C_Init+0x14c>)
 8003b84:	42b5      	cmp	r5, r6
 8003b86:	fbb0 f3f3 	udiv	r3, r0, r3
 8003b8a:	bf88      	it	hi
 8003b8c:	f44f 7696 	movhi.w	r6, #300	; 0x12c
 8003b90:	6822      	ldr	r2, [r4, #0]
 8003b92:	6851      	ldr	r1, [r2, #4]
 8003b94:	f021 013f 	bic.w	r1, r1, #63	; 0x3f
 8003b98:	ea41 0103 	orr.w	r1, r1, r3
 8003b9c:	bf82      	ittt	hi
 8003b9e:	4373      	mulhi	r3, r6
 8003ba0:	f44f 767a 	movhi.w	r6, #1000	; 0x3e8
 8003ba4:	fbb3 f3f6 	udivhi	r3, r3, r6
 8003ba8:	6051      	str	r1, [r2, #4]
 8003baa:	6a11      	ldr	r1, [r2, #32]
 8003bac:	3301      	adds	r3, #1
 8003bae:	f021 013f 	bic.w	r1, r1, #63	; 0x3f
 8003bb2:	430b      	orrs	r3, r1
 8003bb4:	6213      	str	r3, [r2, #32]
 8003bb6:	69d1      	ldr	r1, [r2, #28]
 8003bb8:	1e43      	subs	r3, r0, #1
 8003bba:	482b      	ldr	r0, [pc, #172]	; (8003c68 <HAL_I2C_Init+0x140>)
 8003bbc:	f421 414f 	bic.w	r1, r1, #52992	; 0xcf00
 8003bc0:	4285      	cmp	r5, r0
 8003bc2:	f021 01ff 	bic.w	r1, r1, #255	; 0xff
 8003bc6:	d832      	bhi.n	8003c2e <HAL_I2C_Init+0x106>
 8003bc8:	006d      	lsls	r5, r5, #1
 8003bca:	fbb3 f3f5 	udiv	r3, r3, r5
 8003bce:	f640 70fc 	movw	r0, #4092	; 0xffc
 8003bd2:	3301      	adds	r3, #1
 8003bd4:	4203      	tst	r3, r0
 8003bd6:	d042      	beq.n	8003c5e <HAL_I2C_Init+0x136>
 8003bd8:	f3c3 030b 	ubfx	r3, r3, #0, #12
 8003bdc:	4319      	orrs	r1, r3
 8003bde:	61d1      	str	r1, [r2, #28]
 8003be0:	6811      	ldr	r1, [r2, #0]
 8003be2:	e9d4 3007 	ldrd	r3, r0, [r4, #28]
 8003be6:	f021 01c0 	bic.w	r1, r1, #192	; 0xc0
 8003bea:	4303      	orrs	r3, r0
 8003bec:	430b      	orrs	r3, r1
 8003bee:	6013      	str	r3, [r2, #0]
 8003bf0:	6891      	ldr	r1, [r2, #8]
 8003bf2:	e9d4 0303 	ldrd	r0, r3, [r4, #12]
 8003bf6:	f421 4103 	bic.w	r1, r1, #33536	; 0x8300
 8003bfa:	4303      	orrs	r3, r0
 8003bfc:	f021 01ff 	bic.w	r1, r1, #255	; 0xff
 8003c00:	430b      	orrs	r3, r1
 8003c02:	6093      	str	r3, [r2, #8]
 8003c04:	68d1      	ldr	r1, [r2, #12]
 8003c06:	e9d4 3005 	ldrd	r3, r0, [r4, #20]
 8003c0a:	f021 01ff 	bic.w	r1, r1, #255	; 0xff
 8003c0e:	4303      	orrs	r3, r0
 8003c10:	430b      	orrs	r3, r1
 8003c12:	60d3      	str	r3, [r2, #12]
 8003c14:	6813      	ldr	r3, [r2, #0]
 8003c16:	2000      	movs	r0, #0
 8003c18:	f043 0301 	orr.w	r3, r3, #1
 8003c1c:	6013      	str	r3, [r2, #0]
 8003c1e:	2320      	movs	r3, #32
 8003c20:	6420      	str	r0, [r4, #64]	; 0x40
 8003c22:	f884 303d 	strb.w	r3, [r4, #61]	; 0x3d
 8003c26:	6320      	str	r0, [r4, #48]	; 0x30
 8003c28:	f884 003e 	strb.w	r0, [r4, #62]	; 0x3e
 8003c2c:	e780      	b.n	8003b30 <HAL_I2C_Init+0x8>
 8003c2e:	68a0      	ldr	r0, [r4, #8]
 8003c30:	b950      	cbnz	r0, 8003c48 <HAL_I2C_Init+0x120>
 8003c32:	eb05 0545 	add.w	r5, r5, r5, lsl #1
 8003c36:	fbb3 f3f5 	udiv	r3, r3, r5
 8003c3a:	3301      	adds	r3, #1
 8003c3c:	f3c3 030b 	ubfx	r3, r3, #0, #12
 8003c40:	b17b      	cbz	r3, 8003c62 <HAL_I2C_Init+0x13a>
 8003c42:	f443 4300 	orr.w	r3, r3, #32768	; 0x8000
 8003c46:	e7c9      	b.n	8003bdc <HAL_I2C_Init+0xb4>
 8003c48:	2019      	movs	r0, #25
 8003c4a:	4368      	muls	r0, r5
 8003c4c:	fbb3 f3f0 	udiv	r3, r3, r0
 8003c50:	3301      	adds	r3, #1
 8003c52:	f3c3 030b 	ubfx	r3, r3, #0, #12
 8003c56:	b123      	cbz	r3, 8003c62 <HAL_I2C_Init+0x13a>
 8003c58:	f443 4340 	orr.w	r3, r3, #49152	; 0xc000
 8003c5c:	e7be      	b.n	8003bdc <HAL_I2C_Init+0xb4>
 8003c5e:	2304      	movs	r3, #4
 8003c60:	e7bc      	b.n	8003bdc <HAL_I2C_Init+0xb4>
 8003c62:	2301      	movs	r3, #1
 8003c64:	e7ba      	b.n	8003bdc <HAL_I2C_Init+0xb4>
 8003c66:	bf00      	nop
 8003c68:	000186a0 	.word	0x000186a0
 8003c6c:	001e847f 	.word	0x001e847f
 8003c70:	003d08ff 	.word	0x003d08ff
 8003c74:	000f4240 	.word	0x000f4240

08003c78 <HAL_I2C_Master_Transmit>:
 8003c78:	e92d 43f0 	stmdb	sp!, {r4, r5, r6, r7, r8, r9, lr}
 8003c7c:	4604      	mov	r4, r0
 8003c7e:	b085      	sub	sp, #20
 8003c80:	4698      	mov	r8, r3
 8003c82:	460d      	mov	r5, r1
 8003c84:	4691      	mov	r9, r2
 8003c86:	9f0c      	ldr	r7, [sp, #48]	; 0x30
 8003c88:	f7ff fb7c 	bl	8003384 <HAL_GetTick>
 8003c8c:	f894 303d 	ldrb.w	r3, [r4, #61]	; 0x3d
 8003c90:	4606      	mov	r6, r0
 8003c92:	2b20      	cmp	r3, #32
 8003c94:	d004      	beq.n	8003ca0 <HAL_I2C_Master_Transmit+0x28>
 8003c96:	2502      	movs	r5, #2
 8003c98:	4628      	mov	r0, r5
 8003c9a:	b005      	add	sp, #20
 8003c9c:	e8bd 83f0 	ldmia.w	sp!, {r4, r5, r6, r7, r8, r9, pc}
 8003ca0:	9000      	str	r0, [sp, #0]
 8003ca2:	2319      	movs	r3, #25
 8003ca4:	2201      	movs	r2, #1
 8003ca6:	4620      	mov	r0, r4
 8003ca8:	495b      	ldr	r1, [pc, #364]	; (8003e18 <HAL_I2C_Master_Transmit+0x1a0>)
 8003caa:	f7ff fd58 	bl	800375e <I2C_WaitOnFlagUntilTimeout>
 8003cae:	2800      	cmp	r0, #0
 8003cb0:	d1f1      	bne.n	8003c96 <HAL_I2C_Master_Transmit+0x1e>
 8003cb2:	f894 303c 	ldrb.w	r3, [r4, #60]	; 0x3c
 8003cb6:	2b01      	cmp	r3, #1
 8003cb8:	d0ed      	beq.n	8003c96 <HAL_I2C_Master_Transmit+0x1e>
 8003cba:	2301      	movs	r3, #1
 8003cbc:	6821      	ldr	r1, [r4, #0]
 8003cbe:	f884 303c 	strb.w	r3, [r4, #60]	; 0x3c
 8003cc2:	680b      	ldr	r3, [r1, #0]
 8003cc4:	07da      	lsls	r2, r3, #31
 8003cc6:	bf5e      	ittt	pl
 8003cc8:	680b      	ldrpl	r3, [r1, #0]
 8003cca:	f043 0301 	orrpl.w	r3, r3, #1
 8003cce:	600b      	strpl	r3, [r1, #0]
 8003cd0:	680b      	ldr	r3, [r1, #0]
 8003cd2:	f423 6300 	bic.w	r3, r3, #2048	; 0x800
 8003cd6:	600b      	str	r3, [r1, #0]
 8003cd8:	2321      	movs	r3, #33	; 0x21
 8003cda:	f884 303d 	strb.w	r3, [r4, #61]	; 0x3d
 8003cde:	2310      	movs	r3, #16
 8003ce0:	f884 303e 	strb.w	r3, [r4, #62]	; 0x3e
 8003ce4:	2300      	movs	r3, #0
 8003ce6:	6423      	str	r3, [r4, #64]	; 0x40
 8003ce8:	f8a4 802a 	strh.w	r8, [r4, #42]	; 0x2a
 8003cec:	8d63      	ldrh	r3, [r4, #42]	; 0x2a
 8003cee:	f8c4 9024 	str.w	r9, [r4, #36]	; 0x24
 8003cf2:	8523      	strh	r3, [r4, #40]	; 0x28
 8003cf4:	4b49      	ldr	r3, [pc, #292]	; (8003e1c <HAL_I2C_Master_Transmit+0x1a4>)
 8003cf6:	62e3      	str	r3, [r4, #44]	; 0x2c
 8003cf8:	6ae3      	ldr	r3, [r4, #44]	; 0x2c
 8003cfa:	2b08      	cmp	r3, #8
 8003cfc:	d004      	beq.n	8003d08 <HAL_I2C_Master_Transmit+0x90>
 8003cfe:	2b01      	cmp	r3, #1
 8003d00:	d002      	beq.n	8003d08 <HAL_I2C_Master_Transmit+0x90>
 8003d02:	f513 3f80 	cmn.w	r3, #65536	; 0x10000
 8003d06:	d104      	bne.n	8003d12 <HAL_I2C_Master_Transmit+0x9a>
 8003d08:	680b      	ldr	r3, [r1, #0]
 8003d0a:	f443 7380 	orr.w	r3, r3, #256	; 0x100
 8003d0e:	600b      	str	r3, [r1, #0]
 8003d10:	e002      	b.n	8003d18 <HAL_I2C_Master_Transmit+0xa0>
 8003d12:	6b23      	ldr	r3, [r4, #48]	; 0x30
 8003d14:	2b12      	cmp	r3, #18
 8003d16:	d0f7      	beq.n	8003d08 <HAL_I2C_Master_Transmit+0x90>
 8003d18:	2200      	movs	r2, #0
 8003d1a:	463b      	mov	r3, r7
 8003d1c:	f04f 1101 	mov.w	r1, #65537	; 0x10001
 8003d20:	4620      	mov	r0, r4
 8003d22:	9600      	str	r6, [sp, #0]
 8003d24:	f7ff fd1b 	bl	800375e <I2C_WaitOnFlagUntilTimeout>
 8003d28:	6822      	ldr	r2, [r4, #0]
 8003d2a:	b138      	cbz	r0, 8003d3c <HAL_I2C_Master_Transmit+0xc4>
 8003d2c:	6813      	ldr	r3, [r2, #0]
 8003d2e:	05db      	lsls	r3, r3, #23
 8003d30:	bf44      	itt	mi
 8003d32:	f44f 7300 	movmi.w	r3, #512	; 0x200
 8003d36:	6423      	strmi	r3, [r4, #64]	; 0x40
 8003d38:	2501      	movs	r5, #1
 8003d3a:	e7ad      	b.n	8003c98 <HAL_I2C_Master_Transmit+0x20>
 8003d3c:	6923      	ldr	r3, [r4, #16]
 8003d3e:	f5b3 4f80 	cmp.w	r3, #16384	; 0x4000
 8003d42:	d121      	bne.n	8003d88 <HAL_I2C_Master_Transmit+0x110>
 8003d44:	f005 05fe 	and.w	r5, r5, #254	; 0xfe
 8003d48:	6115      	str	r5, [r2, #16]
 8003d4a:	4633      	mov	r3, r6
 8003d4c:	463a      	mov	r2, r7
 8003d4e:	4620      	mov	r0, r4
 8003d50:	4933      	ldr	r1, [pc, #204]	; (8003e20 <HAL_I2C_Master_Transmit+0x1a8>)
 8003d52:	f7ff fd44 	bl	80037de <I2C_WaitOnMasterAddressFlagUntilTimeout>
 8003d56:	4605      	mov	r5, r0
 8003d58:	2800      	cmp	r0, #0
 8003d5a:	d1ed      	bne.n	8003d38 <HAL_I2C_Master_Transmit+0xc0>
 8003d5c:	6823      	ldr	r3, [r4, #0]
 8003d5e:	9003      	str	r0, [sp, #12]
 8003d60:	695a      	ldr	r2, [r3, #20]
 8003d62:	9203      	str	r2, [sp, #12]
 8003d64:	699b      	ldr	r3, [r3, #24]
 8003d66:	9303      	str	r3, [sp, #12]
 8003d68:	9b03      	ldr	r3, [sp, #12]
 8003d6a:	8d23      	ldrh	r3, [r4, #40]	; 0x28
 8003d6c:	b9f3      	cbnz	r3, 8003dac <HAL_I2C_Master_Transmit+0x134>
 8003d6e:	6821      	ldr	r1, [r4, #0]
 8003d70:	680a      	ldr	r2, [r1, #0]
 8003d72:	f442 7200 	orr.w	r2, r2, #512	; 0x200
 8003d76:	600a      	str	r2, [r1, #0]
 8003d78:	2220      	movs	r2, #32
 8003d7a:	f884 303c 	strb.w	r3, [r4, #60]	; 0x3c
 8003d7e:	f884 203d 	strb.w	r2, [r4, #61]	; 0x3d
 8003d82:	f884 303e 	strb.w	r3, [r4, #62]	; 0x3e
 8003d86:	e787      	b.n	8003c98 <HAL_I2C_Master_Transmit+0x20>
 8003d88:	11eb      	asrs	r3, r5, #7
 8003d8a:	f003 0306 	and.w	r3, r3, #6
 8003d8e:	f043 03f0 	orr.w	r3, r3, #240	; 0xf0
 8003d92:	6113      	str	r3, [r2, #16]
 8003d94:	4620      	mov	r0, r4
 8003d96:	4633      	mov	r3, r6
 8003d98:	463a      	mov	r2, r7
 8003d9a:	4922      	ldr	r1, [pc, #136]	; (8003e24 <HAL_I2C_Master_Transmit+0x1ac>)
 8003d9c:	f7ff fd1f 	bl	80037de <I2C_WaitOnMasterAddressFlagUntilTimeout>
 8003da0:	2800      	cmp	r0, #0
 8003da2:	d1c9      	bne.n	8003d38 <HAL_I2C_Master_Transmit+0xc0>
 8003da4:	6823      	ldr	r3, [r4, #0]
 8003da6:	b2ed      	uxtb	r5, r5
 8003da8:	611d      	str	r5, [r3, #16]
 8003daa:	e7ce      	b.n	8003d4a <HAL_I2C_Master_Transmit+0xd2>
 8003dac:	4632      	mov	r2, r6
 8003dae:	4639      	mov	r1, r7
 8003db0:	4620      	mov	r0, r4
 8003db2:	f7ff fd56 	bl	8003862 <I2C_WaitOnTXEFlagUntilTimeout>
 8003db6:	b140      	cbz	r0, 8003dca <HAL_I2C_Master_Transmit+0x152>
 8003db8:	6c23      	ldr	r3, [r4, #64]	; 0x40
 8003dba:	2b04      	cmp	r3, #4
 8003dbc:	d1bc      	bne.n	8003d38 <HAL_I2C_Master_Transmit+0xc0>
 8003dbe:	6822      	ldr	r2, [r4, #0]
 8003dc0:	6813      	ldr	r3, [r2, #0]
 8003dc2:	f443 7300 	orr.w	r3, r3, #512	; 0x200
 8003dc6:	6013      	str	r3, [r2, #0]
 8003dc8:	e7b6      	b.n	8003d38 <HAL_I2C_Master_Transmit+0xc0>
 8003dca:	6a63      	ldr	r3, [r4, #36]	; 0x24
 8003dcc:	6820      	ldr	r0, [r4, #0]
 8003dce:	461a      	mov	r2, r3
 8003dd0:	f812 1b01 	ldrb.w	r1, [r2], #1
 8003dd4:	6101      	str	r1, [r0, #16]
 8003dd6:	6262      	str	r2, [r4, #36]	; 0x24
 8003dd8:	8d62      	ldrh	r2, [r4, #42]	; 0x2a
 8003dda:	3a01      	subs	r2, #1
 8003ddc:	b292      	uxth	r2, r2
 8003dde:	8562      	strh	r2, [r4, #42]	; 0x2a
 8003de0:	8d22      	ldrh	r2, [r4, #40]	; 0x28
 8003de2:	f8d0 c014 	ldr.w	ip, [r0, #20]
 8003de6:	1e51      	subs	r1, r2, #1
 8003de8:	b289      	uxth	r1, r1
 8003dea:	f01c 0f04 	tst.w	ip, #4
 8003dee:	8521      	strh	r1, [r4, #40]	; 0x28
 8003df0:	d00a      	beq.n	8003e08 <HAL_I2C_Master_Transmit+0x190>
 8003df2:	b149      	cbz	r1, 8003e08 <HAL_I2C_Master_Transmit+0x190>
 8003df4:	7859      	ldrb	r1, [r3, #1]
 8003df6:	3302      	adds	r3, #2
 8003df8:	6101      	str	r1, [r0, #16]
 8003dfa:	6263      	str	r3, [r4, #36]	; 0x24
 8003dfc:	8d63      	ldrh	r3, [r4, #42]	; 0x2a
 8003dfe:	3a02      	subs	r2, #2
 8003e00:	3b01      	subs	r3, #1
 8003e02:	b29b      	uxth	r3, r3
 8003e04:	8563      	strh	r3, [r4, #42]	; 0x2a
 8003e06:	8522      	strh	r2, [r4, #40]	; 0x28
 8003e08:	4632      	mov	r2, r6
 8003e0a:	4639      	mov	r1, r7
 8003e0c:	4620      	mov	r0, r4
 8003e0e:	f7ff fe2d 	bl	8003a6c <I2C_WaitOnBTFFlagUntilTimeout>
 8003e12:	2800      	cmp	r0, #0
 8003e14:	d0a9      	beq.n	8003d6a <HAL_I2C_Master_Transmit+0xf2>
 8003e16:	e7cf      	b.n	8003db8 <HAL_I2C_Master_Transmit+0x140>
 8003e18:	00100002 	.word	0x00100002
 8003e1c:	ffff0000 	.word	0xffff0000
 8003e20:	00010002 	.word	0x00010002
 8003e24:	00010008 	.word	0x00010008

08003e28 <HAL_I2C_Master_Receive>:
 8003e28:	e92d 43f0 	stmdb	sp!, {r4, r5, r6, r7, r8, r9, lr}
 8003e2c:	4698      	mov	r8, r3
 8003e2e:	2300      	movs	r3, #0
 8003e30:	4604      	mov	r4, r0
 8003e32:	b089      	sub	sp, #36	; 0x24
 8003e34:	9302      	str	r3, [sp, #8]
 8003e36:	460d      	mov	r5, r1
 8003e38:	4691      	mov	r9, r2
 8003e3a:	9f10      	ldr	r7, [sp, #64]	; 0x40
 8003e3c:	f7ff faa2 	bl	8003384 <HAL_GetTick>
 8003e40:	f894 303d 	ldrb.w	r3, [r4, #61]	; 0x3d
 8003e44:	4606      	mov	r6, r0
 8003e46:	2b20      	cmp	r3, #32
 8003e48:	d004      	beq.n	8003e54 <HAL_I2C_Master_Receive+0x2c>
 8003e4a:	2502      	movs	r5, #2
 8003e4c:	4628      	mov	r0, r5
 8003e4e:	b009      	add	sp, #36	; 0x24
 8003e50:	e8bd 83f0 	ldmia.w	sp!, {r4, r5, r6, r7, r8, r9, pc}
 8003e54:	9000      	str	r0, [sp, #0]
 8003e56:	2319      	movs	r3, #25
 8003e58:	2201      	movs	r2, #1
 8003e5a:	4620      	mov	r0, r4
 8003e5c:	498f      	ldr	r1, [pc, #572]	; (800409c <HAL_I2C_Master_Receive+0x274>)
 8003e5e:	f7ff fc7e 	bl	800375e <I2C_WaitOnFlagUntilTimeout>
 8003e62:	2800      	cmp	r0, #0
 8003e64:	d1f1      	bne.n	8003e4a <HAL_I2C_Master_Receive+0x22>
 8003e66:	f894 303c 	ldrb.w	r3, [r4, #60]	; 0x3c
 8003e6a:	2b01      	cmp	r3, #1
 8003e6c:	d0ed      	beq.n	8003e4a <HAL_I2C_Master_Receive+0x22>
 8003e6e:	2301      	movs	r3, #1
 8003e70:	6821      	ldr	r1, [r4, #0]
 8003e72:	f884 303c 	strb.w	r3, [r4, #60]	; 0x3c
 8003e76:	680b      	ldr	r3, [r1, #0]
 8003e78:	07db      	lsls	r3, r3, #31
 8003e7a:	bf5e      	ittt	pl
 8003e7c:	680b      	ldrpl	r3, [r1, #0]
 8003e7e:	f043 0301 	orrpl.w	r3, r3, #1
 8003e82:	600b      	strpl	r3, [r1, #0]
 8003e84:	680b      	ldr	r3, [r1, #0]
 8003e86:	f423 6300 	bic.w	r3, r3, #2048	; 0x800
 8003e8a:	600b      	str	r3, [r1, #0]
 8003e8c:	2322      	movs	r3, #34	; 0x22
 8003e8e:	f884 303d 	strb.w	r3, [r4, #61]	; 0x3d
 8003e92:	2310      	movs	r3, #16
 8003e94:	f884 303e 	strb.w	r3, [r4, #62]	; 0x3e
 8003e98:	2300      	movs	r3, #0
 8003e9a:	6423      	str	r3, [r4, #64]	; 0x40
 8003e9c:	f8a4 802a 	strh.w	r8, [r4, #42]	; 0x2a
 8003ea0:	8d63      	ldrh	r3, [r4, #42]	; 0x2a
 8003ea2:	f8c4 9024 	str.w	r9, [r4, #36]	; 0x24
 8003ea6:	8523      	strh	r3, [r4, #40]	; 0x28
 8003ea8:	4b7d      	ldr	r3, [pc, #500]	; (80040a0 <HAL_I2C_Master_Receive+0x278>)
 8003eaa:	62e3      	str	r3, [r4, #44]	; 0x2c
 8003eac:	6ae3      	ldr	r3, [r4, #44]	; 0x2c
 8003eae:	680a      	ldr	r2, [r1, #0]
 8003eb0:	2b08      	cmp	r3, #8
 8003eb2:	f442 6280 	orr.w	r2, r2, #1024	; 0x400
 8003eb6:	600a      	str	r2, [r1, #0]
 8003eb8:	d004      	beq.n	8003ec4 <HAL_I2C_Master_Receive+0x9c>
 8003eba:	2b01      	cmp	r3, #1
 8003ebc:	d002      	beq.n	8003ec4 <HAL_I2C_Master_Receive+0x9c>
 8003ebe:	f513 3f80 	cmn.w	r3, #65536	; 0x10000
 8003ec2:	d104      	bne.n	8003ece <HAL_I2C_Master_Receive+0xa6>
 8003ec4:	680b      	ldr	r3, [r1, #0]
 8003ec6:	f443 7380 	orr.w	r3, r3, #256	; 0x100
 8003eca:	600b      	str	r3, [r1, #0]
 8003ecc:	e002      	b.n	8003ed4 <HAL_I2C_Master_Receive+0xac>
 8003ece:	6b23      	ldr	r3, [r4, #48]	; 0x30
 8003ed0:	2b11      	cmp	r3, #17
 8003ed2:	d0f7      	beq.n	8003ec4 <HAL_I2C_Master_Receive+0x9c>
 8003ed4:	463b      	mov	r3, r7
 8003ed6:	2200      	movs	r2, #0
 8003ed8:	f04f 1101 	mov.w	r1, #65537	; 0x10001
 8003edc:	4620      	mov	r0, r4
 8003ede:	9600      	str	r6, [sp, #0]
 8003ee0:	f7ff fc3d 	bl	800375e <I2C_WaitOnFlagUntilTimeout>
 8003ee4:	6823      	ldr	r3, [r4, #0]
 8003ee6:	b138      	cbz	r0, 8003ef8 <HAL_I2C_Master_Receive+0xd0>
 8003ee8:	681b      	ldr	r3, [r3, #0]
 8003eea:	05d8      	lsls	r0, r3, #23
 8003eec:	d502      	bpl.n	8003ef4 <HAL_I2C_Master_Receive+0xcc>
 8003eee:	f44f 7300 	mov.w	r3, #512	; 0x200
 8003ef2:	6423      	str	r3, [r4, #64]	; 0x40
 8003ef4:	2501      	movs	r5, #1
 8003ef6:	e7a9      	b.n	8003e4c <HAL_I2C_Master_Receive+0x24>
 8003ef8:	6922      	ldr	r2, [r4, #16]
 8003efa:	f5b2 4f80 	cmp.w	r2, #16384	; 0x4000
 8003efe:	d129      	bne.n	8003f54 <HAL_I2C_Master_Receive+0x12c>
 8003f00:	f045 0501 	orr.w	r5, r5, #1
 8003f04:	b2ed      	uxtb	r5, r5
 8003f06:	611d      	str	r5, [r3, #16]
 8003f08:	4633      	mov	r3, r6
 8003f0a:	463a      	mov	r2, r7
 8003f0c:	4620      	mov	r0, r4
 8003f0e:	4965      	ldr	r1, [pc, #404]	; (80040a4 <HAL_I2C_Master_Receive+0x27c>)
 8003f10:	f7ff fc65 	bl	80037de <I2C_WaitOnMasterAddressFlagUntilTimeout>
 8003f14:	4605      	mov	r5, r0
 8003f16:	2800      	cmp	r0, #0
 8003f18:	d1ec      	bne.n	8003ef4 <HAL_I2C_Master_Receive+0xcc>
 8003f1a:	8d22      	ldrh	r2, [r4, #40]	; 0x28
 8003f1c:	6823      	ldr	r3, [r4, #0]
 8003f1e:	2a00      	cmp	r2, #0
 8003f20:	d14d      	bne.n	8003fbe <HAL_I2C_Master_Receive+0x196>
 8003f22:	9003      	str	r0, [sp, #12]
 8003f24:	695a      	ldr	r2, [r3, #20]
 8003f26:	9203      	str	r2, [sp, #12]
 8003f28:	699a      	ldr	r2, [r3, #24]
 8003f2a:	9203      	str	r2, [sp, #12]
 8003f2c:	9a03      	ldr	r2, [sp, #12]
 8003f2e:	681a      	ldr	r2, [r3, #0]
 8003f30:	f442 7200 	orr.w	r2, r2, #512	; 0x200
 8003f34:	601a      	str	r2, [r3, #0]
 8003f36:	f8df 8170 	ldr.w	r8, [pc, #368]	; 80040a8 <HAL_I2C_Master_Receive+0x280>
 8003f3a:	f8df 9170 	ldr.w	r9, [pc, #368]	; 80040ac <HAL_I2C_Master_Receive+0x284>
 8003f3e:	8d23      	ldrh	r3, [r4, #40]	; 0x28
 8003f40:	2b00      	cmp	r3, #0
 8003f42:	d16c      	bne.n	800401e <HAL_I2C_Master_Receive+0x1f6>
 8003f44:	2220      	movs	r2, #32
 8003f46:	f884 303c 	strb.w	r3, [r4, #60]	; 0x3c
 8003f4a:	f884 203d 	strb.w	r2, [r4, #61]	; 0x3d
 8003f4e:	f884 303e 	strb.w	r3, [r4, #62]	; 0x3e
 8003f52:	e77b      	b.n	8003e4c <HAL_I2C_Master_Receive+0x24>
 8003f54:	ea4f 18e5 	mov.w	r8, r5, asr #7
 8003f58:	f008 0806 	and.w	r8, r8, #6
 8003f5c:	f048 02f0 	orr.w	r2, r8, #240	; 0xf0
 8003f60:	611a      	str	r2, [r3, #16]
 8003f62:	4620      	mov	r0, r4
 8003f64:	4633      	mov	r3, r6
 8003f66:	463a      	mov	r2, r7
 8003f68:	4951      	ldr	r1, [pc, #324]	; (80040b0 <HAL_I2C_Master_Receive+0x288>)
 8003f6a:	f7ff fc38 	bl	80037de <I2C_WaitOnMasterAddressFlagUntilTimeout>
 8003f6e:	2800      	cmp	r0, #0
 8003f70:	d1c0      	bne.n	8003ef4 <HAL_I2C_Master_Receive+0xcc>
 8003f72:	6823      	ldr	r3, [r4, #0]
 8003f74:	b2ed      	uxtb	r5, r5
 8003f76:	463a      	mov	r2, r7
 8003f78:	611d      	str	r5, [r3, #16]
 8003f7a:	4620      	mov	r0, r4
 8003f7c:	4633      	mov	r3, r6
 8003f7e:	4949      	ldr	r1, [pc, #292]	; (80040a4 <HAL_I2C_Master_Receive+0x27c>)
 8003f80:	f7ff fc2d 	bl	80037de <I2C_WaitOnMasterAddressFlagUntilTimeout>
 8003f84:	4602      	mov	r2, r0
 8003f86:	2800      	cmp	r0, #0
 8003f88:	d1b4      	bne.n	8003ef4 <HAL_I2C_Master_Receive+0xcc>
 8003f8a:	6823      	ldr	r3, [r4, #0]
 8003f8c:	9007      	str	r0, [sp, #28]
 8003f8e:	6959      	ldr	r1, [r3, #20]
 8003f90:	4620      	mov	r0, r4
 8003f92:	9107      	str	r1, [sp, #28]
 8003f94:	6999      	ldr	r1, [r3, #24]
 8003f96:	9107      	str	r1, [sp, #28]
 8003f98:	9907      	ldr	r1, [sp, #28]
 8003f9a:	6819      	ldr	r1, [r3, #0]
 8003f9c:	f441 7180 	orr.w	r1, r1, #256	; 0x100
 8003fa0:	6019      	str	r1, [r3, #0]
 8003fa2:	463b      	mov	r3, r7
 8003fa4:	f04f 1101 	mov.w	r1, #65537	; 0x10001
 8003fa8:	9600      	str	r6, [sp, #0]
 8003faa:	f7ff fbd8 	bl	800375e <I2C_WaitOnFlagUntilTimeout>
 8003fae:	6822      	ldr	r2, [r4, #0]
 8003fb0:	b108      	cbz	r0, 8003fb6 <HAL_I2C_Master_Receive+0x18e>
 8003fb2:	6813      	ldr	r3, [r2, #0]
 8003fb4:	e799      	b.n	8003eea <HAL_I2C_Master_Receive+0xc2>
 8003fb6:	f048 03f1 	orr.w	r3, r8, #241	; 0xf1
 8003fba:	6113      	str	r3, [r2, #16]
 8003fbc:	e7a4      	b.n	8003f08 <HAL_I2C_Master_Receive+0xe0>
 8003fbe:	2a01      	cmp	r2, #1
 8003fc0:	d111      	bne.n	8003fe6 <HAL_I2C_Master_Receive+0x1be>
 8003fc2:	681a      	ldr	r2, [r3, #0]
 8003fc4:	f422 6280 	bic.w	r2, r2, #1024	; 0x400
 8003fc8:	601a      	str	r2, [r3, #0]
 8003fca:	b672      	cpsid	i
 8003fcc:	6823      	ldr	r3, [r4, #0]
 8003fce:	9004      	str	r0, [sp, #16]
 8003fd0:	695a      	ldr	r2, [r3, #20]
 8003fd2:	9204      	str	r2, [sp, #16]
 8003fd4:	699a      	ldr	r2, [r3, #24]
 8003fd6:	9204      	str	r2, [sp, #16]
 8003fd8:	9a04      	ldr	r2, [sp, #16]
 8003fda:	681a      	ldr	r2, [r3, #0]
 8003fdc:	f442 7200 	orr.w	r2, r2, #512	; 0x200
 8003fe0:	601a      	str	r2, [r3, #0]
 8003fe2:	b662      	cpsie	i
 8003fe4:	e7a7      	b.n	8003f36 <HAL_I2C_Master_Receive+0x10e>
 8003fe6:	2a02      	cmp	r2, #2
 8003fe8:	681a      	ldr	r2, [r3, #0]
 8003fea:	d10e      	bne.n	800400a <HAL_I2C_Master_Receive+0x1e2>
 8003fec:	f442 6200 	orr.w	r2, r2, #2048	; 0x800
 8003ff0:	601a      	str	r2, [r3, #0]
 8003ff2:	b672      	cpsid	i
 8003ff4:	6823      	ldr	r3, [r4, #0]
 8003ff6:	9005      	str	r0, [sp, #20]
 8003ff8:	695a      	ldr	r2, [r3, #20]
 8003ffa:	9205      	str	r2, [sp, #20]
 8003ffc:	699a      	ldr	r2, [r3, #24]
 8003ffe:	9205      	str	r2, [sp, #20]
 8004000:	9a05      	ldr	r2, [sp, #20]
 8004002:	681a      	ldr	r2, [r3, #0]
 8004004:	f422 6280 	bic.w	r2, r2, #1024	; 0x400
 8004008:	e7ea      	b.n	8003fe0 <HAL_I2C_Master_Receive+0x1b8>
 800400a:	f442 6280 	orr.w	r2, r2, #1024	; 0x400
 800400e:	601a      	str	r2, [r3, #0]
 8004010:	9006      	str	r0, [sp, #24]
 8004012:	695a      	ldr	r2, [r3, #20]
 8004014:	9206      	str	r2, [sp, #24]
 8004016:	699b      	ldr	r3, [r3, #24]
 8004018:	9306      	str	r3, [sp, #24]
 800401a:	9b06      	ldr	r3, [sp, #24]
 800401c:	e78b      	b.n	8003f36 <HAL_I2C_Master_Receive+0x10e>
 800401e:	2b03      	cmp	r3, #3
 8004020:	f200 8088 	bhi.w	8004134 <HAL_I2C_Master_Receive+0x30c>
 8004024:	2b01      	cmp	r3, #1
 8004026:	d116      	bne.n	8004056 <HAL_I2C_Master_Receive+0x22e>
 8004028:	4632      	mov	r2, r6
 800402a:	4639      	mov	r1, r7
 800402c:	4620      	mov	r0, r4
 800402e:	f7ff fd47 	bl	8003ac0 <I2C_WaitOnRXNEFlagUntilTimeout>
 8004032:	2800      	cmp	r0, #0
 8004034:	f47f af5e 	bne.w	8003ef4 <HAL_I2C_Master_Receive+0xcc>
 8004038:	6823      	ldr	r3, [r4, #0]
 800403a:	691a      	ldr	r2, [r3, #16]
 800403c:	6a63      	ldr	r3, [r4, #36]	; 0x24
 800403e:	701a      	strb	r2, [r3, #0]
 8004040:	6a63      	ldr	r3, [r4, #36]	; 0x24
 8004042:	3301      	adds	r3, #1
 8004044:	6263      	str	r3, [r4, #36]	; 0x24
 8004046:	8d23      	ldrh	r3, [r4, #40]	; 0x28
 8004048:	3b01      	subs	r3, #1
 800404a:	8523      	strh	r3, [r4, #40]	; 0x28
 800404c:	8d63      	ldrh	r3, [r4, #42]	; 0x2a
 800404e:	3b01      	subs	r3, #1
 8004050:	b29b      	uxth	r3, r3
 8004052:	8563      	strh	r3, [r4, #42]	; 0x2a
 8004054:	e773      	b.n	8003f3e <HAL_I2C_Master_Receive+0x116>
 8004056:	2b02      	cmp	r3, #2
 8004058:	f04f 0200 	mov.w	r2, #0
 800405c:	463b      	mov	r3, r7
 800405e:	4641      	mov	r1, r8
 8004060:	4620      	mov	r0, r4
 8004062:	9600      	str	r6, [sp, #0]
 8004064:	d126      	bne.n	80040b4 <HAL_I2C_Master_Receive+0x28c>
 8004066:	f7ff fb7a 	bl	800375e <I2C_WaitOnFlagUntilTimeout>
 800406a:	2800      	cmp	r0, #0
 800406c:	f47f af42 	bne.w	8003ef4 <HAL_I2C_Master_Receive+0xcc>
 8004070:	b672      	cpsid	i
 8004072:	6823      	ldr	r3, [r4, #0]
 8004074:	681a      	ldr	r2, [r3, #0]
 8004076:	f442 7200 	orr.w	r2, r2, #512	; 0x200
 800407a:	601a      	str	r2, [r3, #0]
 800407c:	691a      	ldr	r2, [r3, #16]
 800407e:	6a63      	ldr	r3, [r4, #36]	; 0x24
 8004080:	701a      	strb	r2, [r3, #0]
 8004082:	6a63      	ldr	r3, [r4, #36]	; 0x24
 8004084:	3301      	adds	r3, #1
 8004086:	6263      	str	r3, [r4, #36]	; 0x24
 8004088:	8d23      	ldrh	r3, [r4, #40]	; 0x28
 800408a:	3b01      	subs	r3, #1
 800408c:	8523      	strh	r3, [r4, #40]	; 0x28
 800408e:	8d63      	ldrh	r3, [r4, #42]	; 0x2a
 8004090:	3b01      	subs	r3, #1
 8004092:	b29b      	uxth	r3, r3
 8004094:	8563      	strh	r3, [r4, #42]	; 0x2a
 8004096:	b662      	cpsie	i
 8004098:	e7ce      	b.n	8004038 <HAL_I2C_Master_Receive+0x210>
 800409a:	bf00      	nop
 800409c:	00100002 	.word	0x00100002
 80040a0:	ffff0000 	.word	0xffff0000
 80040a4:	00010002 	.word	0x00010002
 80040a8:	00010004 	.word	0x00010004
 80040ac:	20000020 	.word	0x20000020
 80040b0:	00010008 	.word	0x00010008
 80040b4:	f7ff fb53 	bl	800375e <I2C_WaitOnFlagUntilTimeout>
 80040b8:	2800      	cmp	r0, #0
 80040ba:	f47f af1b 	bne.w	8003ef4 <HAL_I2C_Master_Receive+0xcc>
 80040be:	6822      	ldr	r2, [r4, #0]
 80040c0:	6813      	ldr	r3, [r2, #0]
 80040c2:	f423 6380 	bic.w	r3, r3, #1024	; 0x400
 80040c6:	6013      	str	r3, [r2, #0]
 80040c8:	b672      	cpsid	i
 80040ca:	f246 11a8 	movw	r1, #25000	; 0x61a8
 80040ce:	6823      	ldr	r3, [r4, #0]
 80040d0:	691a      	ldr	r2, [r3, #16]
 80040d2:	6a63      	ldr	r3, [r4, #36]	; 0x24
 80040d4:	701a      	strb	r2, [r3, #0]
 80040d6:	6a62      	ldr	r2, [r4, #36]	; 0x24
 80040d8:	1c53      	adds	r3, r2, #1
 80040da:	6263      	str	r3, [r4, #36]	; 0x24
 80040dc:	8d23      	ldrh	r3, [r4, #40]	; 0x28
 80040de:	3b01      	subs	r3, #1
 80040e0:	8523      	strh	r3, [r4, #40]	; 0x28
 80040e2:	8d63      	ldrh	r3, [r4, #42]	; 0x2a
 80040e4:	3b01      	subs	r3, #1
 80040e6:	b29b      	uxth	r3, r3
 80040e8:	8563      	strh	r3, [r4, #42]	; 0x2a
 80040ea:	f8d9 3000 	ldr.w	r3, [r9]
 80040ee:	fbb3 f3f1 	udiv	r3, r3, r1
 80040f2:	2123      	movs	r1, #35	; 0x23
 80040f4:	434b      	muls	r3, r1
 80040f6:	9302      	str	r3, [sp, #8]
 80040f8:	9b02      	ldr	r3, [sp, #8]
 80040fa:	3b01      	subs	r3, #1
 80040fc:	9302      	str	r3, [sp, #8]
 80040fe:	9b02      	ldr	r3, [sp, #8]
 8004100:	b96b      	cbnz	r3, 800411e <HAL_I2C_Master_Receive+0x2f6>
 8004102:	2220      	movs	r2, #32
 8004104:	6323      	str	r3, [r4, #48]	; 0x30
 8004106:	f884 203d 	strb.w	r2, [r4, #61]	; 0x3d
 800410a:	f884 303e 	strb.w	r3, [r4, #62]	; 0x3e
 800410e:	6c22      	ldr	r2, [r4, #64]	; 0x40
 8004110:	f042 0220 	orr.w	r2, r2, #32
 8004114:	6422      	str	r2, [r4, #64]	; 0x40
 8004116:	b662      	cpsie	i
 8004118:	f884 303c 	strb.w	r3, [r4, #60]	; 0x3c
 800411c:	e6ea      	b.n	8003ef4 <HAL_I2C_Master_Receive+0xcc>
 800411e:	6823      	ldr	r3, [r4, #0]
 8004120:	6959      	ldr	r1, [r3, #20]
 8004122:	0749      	lsls	r1, r1, #29
 8004124:	d5e8      	bpl.n	80040f8 <HAL_I2C_Master_Receive+0x2d0>
 8004126:	6819      	ldr	r1, [r3, #0]
 8004128:	f441 7100 	orr.w	r1, r1, #512	; 0x200
 800412c:	6019      	str	r1, [r3, #0]
 800412e:	691b      	ldr	r3, [r3, #16]
 8004130:	7053      	strb	r3, [r2, #1]
 8004132:	e7a6      	b.n	8004082 <HAL_I2C_Master_Receive+0x25a>
 8004134:	4632      	mov	r2, r6
 8004136:	4639      	mov	r1, r7
 8004138:	4620      	mov	r0, r4
 800413a:	f7ff fcc1 	bl	8003ac0 <I2C_WaitOnRXNEFlagUntilTimeout>
 800413e:	2800      	cmp	r0, #0
 8004140:	f47f aed8 	bne.w	8003ef4 <HAL_I2C_Master_Receive+0xcc>
 8004144:	6823      	ldr	r3, [r4, #0]
 8004146:	691a      	ldr	r2, [r3, #16]
 8004148:	6a63      	ldr	r3, [r4, #36]	; 0x24
 800414a:	701a      	strb	r2, [r3, #0]
 800414c:	8d62      	ldrh	r2, [r4, #42]	; 0x2a
 800414e:	6a61      	ldr	r1, [r4, #36]	; 0x24
 8004150:	3a01      	subs	r2, #1
 8004152:	b292      	uxth	r2, r2
 8004154:	1c4b      	adds	r3, r1, #1
 8004156:	8562      	strh	r2, [r4, #42]	; 0x2a
 8004158:	6822      	ldr	r2, [r4, #0]
 800415a:	6263      	str	r3, [r4, #36]	; 0x24
 800415c:	8d23      	ldrh	r3, [r4, #40]	; 0x28
 800415e:	6950      	ldr	r0, [r2, #20]
 8004160:	3b01      	subs	r3, #1
 8004162:	b29b      	uxth	r3, r3
 8004164:	0740      	lsls	r0, r0, #29
 8004166:	8523      	strh	r3, [r4, #40]	; 0x28
 8004168:	f57f aee9 	bpl.w	8003f3e <HAL_I2C_Master_Receive+0x116>
 800416c:	2b03      	cmp	r3, #3
 800416e:	bf02      	ittt	eq
 8004170:	6813      	ldreq	r3, [r2, #0]
 8004172:	f423 6380 	biceq.w	r3, r3, #1024	; 0x400
 8004176:	6013      	streq	r3, [r2, #0]
 8004178:	6913      	ldr	r3, [r2, #16]
 800417a:	704b      	strb	r3, [r1, #1]
 800417c:	e760      	b.n	8004040 <HAL_I2C_Master_Receive+0x218>
 800417e:	bf00      	nop

08004180 <HAL_I2C_Mem_Write>:
 8004180:	e92d 43f7 	stmdb	sp!, {r0, r1, r2, r4, r5, r6, r7, r8, r9, lr}
 8004184:	4604      	mov	r4, r0
 8004186:	4699      	mov	r9, r3
 8004188:	460f      	mov	r7, r1
 800418a:	4690      	mov	r8, r2
 800418c:	9e0c      	ldr	r6, [sp, #48]	; 0x30
 800418e:	f7ff f8f9 	bl	8003384 <HAL_GetTick>
 8004192:	f894 303d 	ldrb.w	r3, [r4, #61]	; 0x3d
 8004196:	4605      	mov	r5, r0
 8004198:	2b20      	cmp	r3, #32
 800419a:	d003      	beq.n	80041a4 <HAL_I2C_Mem_Write+0x24>
 800419c:	2002      	movs	r0, #2
 800419e:	b003      	add	sp, #12
 80041a0:	e8bd 83f0 	ldmia.w	sp!, {r4, r5, r6, r7, r8, r9, pc}
 80041a4:	9000      	str	r0, [sp, #0]
 80041a6:	2319      	movs	r3, #25
 80041a8:	2201      	movs	r2, #1
 80041aa:	4620      	mov	r0, r4
 80041ac:	493a      	ldr	r1, [pc, #232]	; (8004298 <HAL_I2C_Mem_Write+0x118>)
 80041ae:	f7ff fad6 	bl	800375e <I2C_WaitOnFlagUntilTimeout>
 80041b2:	2800      	cmp	r0, #0
 80041b4:	d1f2      	bne.n	800419c <HAL_I2C_Mem_Write+0x1c>
 80041b6:	f894 303c 	ldrb.w	r3, [r4, #60]	; 0x3c
 80041ba:	2b01      	cmp	r3, #1
 80041bc:	d0ee      	beq.n	800419c <HAL_I2C_Mem_Write+0x1c>
 80041be:	2301      	movs	r3, #1
 80041c0:	6820      	ldr	r0, [r4, #0]
 80041c2:	f884 303c 	strb.w	r3, [r4, #60]	; 0x3c
 80041c6:	6803      	ldr	r3, [r0, #0]
 80041c8:	4642      	mov	r2, r8
 80041ca:	07d9      	lsls	r1, r3, #31
 80041cc:	bf58      	it	pl
 80041ce:	6803      	ldrpl	r3, [r0, #0]
 80041d0:	4639      	mov	r1, r7
 80041d2:	bf5c      	itt	pl
 80041d4:	f043 0301 	orrpl.w	r3, r3, #1
 80041d8:	6003      	strpl	r3, [r0, #0]
 80041da:	6803      	ldr	r3, [r0, #0]
 80041dc:	f423 6300 	bic.w	r3, r3, #2048	; 0x800
 80041e0:	6003      	str	r3, [r0, #0]
 80041e2:	2321      	movs	r3, #33	; 0x21
 80041e4:	f884 303d 	strb.w	r3, [r4, #61]	; 0x3d
 80041e8:	2340      	movs	r3, #64	; 0x40
 80041ea:	f884 303e 	strb.w	r3, [r4, #62]	; 0x3e
 80041ee:	2300      	movs	r3, #0
 80041f0:	6423      	str	r3, [r4, #64]	; 0x40
 80041f2:	9b0a      	ldr	r3, [sp, #40]	; 0x28
 80041f4:	4620      	mov	r0, r4
 80041f6:	6263      	str	r3, [r4, #36]	; 0x24
 80041f8:	f8bd 302c 	ldrh.w	r3, [sp, #44]	; 0x2c
 80041fc:	e9cd 6500 	strd	r6, r5, [sp]
 8004200:	8563      	strh	r3, [r4, #42]	; 0x2a
 8004202:	8d63      	ldrh	r3, [r4, #42]	; 0x2a
 8004204:	8523      	strh	r3, [r4, #40]	; 0x28
 8004206:	4b25      	ldr	r3, [pc, #148]	; (800429c <HAL_I2C_Mem_Write+0x11c>)
 8004208:	62e3      	str	r3, [r4, #44]	; 0x2c
 800420a:	464b      	mov	r3, r9
 800420c:	f7ff fb54 	bl	80038b8 <I2C_RequestMemoryWrite>
 8004210:	2800      	cmp	r0, #0
 8004212:	d02a      	beq.n	800426a <HAL_I2C_Mem_Write+0xea>
 8004214:	2001      	movs	r0, #1
 8004216:	e7c2      	b.n	800419e <HAL_I2C_Mem_Write+0x1e>
 8004218:	f7ff fb23 	bl	8003862 <I2C_WaitOnTXEFlagUntilTimeout>
 800421c:	b140      	cbz	r0, 8004230 <HAL_I2C_Mem_Write+0xb0>
 800421e:	6c23      	ldr	r3, [r4, #64]	; 0x40
 8004220:	2b04      	cmp	r3, #4
 8004222:	bf01      	itttt	eq
 8004224:	6822      	ldreq	r2, [r4, #0]
 8004226:	6813      	ldreq	r3, [r2, #0]
 8004228:	f443 7300 	orreq.w	r3, r3, #512	; 0x200
 800422c:	6013      	streq	r3, [r2, #0]
 800422e:	e7f1      	b.n	8004214 <HAL_I2C_Mem_Write+0x94>
 8004230:	6a63      	ldr	r3, [r4, #36]	; 0x24
 8004232:	6827      	ldr	r7, [r4, #0]
 8004234:	461a      	mov	r2, r3
 8004236:	f812 1b01 	ldrb.w	r1, [r2], #1
 800423a:	6139      	str	r1, [r7, #16]
 800423c:	6262      	str	r2, [r4, #36]	; 0x24
 800423e:	8d62      	ldrh	r2, [r4, #42]	; 0x2a
 8004240:	8d21      	ldrh	r1, [r4, #40]	; 0x28
 8004242:	3a01      	subs	r2, #1
 8004244:	b292      	uxth	r2, r2
 8004246:	8562      	strh	r2, [r4, #42]	; 0x2a
 8004248:	697a      	ldr	r2, [r7, #20]
 800424a:	1e48      	subs	r0, r1, #1
 800424c:	b280      	uxth	r0, r0
 800424e:	0752      	lsls	r2, r2, #29
 8004250:	8520      	strh	r0, [r4, #40]	; 0x28
 8004252:	d50a      	bpl.n	800426a <HAL_I2C_Mem_Write+0xea>
 8004254:	b148      	cbz	r0, 800426a <HAL_I2C_Mem_Write+0xea>
 8004256:	785a      	ldrb	r2, [r3, #1]
 8004258:	3302      	adds	r3, #2
 800425a:	613a      	str	r2, [r7, #16]
 800425c:	6263      	str	r3, [r4, #36]	; 0x24
 800425e:	8d63      	ldrh	r3, [r4, #42]	; 0x2a
 8004260:	3902      	subs	r1, #2
 8004262:	3b01      	subs	r3, #1
 8004264:	b29b      	uxth	r3, r3
 8004266:	8521      	strh	r1, [r4, #40]	; 0x28
 8004268:	8563      	strh	r3, [r4, #42]	; 0x2a
 800426a:	8d23      	ldrh	r3, [r4, #40]	; 0x28
 800426c:	462a      	mov	r2, r5
 800426e:	4631      	mov	r1, r6
 8004270:	4620      	mov	r0, r4
 8004272:	2b00      	cmp	r3, #0
 8004274:	d1d0      	bne.n	8004218 <HAL_I2C_Mem_Write+0x98>
 8004276:	f7ff fbf9 	bl	8003a6c <I2C_WaitOnBTFFlagUntilTimeout>
 800427a:	2800      	cmp	r0, #0
 800427c:	d1cf      	bne.n	800421e <HAL_I2C_Mem_Write+0x9e>
 800427e:	6822      	ldr	r2, [r4, #0]
 8004280:	6813      	ldr	r3, [r2, #0]
 8004282:	f443 7300 	orr.w	r3, r3, #512	; 0x200
 8004286:	6013      	str	r3, [r2, #0]
 8004288:	2320      	movs	r3, #32
 800428a:	f884 003c 	strb.w	r0, [r4, #60]	; 0x3c
 800428e:	f884 303d 	strb.w	r3, [r4, #61]	; 0x3d
 8004292:	f884 003e 	strb.w	r0, [r4, #62]	; 0x3e
 8004296:	e782      	b.n	800419e <HAL_I2C_Mem_Write+0x1e>
 8004298:	00100002 	.word	0x00100002
 800429c:	ffff0000 	.word	0xffff0000

080042a0 <HAL_I2C_Mem_Read>:
 80042a0:	e92d 43f0 	stmdb	sp!, {r4, r5, r6, r7, r8, r9, lr}
 80042a4:	4699      	mov	r9, r3
 80042a6:	2300      	movs	r3, #0
 80042a8:	4604      	mov	r4, r0
 80042aa:	b089      	sub	sp, #36	; 0x24
 80042ac:	9303      	str	r3, [sp, #12]
 80042ae:	460d      	mov	r5, r1
 80042b0:	4690      	mov	r8, r2
 80042b2:	9f12      	ldr	r7, [sp, #72]	; 0x48
 80042b4:	f7ff f866 	bl	8003384 <HAL_GetTick>
 80042b8:	f894 303d 	ldrb.w	r3, [r4, #61]	; 0x3d
 80042bc:	4606      	mov	r6, r0
 80042be:	2b20      	cmp	r3, #32
 80042c0:	d004      	beq.n	80042cc <HAL_I2C_Mem_Read+0x2c>
 80042c2:	2502      	movs	r5, #2
 80042c4:	4628      	mov	r0, r5
 80042c6:	b009      	add	sp, #36	; 0x24
 80042c8:	e8bd 83f0 	ldmia.w	sp!, {r4, r5, r6, r7, r8, r9, pc}
 80042cc:	9000      	str	r0, [sp, #0]
 80042ce:	2319      	movs	r3, #25
 80042d0:	2201      	movs	r2, #1
 80042d2:	4620      	mov	r0, r4
 80042d4:	498d      	ldr	r1, [pc, #564]	; (800450c <HAL_I2C_Mem_Read+0x26c>)
 80042d6:	f7ff fa42 	bl	800375e <I2C_WaitOnFlagUntilTimeout>
 80042da:	2800      	cmp	r0, #0
 80042dc:	d1f1      	bne.n	80042c2 <HAL_I2C_Mem_Read+0x22>
 80042de:	f894 303c 	ldrb.w	r3, [r4, #60]	; 0x3c
 80042e2:	2b01      	cmp	r3, #1
 80042e4:	d0ed      	beq.n	80042c2 <HAL_I2C_Mem_Read+0x22>
 80042e6:	2301      	movs	r3, #1
 80042e8:	6820      	ldr	r0, [r4, #0]
 80042ea:	f884 303c 	strb.w	r3, [r4, #60]	; 0x3c
 80042ee:	6803      	ldr	r3, [r0, #0]
 80042f0:	4629      	mov	r1, r5
 80042f2:	07db      	lsls	r3, r3, #31
 80042f4:	bf58      	it	pl
 80042f6:	6803      	ldrpl	r3, [r0, #0]
 80042f8:	4642      	mov	r2, r8
 80042fa:	bf5c      	itt	pl
 80042fc:	f043 0301 	orrpl.w	r3, r3, #1
 8004300:	6003      	strpl	r3, [r0, #0]
 8004302:	6803      	ldr	r3, [r0, #0]
 8004304:	f423 6300 	bic.w	r3, r3, #2048	; 0x800
 8004308:	6003      	str	r3, [r0, #0]
 800430a:	2322      	movs	r3, #34	; 0x22
 800430c:	f884 303d 	strb.w	r3, [r4, #61]	; 0x3d
 8004310:	2340      	movs	r3, #64	; 0x40
 8004312:	f884 303e 	strb.w	r3, [r4, #62]	; 0x3e
 8004316:	2300      	movs	r3, #0
 8004318:	6423      	str	r3, [r4, #64]	; 0x40
 800431a:	9b10      	ldr	r3, [sp, #64]	; 0x40
 800431c:	4620      	mov	r0, r4
 800431e:	6263      	str	r3, [r4, #36]	; 0x24
 8004320:	f8bd 3044 	ldrh.w	r3, [sp, #68]	; 0x44
 8004324:	e9cd 7600 	strd	r7, r6, [sp]
 8004328:	8563      	strh	r3, [r4, #42]	; 0x2a
 800432a:	8d63      	ldrh	r3, [r4, #42]	; 0x2a
 800432c:	8523      	strh	r3, [r4, #40]	; 0x28
 800432e:	4b78      	ldr	r3, [pc, #480]	; (8004510 <HAL_I2C_Mem_Read+0x270>)
 8004330:	62e3      	str	r3, [r4, #44]	; 0x2c
 8004332:	464b      	mov	r3, r9
 8004334:	f7ff fb18 	bl	8003968 <I2C_RequestMemoryRead>
 8004338:	4605      	mov	r5, r0
 800433a:	b108      	cbz	r0, 8004340 <HAL_I2C_Mem_Read+0xa0>
 800433c:	2501      	movs	r5, #1
 800433e:	e7c1      	b.n	80042c4 <HAL_I2C_Mem_Read+0x24>
 8004340:	8d22      	ldrh	r2, [r4, #40]	; 0x28
 8004342:	6823      	ldr	r3, [r4, #0]
 8004344:	b9c2      	cbnz	r2, 8004378 <HAL_I2C_Mem_Read+0xd8>
 8004346:	9004      	str	r0, [sp, #16]
 8004348:	695a      	ldr	r2, [r3, #20]
 800434a:	9204      	str	r2, [sp, #16]
 800434c:	699a      	ldr	r2, [r3, #24]
 800434e:	9204      	str	r2, [sp, #16]
 8004350:	9a04      	ldr	r2, [sp, #16]
 8004352:	681a      	ldr	r2, [r3, #0]
 8004354:	f442 7200 	orr.w	r2, r2, #512	; 0x200
 8004358:	601a      	str	r2, [r3, #0]
 800435a:	f8df 81b8 	ldr.w	r8, [pc, #440]	; 8004514 <HAL_I2C_Mem_Read+0x274>
 800435e:	f8df 91b8 	ldr.w	r9, [pc, #440]	; 8004518 <HAL_I2C_Mem_Read+0x278>
 8004362:	8d23      	ldrh	r3, [r4, #40]	; 0x28
 8004364:	2b00      	cmp	r3, #0
 8004366:	d137      	bne.n	80043d8 <HAL_I2C_Mem_Read+0x138>
 8004368:	2220      	movs	r2, #32
 800436a:	f884 303c 	strb.w	r3, [r4, #60]	; 0x3c
 800436e:	f884 203d 	strb.w	r2, [r4, #61]	; 0x3d
 8004372:	f884 303e 	strb.w	r3, [r4, #62]	; 0x3e
 8004376:	e7a5      	b.n	80042c4 <HAL_I2C_Mem_Read+0x24>
 8004378:	2a01      	cmp	r2, #1
 800437a:	d111      	bne.n	80043a0 <HAL_I2C_Mem_Read+0x100>
 800437c:	681a      	ldr	r2, [r3, #0]
 800437e:	f422 6280 	bic.w	r2, r2, #1024	; 0x400
 8004382:	601a      	str	r2, [r3, #0]
 8004384:	b672      	cpsid	i
 8004386:	6823      	ldr	r3, [r4, #0]
 8004388:	9005      	str	r0, [sp, #20]
 800438a:	695a      	ldr	r2, [r3, #20]
 800438c:	9205      	str	r2, [sp, #20]
 800438e:	699a      	ldr	r2, [r3, #24]
 8004390:	9205      	str	r2, [sp, #20]
 8004392:	9a05      	ldr	r2, [sp, #20]
 8004394:	681a      	ldr	r2, [r3, #0]
 8004396:	f442 7200 	orr.w	r2, r2, #512	; 0x200
 800439a:	601a      	str	r2, [r3, #0]
 800439c:	b662      	cpsie	i
 800439e:	e7dc      	b.n	800435a <HAL_I2C_Mem_Read+0xba>
 80043a0:	2a02      	cmp	r2, #2
 80043a2:	681a      	ldr	r2, [r3, #0]
 80043a4:	d10e      	bne.n	80043c4 <HAL_I2C_Mem_Read+0x124>
 80043a6:	f442 6200 	orr.w	r2, r2, #2048	; 0x800
 80043aa:	601a      	str	r2, [r3, #0]
 80043ac:	b672      	cpsid	i
 80043ae:	6823      	ldr	r3, [r4, #0]
 80043b0:	9006      	str	r0, [sp, #24]
 80043b2:	695a      	ldr	r2, [r3, #20]
 80043b4:	9206      	str	r2, [sp, #24]
 80043b6:	699a      	ldr	r2, [r3, #24]
 80043b8:	9206      	str	r2, [sp, #24]
 80043ba:	9a06      	ldr	r2, [sp, #24]
 80043bc:	681a      	ldr	r2, [r3, #0]
 80043be:	f422 6280 	bic.w	r2, r2, #1024	; 0x400
 80043c2:	e7ea      	b.n	800439a <HAL_I2C_Mem_Read+0xfa>
 80043c4:	f442 6280 	orr.w	r2, r2, #1024	; 0x400
 80043c8:	601a      	str	r2, [r3, #0]
 80043ca:	9007      	str	r0, [sp, #28]
 80043cc:	695a      	ldr	r2, [r3, #20]
 80043ce:	9207      	str	r2, [sp, #28]
 80043d0:	699b      	ldr	r3, [r3, #24]
 80043d2:	9307      	str	r3, [sp, #28]
 80043d4:	9b07      	ldr	r3, [sp, #28]
 80043d6:	e7c0      	b.n	800435a <HAL_I2C_Mem_Read+0xba>
 80043d8:	2b03      	cmp	r3, #3
 80043da:	d878      	bhi.n	80044ce <HAL_I2C_Mem_Read+0x22e>
 80043dc:	2b01      	cmp	r3, #1
 80043de:	d115      	bne.n	800440c <HAL_I2C_Mem_Read+0x16c>
 80043e0:	4632      	mov	r2, r6
 80043e2:	4639      	mov	r1, r7
 80043e4:	4620      	mov	r0, r4
 80043e6:	f7ff fb6b 	bl	8003ac0 <I2C_WaitOnRXNEFlagUntilTimeout>
 80043ea:	2800      	cmp	r0, #0
 80043ec:	d1a6      	bne.n	800433c <HAL_I2C_Mem_Read+0x9c>
 80043ee:	6823      	ldr	r3, [r4, #0]
 80043f0:	691a      	ldr	r2, [r3, #16]
 80043f2:	6a63      	ldr	r3, [r4, #36]	; 0x24
 80043f4:	701a      	strb	r2, [r3, #0]
 80043f6:	6a63      	ldr	r3, [r4, #36]	; 0x24
 80043f8:	3301      	adds	r3, #1
 80043fa:	6263      	str	r3, [r4, #36]	; 0x24
 80043fc:	8d23      	ldrh	r3, [r4, #40]	; 0x28
 80043fe:	3b01      	subs	r3, #1
 8004400:	8523      	strh	r3, [r4, #40]	; 0x28
 8004402:	8d63      	ldrh	r3, [r4, #42]	; 0x2a
 8004404:	3b01      	subs	r3, #1
 8004406:	b29b      	uxth	r3, r3
 8004408:	8563      	strh	r3, [r4, #42]	; 0x2a
 800440a:	e7aa      	b.n	8004362 <HAL_I2C_Mem_Read+0xc2>
 800440c:	2b02      	cmp	r3, #2
 800440e:	f04f 0200 	mov.w	r2, #0
 8004412:	463b      	mov	r3, r7
 8004414:	4641      	mov	r1, r8
 8004416:	4620      	mov	r0, r4
 8004418:	9600      	str	r6, [sp, #0]
 800441a:	d118      	bne.n	800444e <HAL_I2C_Mem_Read+0x1ae>
 800441c:	f7ff f99f 	bl	800375e <I2C_WaitOnFlagUntilTimeout>
 8004420:	2800      	cmp	r0, #0
 8004422:	d18b      	bne.n	800433c <HAL_I2C_Mem_Read+0x9c>
 8004424:	b672      	cpsid	i
 8004426:	6823      	ldr	r3, [r4, #0]
 8004428:	681a      	ldr	r2, [r3, #0]
 800442a:	f442 7200 	orr.w	r2, r2, #512	; 0x200
 800442e:	601a      	str	r2, [r3, #0]
 8004430:	691a      	ldr	r2, [r3, #16]
 8004432:	6a63      	ldr	r3, [r4, #36]	; 0x24
 8004434:	701a      	strb	r2, [r3, #0]
 8004436:	6a63      	ldr	r3, [r4, #36]	; 0x24
 8004438:	3301      	adds	r3, #1
 800443a:	6263      	str	r3, [r4, #36]	; 0x24
 800443c:	8d23      	ldrh	r3, [r4, #40]	; 0x28
 800443e:	3b01      	subs	r3, #1
 8004440:	8523      	strh	r3, [r4, #40]	; 0x28
 8004442:	8d63      	ldrh	r3, [r4, #42]	; 0x2a
 8004444:	3b01      	subs	r3, #1
 8004446:	b29b      	uxth	r3, r3
 8004448:	8563      	strh	r3, [r4, #42]	; 0x2a
 800444a:	b662      	cpsie	i
 800444c:	e7cf      	b.n	80043ee <HAL_I2C_Mem_Read+0x14e>
 800444e:	f7ff f986 	bl	800375e <I2C_WaitOnFlagUntilTimeout>
 8004452:	2800      	cmp	r0, #0
 8004454:	f47f af72 	bne.w	800433c <HAL_I2C_Mem_Read+0x9c>
 8004458:	6822      	ldr	r2, [r4, #0]
 800445a:	6813      	ldr	r3, [r2, #0]
 800445c:	f423 6380 	bic.w	r3, r3, #1024	; 0x400
 8004460:	6013      	str	r3, [r2, #0]
 8004462:	b672      	cpsid	i
 8004464:	f246 11a8 	movw	r1, #25000	; 0x61a8
 8004468:	6823      	ldr	r3, [r4, #0]
 800446a:	691a      	ldr	r2, [r3, #16]
 800446c:	6a63      	ldr	r3, [r4, #36]	; 0x24
 800446e:	701a      	strb	r2, [r3, #0]
 8004470:	6a62      	ldr	r2, [r4, #36]	; 0x24
 8004472:	1c53      	adds	r3, r2, #1
 8004474:	6263      	str	r3, [r4, #36]	; 0x24
 8004476:	8d23      	ldrh	r3, [r4, #40]	; 0x28
 8004478:	3b01      	subs	r3, #1
 800447a:	8523      	strh	r3, [r4, #40]	; 0x28
 800447c:	8d63      	ldrh	r3, [r4, #42]	; 0x2a
 800447e:	3b01      	subs	r3, #1
 8004480:	b29b      	uxth	r3, r3
 8004482:	8563      	strh	r3, [r4, #42]	; 0x2a
 8004484:	f8d9 3000 	ldr.w	r3, [r9]
 8004488:	fbb3 f3f1 	udiv	r3, r3, r1
 800448c:	2123      	movs	r1, #35	; 0x23
 800448e:	434b      	muls	r3, r1
 8004490:	9303      	str	r3, [sp, #12]
 8004492:	9b03      	ldr	r3, [sp, #12]
 8004494:	3b01      	subs	r3, #1
 8004496:	9303      	str	r3, [sp, #12]
 8004498:	9b03      	ldr	r3, [sp, #12]
 800449a:	b96b      	cbnz	r3, 80044b8 <HAL_I2C_Mem_Read+0x218>
 800449c:	2220      	movs	r2, #32
 800449e:	6323      	str	r3, [r4, #48]	; 0x30
 80044a0:	f884 203d 	strb.w	r2, [r4, #61]	; 0x3d
 80044a4:	f884 303e 	strb.w	r3, [r4, #62]	; 0x3e
 80044a8:	6c22      	ldr	r2, [r4, #64]	; 0x40
 80044aa:	f042 0220 	orr.w	r2, r2, #32
 80044ae:	6422      	str	r2, [r4, #64]	; 0x40
 80044b0:	b662      	cpsie	i
 80044b2:	f884 303c 	strb.w	r3, [r4, #60]	; 0x3c
 80044b6:	e741      	b.n	800433c <HAL_I2C_Mem_Read+0x9c>
 80044b8:	6823      	ldr	r3, [r4, #0]
 80044ba:	6959      	ldr	r1, [r3, #20]
 80044bc:	0748      	lsls	r0, r1, #29
 80044be:	d5e8      	bpl.n	8004492 <HAL_I2C_Mem_Read+0x1f2>
 80044c0:	6819      	ldr	r1, [r3, #0]
 80044c2:	f441 7100 	orr.w	r1, r1, #512	; 0x200
 80044c6:	6019      	str	r1, [r3, #0]
 80044c8:	691b      	ldr	r3, [r3, #16]
 80044ca:	7053      	strb	r3, [r2, #1]
 80044cc:	e7b3      	b.n	8004436 <HAL_I2C_Mem_Read+0x196>
 80044ce:	4632      	mov	r2, r6
 80044d0:	4639      	mov	r1, r7
 80044d2:	4620      	mov	r0, r4
 80044d4:	f7ff faf4 	bl	8003ac0 <I2C_WaitOnRXNEFlagUntilTimeout>
 80044d8:	2800      	cmp	r0, #0
 80044da:	f47f af2f 	bne.w	800433c <HAL_I2C_Mem_Read+0x9c>
 80044de:	6823      	ldr	r3, [r4, #0]
 80044e0:	691a      	ldr	r2, [r3, #16]
 80044e2:	6a63      	ldr	r3, [r4, #36]	; 0x24
 80044e4:	701a      	strb	r2, [r3, #0]
 80044e6:	6a62      	ldr	r2, [r4, #36]	; 0x24
 80044e8:	1c53      	adds	r3, r2, #1
 80044ea:	6263      	str	r3, [r4, #36]	; 0x24
 80044ec:	8d23      	ldrh	r3, [r4, #40]	; 0x28
 80044ee:	3b01      	subs	r3, #1
 80044f0:	8523      	strh	r3, [r4, #40]	; 0x28
 80044f2:	8d63      	ldrh	r3, [r4, #42]	; 0x2a
 80044f4:	3b01      	subs	r3, #1
 80044f6:	b29b      	uxth	r3, r3
 80044f8:	8563      	strh	r3, [r4, #42]	; 0x2a
 80044fa:	6823      	ldr	r3, [r4, #0]
 80044fc:	6959      	ldr	r1, [r3, #20]
 80044fe:	0749      	lsls	r1, r1, #29
 8004500:	f57f af2f 	bpl.w	8004362 <HAL_I2C_Mem_Read+0xc2>
 8004504:	691b      	ldr	r3, [r3, #16]
 8004506:	7053      	strb	r3, [r2, #1]
 8004508:	e775      	b.n	80043f6 <HAL_I2C_Mem_Read+0x156>
 800450a:	bf00      	nop
 800450c:	00100002 	.word	0x00100002
 8004510:	ffff0000 	.word	0xffff0000
 8004514:	00010004 	.word	0x00010004
 8004518:	20000020 	.word	0x20000020

0800451c <HAL_I2C_MasterTxCpltCallback>:
 800451c:	4770      	bx	lr

0800451e <HAL_I2C_MasterRxCpltCallback>:
 800451e:	4770      	bx	lr

08004520 <HAL_I2C_SlaveTxCpltCallback>:
 8004520:	4770      	bx	lr

08004522 <HAL_I2C_SlaveRxCpltCallback>:
 8004522:	4770      	bx	lr

08004524 <HAL_I2C_AddrCallback>:
 8004524:	4770      	bx	lr

08004526 <HAL_I2C_ListenCpltCallback>:
 8004526:	4770      	bx	lr

08004528 <HAL_I2C_MemTxCpltCallback>:
 8004528:	4770      	bx	lr

0800452a <I2C_MemoryTransmit_TXE_BTF>:
 800452a:	f890 203d 	ldrb.w	r2, [r0, #61]	; 0x3d
 800452e:	b508      	push	{r3, lr}
 8004530:	6d03      	ldr	r3, [r0, #80]	; 0x50
 8004532:	b2d2      	uxtb	r2, r2
 8004534:	b983      	cbnz	r3, 8004558 <I2C_MemoryTransmit_TXE_BTF+0x2e>
 8004536:	6cc3      	ldr	r3, [r0, #76]	; 0x4c
 8004538:	6802      	ldr	r2, [r0, #0]
 800453a:	2b01      	cmp	r3, #1
 800453c:	6c83      	ldr	r3, [r0, #72]	; 0x48
 800453e:	d105      	bne.n	800454c <I2C_MemoryTransmit_TXE_BTF+0x22>
 8004540:	b2db      	uxtb	r3, r3
 8004542:	6113      	str	r3, [r2, #16]
 8004544:	6d03      	ldr	r3, [r0, #80]	; 0x50
 8004546:	3302      	adds	r3, #2
 8004548:	6503      	str	r3, [r0, #80]	; 0x50
 800454a:	bd08      	pop	{r3, pc}
 800454c:	f3c3 2307 	ubfx	r3, r3, #8, #8
 8004550:	6113      	str	r3, [r2, #16]
 8004552:	6d03      	ldr	r3, [r0, #80]	; 0x50
 8004554:	3301      	adds	r3, #1
 8004556:	e7f7      	b.n	8004548 <I2C_MemoryTransmit_TXE_BTF+0x1e>
 8004558:	6d03      	ldr	r3, [r0, #80]	; 0x50
 800455a:	2b01      	cmp	r3, #1
 800455c:	d103      	bne.n	8004566 <I2C_MemoryTransmit_TXE_BTF+0x3c>
 800455e:	6c83      	ldr	r3, [r0, #72]	; 0x48
 8004560:	6802      	ldr	r2, [r0, #0]
 8004562:	b2db      	uxtb	r3, r3
 8004564:	e7f4      	b.n	8004550 <I2C_MemoryTransmit_TXE_BTF+0x26>
 8004566:	6d03      	ldr	r3, [r0, #80]	; 0x50
 8004568:	2b02      	cmp	r3, #2
 800456a:	d12f      	bne.n	80045cc <I2C_MemoryTransmit_TXE_BTF+0xa2>
 800456c:	2a22      	cmp	r2, #34	; 0x22
 800456e:	d105      	bne.n	800457c <I2C_MemoryTransmit_TXE_BTF+0x52>
 8004570:	6802      	ldr	r2, [r0, #0]
 8004572:	6813      	ldr	r3, [r2, #0]
 8004574:	f443 7380 	orr.w	r3, r3, #256	; 0x100
 8004578:	6013      	str	r3, [r2, #0]
 800457a:	e7ea      	b.n	8004552 <I2C_MemoryTransmit_TXE_BTF+0x28>
 800457c:	8d43      	ldrh	r3, [r0, #42]	; 0x2a
 800457e:	b29b      	uxth	r3, r3
 8004580:	b163      	cbz	r3, 800459c <I2C_MemoryTransmit_TXE_BTF+0x72>
 8004582:	2a21      	cmp	r2, #33	; 0x21
 8004584:	d10a      	bne.n	800459c <I2C_MemoryTransmit_TXE_BTF+0x72>
 8004586:	6a43      	ldr	r3, [r0, #36]	; 0x24
 8004588:	6802      	ldr	r2, [r0, #0]
 800458a:	f813 1b01 	ldrb.w	r1, [r3], #1
 800458e:	6111      	str	r1, [r2, #16]
 8004590:	6243      	str	r3, [r0, #36]	; 0x24
 8004592:	8d43      	ldrh	r3, [r0, #42]	; 0x2a
 8004594:	3b01      	subs	r3, #1
 8004596:	b29b      	uxth	r3, r3
 8004598:	8543      	strh	r3, [r0, #42]	; 0x2a
 800459a:	e7d6      	b.n	800454a <I2C_MemoryTransmit_TXE_BTF+0x20>
 800459c:	8d43      	ldrh	r3, [r0, #42]	; 0x2a
 800459e:	b29b      	uxth	r3, r3
 80045a0:	2b00      	cmp	r3, #0
 80045a2:	d1d2      	bne.n	800454a <I2C_MemoryTransmit_TXE_BTF+0x20>
 80045a4:	2a21      	cmp	r2, #33	; 0x21
 80045a6:	d1d0      	bne.n	800454a <I2C_MemoryTransmit_TXE_BTF+0x20>
 80045a8:	6802      	ldr	r2, [r0, #0]
 80045aa:	6851      	ldr	r1, [r2, #4]
 80045ac:	f421 61e0 	bic.w	r1, r1, #1792	; 0x700
 80045b0:	6051      	str	r1, [r2, #4]
 80045b2:	6811      	ldr	r1, [r2, #0]
 80045b4:	f441 7100 	orr.w	r1, r1, #512	; 0x200
 80045b8:	6011      	str	r1, [r2, #0]
 80045ba:	2220      	movs	r2, #32
 80045bc:	6303      	str	r3, [r0, #48]	; 0x30
 80045be:	f880 203d 	strb.w	r2, [r0, #61]	; 0x3d
 80045c2:	f880 303e 	strb.w	r3, [r0, #62]	; 0x3e
 80045c6:	f7ff ffaf 	bl	8004528 <HAL_I2C_MemTxCpltCallback>
 80045ca:	e7be      	b.n	800454a <I2C_MemoryTransmit_TXE_BTF+0x20>
 80045cc:	6803      	ldr	r3, [r0, #0]
 80045ce:	695a      	ldr	r2, [r3, #20]
 80045d0:	0612      	lsls	r2, r2, #24
 80045d2:	bf44      	itt	mi
 80045d4:	2200      	movmi	r2, #0
 80045d6:	611a      	strmi	r2, [r3, #16]
 80045d8:	e7b7      	b.n	800454a <I2C_MemoryTransmit_TXE_BTF+0x20>

080045da <HAL_I2C_MemRxCpltCallback>:
 80045da:	4770      	bx	lr

080045dc <HAL_I2C_ErrorCallback>:
 80045dc:	4770      	bx	lr

080045de <HAL_I2C_AbortCpltCallback>:
 80045de:	4770      	bx	lr

080045e0 <I2C_DMAAbort>:
 80045e0:	2300      	movs	r3, #0
 80045e2:	b537      	push	{r0, r1, r2, r4, r5, lr}
 80045e4:	f246 11a8 	movw	r1, #25000	; 0x61a8
 80045e8:	9301      	str	r3, [sp, #4]
 80045ea:	4b2c      	ldr	r3, [pc, #176]	; (800469c <I2C_DMAAbort+0xbc>)
 80045ec:	6a40      	ldr	r0, [r0, #36]	; 0x24
 80045ee:	681b      	ldr	r3, [r3, #0]
 80045f0:	f890 203d 	ldrb.w	r2, [r0, #61]	; 0x3d
 80045f4:	fbb3 f3f1 	udiv	r3, r3, r1
 80045f8:	2123      	movs	r1, #35	; 0x23
 80045fa:	434b      	muls	r3, r1
 80045fc:	9301      	str	r3, [sp, #4]
 80045fe:	6803      	ldr	r3, [r0, #0]
 8004600:	b2d2      	uxtb	r2, r2
 8004602:	9901      	ldr	r1, [sp, #4]
 8004604:	bb41      	cbnz	r1, 8004658 <I2C_DMAAbort+0x78>
 8004606:	6c01      	ldr	r1, [r0, #64]	; 0x40
 8004608:	f041 0120 	orr.w	r1, r1, #32
 800460c:	6401      	str	r1, [r0, #64]	; 0x40
 800460e:	6b44      	ldr	r4, [r0, #52]	; 0x34
 8004610:	b10c      	cbz	r4, 8004616 <I2C_DMAAbort+0x36>
 8004612:	2100      	movs	r1, #0
 8004614:	62a1      	str	r1, [r4, #40]	; 0x28
 8004616:	6b81      	ldr	r1, [r0, #56]	; 0x38
 8004618:	b109      	cbz	r1, 800461e <I2C_DMAAbort+0x3e>
 800461a:	2500      	movs	r5, #0
 800461c:	628d      	str	r5, [r1, #40]	; 0x28
 800461e:	681d      	ldr	r5, [r3, #0]
 8004620:	f425 6580 	bic.w	r5, r5, #1024	; 0x400
 8004624:	601d      	str	r5, [r3, #0]
 8004626:	2500      	movs	r5, #0
 8004628:	8545      	strh	r5, [r0, #42]	; 0x2a
 800462a:	b104      	cbz	r4, 800462e <I2C_DMAAbort+0x4e>
 800462c:	6365      	str	r5, [r4, #52]	; 0x34
 800462e:	b101      	cbz	r1, 8004632 <I2C_DMAAbort+0x52>
 8004630:	634d      	str	r5, [r1, #52]	; 0x34
 8004632:	6819      	ldr	r1, [r3, #0]
 8004634:	f021 0101 	bic.w	r1, r1, #1
 8004638:	6019      	str	r1, [r3, #0]
 800463a:	f890 103d 	ldrb.w	r1, [r0, #61]	; 0x3d
 800463e:	2960      	cmp	r1, #96	; 0x60
 8004640:	d111      	bne.n	8004666 <I2C_DMAAbort+0x86>
 8004642:	2320      	movs	r3, #32
 8004644:	f880 303d 	strb.w	r3, [r0, #61]	; 0x3d
 8004648:	2300      	movs	r3, #0
 800464a:	f880 303e 	strb.w	r3, [r0, #62]	; 0x3e
 800464e:	6403      	str	r3, [r0, #64]	; 0x40
 8004650:	f7ff ffc5 	bl	80045de <HAL_I2C_AbortCpltCallback>
 8004654:	b003      	add	sp, #12
 8004656:	bd30      	pop	{r4, r5, pc}
 8004658:	9901      	ldr	r1, [sp, #4]
 800465a:	3901      	subs	r1, #1
 800465c:	9101      	str	r1, [sp, #4]
 800465e:	6819      	ldr	r1, [r3, #0]
 8004660:	0589      	lsls	r1, r1, #22
 8004662:	d4ce      	bmi.n	8004602 <I2C_DMAAbort+0x22>
 8004664:	e7d3      	b.n	800460e <I2C_DMAAbort+0x2e>
 8004666:	f002 0228 	and.w	r2, r2, #40	; 0x28
 800466a:	2a28      	cmp	r2, #40	; 0x28
 800466c:	d10e      	bne.n	800468c <I2C_DMAAbort+0xac>
 800466e:	6819      	ldr	r1, [r3, #0]
 8004670:	f041 0101 	orr.w	r1, r1, #1
 8004674:	6019      	str	r1, [r3, #0]
 8004676:	6819      	ldr	r1, [r3, #0]
 8004678:	f441 6180 	orr.w	r1, r1, #1024	; 0x400
 800467c:	6019      	str	r1, [r3, #0]
 800467e:	2300      	movs	r3, #0
 8004680:	6303      	str	r3, [r0, #48]	; 0x30
 8004682:	f880 203d 	strb.w	r2, [r0, #61]	; 0x3d
 8004686:	f7ff ffa9 	bl	80045dc <HAL_I2C_ErrorCallback>
 800468a:	e7e3      	b.n	8004654 <I2C_DMAAbort+0x74>
 800468c:	2320      	movs	r3, #32
 800468e:	f880 303d 	strb.w	r3, [r0, #61]	; 0x3d
 8004692:	2300      	movs	r3, #0
 8004694:	f880 303e 	strb.w	r3, [r0, #62]	; 0x3e
 8004698:	e7f5      	b.n	8004686 <I2C_DMAAbort+0xa6>
 800469a:	bf00      	nop
 800469c:	20000020 	.word	0x20000020

080046a0 <I2C_ITError>:
 80046a0:	b510      	push	{r4, lr}
 80046a2:	f890 203d 	ldrb.w	r2, [r0, #61]	; 0x3d
 80046a6:	f890 303e 	ldrb.w	r3, [r0, #62]	; 0x3e
 80046aa:	4604      	mov	r4, r0
 80046ac:	2b10      	cmp	r3, #16
 80046ae:	b2d9      	uxtb	r1, r3
 80046b0:	b2d2      	uxtb	r2, r2
 80046b2:	6803      	ldr	r3, [r0, #0]
 80046b4:	d001      	beq.n	80046ba <I2C_ITError+0x1a>
 80046b6:	2940      	cmp	r1, #64	; 0x40
 80046b8:	d113      	bne.n	80046e2 <I2C_ITError+0x42>
 80046ba:	2a22      	cmp	r2, #34	; 0x22
 80046bc:	d111      	bne.n	80046e2 <I2C_ITError+0x42>
 80046be:	6819      	ldr	r1, [r3, #0]
 80046c0:	f421 6100 	bic.w	r1, r1, #2048	; 0x800
 80046c4:	6019      	str	r1, [r3, #0]
 80046c6:	6859      	ldr	r1, [r3, #4]
 80046c8:	f411 6100 	ands.w	r1, r1, #2048	; 0x800
 80046cc:	d106      	bne.n	80046dc <I2C_ITError+0x3c>
 80046ce:	2a60      	cmp	r2, #96	; 0x60
 80046d0:	bf1e      	ittt	ne
 80046d2:	2220      	movne	r2, #32
 80046d4:	f884 203d 	strbne.w	r2, [r4, #61]	; 0x3d
 80046d8:	f884 103e 	strbne.w	r1, [r4, #62]	; 0x3e
 80046dc:	2200      	movs	r2, #0
 80046de:	6322      	str	r2, [r4, #48]	; 0x30
 80046e0:	e007      	b.n	80046f2 <I2C_ITError+0x52>
 80046e2:	f002 0128 	and.w	r1, r2, #40	; 0x28
 80046e6:	2928      	cmp	r1, #40	; 0x28
 80046e8:	d1ed      	bne.n	80046c6 <I2C_ITError+0x26>
 80046ea:	2200      	movs	r2, #0
 80046ec:	6322      	str	r2, [r4, #48]	; 0x30
 80046ee:	f884 103d 	strb.w	r1, [r4, #61]	; 0x3d
 80046f2:	685a      	ldr	r2, [r3, #4]
 80046f4:	f412 6200 	ands.w	r2, r2, #2048	; 0x800
 80046f8:	d04f      	beq.n	800479a <I2C_ITError+0xfa>
 80046fa:	685a      	ldr	r2, [r3, #4]
 80046fc:	6b60      	ldr	r0, [r4, #52]	; 0x34
 80046fe:	f422 6200 	bic.w	r2, r2, #2048	; 0x800
 8004702:	605a      	str	r2, [r3, #4]
 8004704:	f890 3021 	ldrb.w	r3, [r0, #33]	; 0x21
 8004708:	2b01      	cmp	r3, #1
 800470a:	4b37      	ldr	r3, [pc, #220]	; (80047e8 <I2C_ITError+0x148>)
 800470c:	d02b      	beq.n	8004766 <I2C_ITError+0xc6>
 800470e:	6343      	str	r3, [r0, #52]	; 0x34
 8004710:	f7fe fed4 	bl	80034bc <HAL_DMA_Abort_IT>
 8004714:	b150      	cbz	r0, 800472c <I2C_ITError+0x8c>
 8004716:	6822      	ldr	r2, [r4, #0]
 8004718:	6b60      	ldr	r0, [r4, #52]	; 0x34
 800471a:	6813      	ldr	r3, [r2, #0]
 800471c:	f023 0301 	bic.w	r3, r3, #1
 8004720:	6013      	str	r3, [r2, #0]
 8004722:	2320      	movs	r3, #32
 8004724:	f884 303d 	strb.w	r3, [r4, #61]	; 0x3d
 8004728:	6b43      	ldr	r3, [r0, #52]	; 0x34
 800472a:	4798      	blx	r3
 800472c:	6c23      	ldr	r3, [r4, #64]	; 0x40
 800472e:	0719      	lsls	r1, r3, #28
 8004730:	bf1f      	itttt	ne
 8004732:	6822      	ldrne	r2, [r4, #0]
 8004734:	6853      	ldrne	r3, [r2, #4]
 8004736:	f423 63e0 	bicne.w	r3, r3, #1792	; 0x700
 800473a:	6053      	strne	r3, [r2, #4]
 800473c:	f894 303d 	ldrb.w	r3, [r4, #61]	; 0x3d
 8004740:	6c22      	ldr	r2, [r4, #64]	; 0x40
 8004742:	b2db      	uxtb	r3, r3
 8004744:	0752      	lsls	r2, r2, #29
 8004746:	d50d      	bpl.n	8004764 <I2C_ITError+0xc4>
 8004748:	2b28      	cmp	r3, #40	; 0x28
 800474a:	d10b      	bne.n	8004764 <I2C_ITError+0xc4>
 800474c:	4b27      	ldr	r3, [pc, #156]	; (80047ec <I2C_ITError+0x14c>)
 800474e:	2220      	movs	r2, #32
 8004750:	62e3      	str	r3, [r4, #44]	; 0x2c
 8004752:	2300      	movs	r3, #0
 8004754:	4620      	mov	r0, r4
 8004756:	6323      	str	r3, [r4, #48]	; 0x30
 8004758:	f884 203d 	strb.w	r2, [r4, #61]	; 0x3d
 800475c:	f884 303e 	strb.w	r3, [r4, #62]	; 0x3e
 8004760:	f7ff fee1 	bl	8004526 <HAL_I2C_ListenCpltCallback>
 8004764:	bd10      	pop	{r4, pc}
 8004766:	6ba0      	ldr	r0, [r4, #56]	; 0x38
 8004768:	6343      	str	r3, [r0, #52]	; 0x34
 800476a:	f7fe fea7 	bl	80034bc <HAL_DMA_Abort_IT>
 800476e:	2800      	cmp	r0, #0
 8004770:	d0dc      	beq.n	800472c <I2C_ITError+0x8c>
 8004772:	6823      	ldr	r3, [r4, #0]
 8004774:	695a      	ldr	r2, [r3, #20]
 8004776:	0651      	lsls	r1, r2, #25
 8004778:	d505      	bpl.n	8004786 <I2C_ITError+0xe6>
 800477a:	691a      	ldr	r2, [r3, #16]
 800477c:	6a63      	ldr	r3, [r4, #36]	; 0x24
 800477e:	701a      	strb	r2, [r3, #0]
 8004780:	6a63      	ldr	r3, [r4, #36]	; 0x24
 8004782:	3301      	adds	r3, #1
 8004784:	6263      	str	r3, [r4, #36]	; 0x24
 8004786:	6822      	ldr	r2, [r4, #0]
 8004788:	6ba0      	ldr	r0, [r4, #56]	; 0x38
 800478a:	6813      	ldr	r3, [r2, #0]
 800478c:	f023 0301 	bic.w	r3, r3, #1
 8004790:	6013      	str	r3, [r2, #0]
 8004792:	2320      	movs	r3, #32
 8004794:	f884 303d 	strb.w	r3, [r4, #61]	; 0x3d
 8004798:	e7c6      	b.n	8004728 <I2C_ITError+0x88>
 800479a:	f894 103d 	ldrb.w	r1, [r4, #61]	; 0x3d
 800479e:	2960      	cmp	r1, #96	; 0x60
 80047a0:	d115      	bne.n	80047ce <I2C_ITError+0x12e>
 80047a2:	2120      	movs	r1, #32
 80047a4:	f884 103d 	strb.w	r1, [r4, #61]	; 0x3d
 80047a8:	6422      	str	r2, [r4, #64]	; 0x40
 80047aa:	695a      	ldr	r2, [r3, #20]
 80047ac:	0652      	lsls	r2, r2, #25
 80047ae:	d505      	bpl.n	80047bc <I2C_ITError+0x11c>
 80047b0:	691a      	ldr	r2, [r3, #16]
 80047b2:	6a63      	ldr	r3, [r4, #36]	; 0x24
 80047b4:	701a      	strb	r2, [r3, #0]
 80047b6:	6a63      	ldr	r3, [r4, #36]	; 0x24
 80047b8:	3301      	adds	r3, #1
 80047ba:	6263      	str	r3, [r4, #36]	; 0x24
 80047bc:	6822      	ldr	r2, [r4, #0]
 80047be:	4620      	mov	r0, r4
 80047c0:	6813      	ldr	r3, [r2, #0]
 80047c2:	f023 0301 	bic.w	r3, r3, #1
 80047c6:	6013      	str	r3, [r2, #0]
 80047c8:	f7ff ff09 	bl	80045de <HAL_I2C_AbortCpltCallback>
 80047cc:	e7ae      	b.n	800472c <I2C_ITError+0x8c>
 80047ce:	695a      	ldr	r2, [r3, #20]
 80047d0:	0650      	lsls	r0, r2, #25
 80047d2:	d505      	bpl.n	80047e0 <I2C_ITError+0x140>
 80047d4:	691a      	ldr	r2, [r3, #16]
 80047d6:	6a63      	ldr	r3, [r4, #36]	; 0x24
 80047d8:	701a      	strb	r2, [r3, #0]
 80047da:	6a63      	ldr	r3, [r4, #36]	; 0x24
 80047dc:	3301      	adds	r3, #1
 80047de:	6263      	str	r3, [r4, #36]	; 0x24
 80047e0:	4620      	mov	r0, r4
 80047e2:	f7ff fefb 	bl	80045dc <HAL_I2C_ErrorCallback>
 80047e6:	e7a1      	b.n	800472c <I2C_ITError+0x8c>
 80047e8:	080045e1 	.word	0x080045e1
 80047ec:	ffff0000 	.word	0xffff0000

080047f0 <HAL_I2C_EV_IRQHandler>:
 80047f0:	b5f0      	push	{r4, r5, r6, r7, lr}
 80047f2:	4604      	mov	r4, r0
 80047f4:	6803      	ldr	r3, [r0, #0]
 80047f6:	b08f      	sub	sp, #60	; 0x3c
 80047f8:	685a      	ldr	r2, [r3, #4]
 80047fa:	6ac6      	ldr	r6, [r0, #44]	; 0x2c
 80047fc:	f890 003e 	ldrb.w	r0, [r0, #62]	; 0x3e
 8004800:	f894 103d 	ldrb.w	r1, [r4, #61]	; 0x3d
 8004804:	2810      	cmp	r0, #16
 8004806:	b2c5      	uxtb	r5, r0
 8004808:	b2c9      	uxtb	r1, r1
 800480a:	d002      	beq.n	8004812 <HAL_I2C_EV_IRQHandler+0x22>
 800480c:	2d40      	cmp	r5, #64	; 0x40
 800480e:	f040 82d5 	bne.w	8004dbc <HAL_I2C_EV_IRQHandler+0x5cc>
 8004812:	699f      	ldr	r7, [r3, #24]
 8004814:	6958      	ldr	r0, [r3, #20]
 8004816:	f010 0f01 	tst.w	r0, #1
 800481a:	d107      	bne.n	800482c <HAL_I2C_EV_IRQHandler+0x3c>
 800481c:	f5b6 0f2a 	cmp.w	r6, #11141120	; 0xaa0000
 8004820:	d002      	beq.n	8004828 <HAL_I2C_EV_IRQHandler+0x38>
 8004822:	f1b6 4f2a 	cmp.w	r6, #2852126720	; 0xaa000000
 8004826:	d151      	bne.n	80048cc <HAL_I2C_EV_IRQHandler+0xdc>
 8004828:	b00f      	add	sp, #60	; 0x3c
 800482a:	bdf0      	pop	{r4, r5, r6, r7, pc}
 800482c:	0596      	lsls	r6, r2, #22
 800482e:	d54d      	bpl.n	80048cc <HAL_I2C_EV_IRQHandler+0xdc>
 8004830:	6ae2      	ldr	r2, [r4, #44]	; 0x2c
 8004832:	f5b2 0f2a 	cmp.w	r2, #11141120	; 0xaa0000
 8004836:	d10c      	bne.n	8004852 <HAL_I2C_EV_IRQHandler+0x62>
 8004838:	2201      	movs	r2, #1
 800483a:	62e2      	str	r2, [r4, #44]	; 0x2c
 800483c:	f894 203e 	ldrb.w	r2, [r4, #62]	; 0x3e
 8004840:	2a40      	cmp	r2, #64	; 0x40
 8004842:	d111      	bne.n	8004868 <HAL_I2C_EV_IRQHandler+0x78>
 8004844:	6d22      	ldr	r2, [r4, #80]	; 0x50
 8004846:	b952      	cbnz	r2, 800485e <HAL_I2C_EV_IRQHandler+0x6e>
 8004848:	6c62      	ldr	r2, [r4, #68]	; 0x44
 800484a:	f002 02fe 	and.w	r2, r2, #254	; 0xfe
 800484e:	611a      	str	r2, [r3, #16]
 8004850:	e7ea      	b.n	8004828 <HAL_I2C_EV_IRQHandler+0x38>
 8004852:	6ae2      	ldr	r2, [r4, #44]	; 0x2c
 8004854:	f1b2 4f2a 	cmp.w	r2, #2852126720	; 0xaa000000
 8004858:	d1f0      	bne.n	800483c <HAL_I2C_EV_IRQHandler+0x4c>
 800485a:	2208      	movs	r2, #8
 800485c:	e7ed      	b.n	800483a <HAL_I2C_EV_IRQHandler+0x4a>
 800485e:	6c62      	ldr	r2, [r4, #68]	; 0x44
 8004860:	f042 0201 	orr.w	r2, r2, #1
 8004864:	b2d2      	uxtb	r2, r2
 8004866:	e7f2      	b.n	800484e <HAL_I2C_EV_IRQHandler+0x5e>
 8004868:	6922      	ldr	r2, [r4, #16]
 800486a:	f5b2 4f80 	cmp.w	r2, #16384	; 0x4000
 800486e:	d11a      	bne.n	80048a6 <HAL_I2C_EV_IRQHandler+0xb6>
 8004870:	f894 203d 	ldrb.w	r2, [r4, #61]	; 0x3d
 8004874:	2a21      	cmp	r2, #33	; 0x21
 8004876:	6c62      	ldr	r2, [r4, #68]	; 0x44
 8004878:	d111      	bne.n	800489e <HAL_I2C_EV_IRQHandler+0xae>
 800487a:	f002 02fe 	and.w	r2, r2, #254	; 0xfe
 800487e:	611a      	str	r2, [r3, #16]
 8004880:	6b62      	ldr	r2, [r4, #52]	; 0x34
 8004882:	b10a      	cbz	r2, 8004888 <HAL_I2C_EV_IRQHandler+0x98>
 8004884:	6a92      	ldr	r2, [r2, #40]	; 0x28
 8004886:	b92a      	cbnz	r2, 8004894 <HAL_I2C_EV_IRQHandler+0xa4>
 8004888:	6ba2      	ldr	r2, [r4, #56]	; 0x38
 800488a:	2a00      	cmp	r2, #0
 800488c:	d0cc      	beq.n	8004828 <HAL_I2C_EV_IRQHandler+0x38>
 800488e:	6a92      	ldr	r2, [r2, #40]	; 0x28
 8004890:	2a00      	cmp	r2, #0
 8004892:	d0c9      	beq.n	8004828 <HAL_I2C_EV_IRQHandler+0x38>
 8004894:	685a      	ldr	r2, [r3, #4]
 8004896:	f442 6200 	orr.w	r2, r2, #2048	; 0x800
 800489a:	605a      	str	r2, [r3, #4]
 800489c:	e7c4      	b.n	8004828 <HAL_I2C_EV_IRQHandler+0x38>
 800489e:	f042 0201 	orr.w	r2, r2, #1
 80048a2:	b2d2      	uxtb	r2, r2
 80048a4:	e7eb      	b.n	800487e <HAL_I2C_EV_IRQHandler+0x8e>
 80048a6:	6d22      	ldr	r2, [r4, #80]	; 0x50
 80048a8:	b932      	cbnz	r2, 80048b8 <HAL_I2C_EV_IRQHandler+0xc8>
 80048aa:	6c62      	ldr	r2, [r4, #68]	; 0x44
 80048ac:	11d2      	asrs	r2, r2, #7
 80048ae:	f002 0206 	and.w	r2, r2, #6
 80048b2:	f042 02f0 	orr.w	r2, r2, #240	; 0xf0
 80048b6:	e7ca      	b.n	800484e <HAL_I2C_EV_IRQHandler+0x5e>
 80048b8:	6d22      	ldr	r2, [r4, #80]	; 0x50
 80048ba:	2a01      	cmp	r2, #1
 80048bc:	d1b4      	bne.n	8004828 <HAL_I2C_EV_IRQHandler+0x38>
 80048be:	6c62      	ldr	r2, [r4, #68]	; 0x44
 80048c0:	11d2      	asrs	r2, r2, #7
 80048c2:	f002 0206 	and.w	r2, r2, #6
 80048c6:	f042 02f1 	orr.w	r2, r2, #241	; 0xf1
 80048ca:	e7c0      	b.n	800484e <HAL_I2C_EV_IRQHandler+0x5e>
 80048cc:	0706      	lsls	r6, r0, #28
 80048ce:	d503      	bpl.n	80048d8 <HAL_I2C_EV_IRQHandler+0xe8>
 80048d0:	0596      	lsls	r6, r2, #22
 80048d2:	d501      	bpl.n	80048d8 <HAL_I2C_EV_IRQHandler+0xe8>
 80048d4:	6c62      	ldr	r2, [r4, #68]	; 0x44
 80048d6:	e7e4      	b.n	80048a2 <HAL_I2C_EV_IRQHandler+0xb2>
 80048d8:	0786      	lsls	r6, r0, #30
 80048da:	f140 80f0 	bpl.w	8004abe <HAL_I2C_EV_IRQHandler+0x2ce>
 80048de:	0596      	lsls	r6, r2, #22
 80048e0:	f140 80ed 	bpl.w	8004abe <HAL_I2C_EV_IRQHandler+0x2ce>
 80048e4:	f894 103e 	ldrb.w	r1, [r4, #62]	; 0x3e
 80048e8:	6ae2      	ldr	r2, [r4, #44]	; 0x2c
 80048ea:	6b25      	ldr	r5, [r4, #48]	; 0x30
 80048ec:	f894 003d 	ldrb.w	r0, [r4, #61]	; 0x3d
 80048f0:	b2c9      	uxtb	r1, r1
 80048f2:	2822      	cmp	r0, #34	; 0x22
 80048f4:	f040 80db 	bne.w	8004aae <HAL_I2C_EV_IRQHandler+0x2be>
 80048f8:	6d20      	ldr	r0, [r4, #80]	; 0x50
 80048fa:	b940      	cbnz	r0, 800490e <HAL_I2C_EV_IRQHandler+0x11e>
 80048fc:	2940      	cmp	r1, #64	; 0x40
 80048fe:	d106      	bne.n	800490e <HAL_I2C_EV_IRQHandler+0x11e>
 8004900:	9000      	str	r0, [sp, #0]
 8004902:	695a      	ldr	r2, [r3, #20]
 8004904:	9200      	str	r2, [sp, #0]
 8004906:	699b      	ldr	r3, [r3, #24]
 8004908:	9300      	str	r3, [sp, #0]
 800490a:	9b00      	ldr	r3, [sp, #0]
 800490c:	e78c      	b.n	8004828 <HAL_I2C_EV_IRQHandler+0x38>
 800490e:	6d21      	ldr	r1, [r4, #80]	; 0x50
 8004910:	b989      	cbnz	r1, 8004936 <HAL_I2C_EV_IRQHandler+0x146>
 8004912:	6920      	ldr	r0, [r4, #16]
 8004914:	f5b0 4f40 	cmp.w	r0, #49152	; 0xc000
 8004918:	d10d      	bne.n	8004936 <HAL_I2C_EV_IRQHandler+0x146>
 800491a:	9101      	str	r1, [sp, #4]
 800491c:	695a      	ldr	r2, [r3, #20]
 800491e:	9201      	str	r2, [sp, #4]
 8004920:	699a      	ldr	r2, [r3, #24]
 8004922:	9201      	str	r2, [sp, #4]
 8004924:	9a01      	ldr	r2, [sp, #4]
 8004926:	681a      	ldr	r2, [r3, #0]
 8004928:	f442 7280 	orr.w	r2, r2, #256	; 0x100
 800492c:	601a      	str	r2, [r3, #0]
 800492e:	6d23      	ldr	r3, [r4, #80]	; 0x50
 8004930:	3301      	adds	r3, #1
 8004932:	6523      	str	r3, [r4, #80]	; 0x50
 8004934:	e778      	b.n	8004828 <HAL_I2C_EV_IRQHandler+0x38>
 8004936:	8d61      	ldrh	r1, [r4, #42]	; 0x2a
 8004938:	b289      	uxth	r1, r1
 800493a:	b951      	cbnz	r1, 8004952 <HAL_I2C_EV_IRQHandler+0x162>
 800493c:	9102      	str	r1, [sp, #8]
 800493e:	695a      	ldr	r2, [r3, #20]
 8004940:	9202      	str	r2, [sp, #8]
 8004942:	699a      	ldr	r2, [r3, #24]
 8004944:	9202      	str	r2, [sp, #8]
 8004946:	9a02      	ldr	r2, [sp, #8]
 8004948:	681a      	ldr	r2, [r3, #0]
 800494a:	f442 7200 	orr.w	r2, r2, #512	; 0x200
 800494e:	601a      	str	r2, [r3, #0]
 8004950:	e019      	b.n	8004986 <HAL_I2C_EV_IRQHandler+0x196>
 8004952:	8d61      	ldrh	r1, [r4, #42]	; 0x2a
 8004954:	b289      	uxth	r1, r1
 8004956:	2901      	cmp	r1, #1
 8004958:	d149      	bne.n	80049ee <HAL_I2C_EV_IRQHandler+0x1fe>
 800495a:	f512 3f80 	cmn.w	r2, #65536	; 0x10000
 800495e:	d11b      	bne.n	8004998 <HAL_I2C_EV_IRQHandler+0x1a8>
 8004960:	681a      	ldr	r2, [r3, #0]
 8004962:	f422 6280 	bic.w	r2, r2, #1024	; 0x400
 8004966:	601a      	str	r2, [r3, #0]
 8004968:	685a      	ldr	r2, [r3, #4]
 800496a:	f412 6200 	ands.w	r2, r2, #2048	; 0x800
 800496e:	d00c      	beq.n	800498a <HAL_I2C_EV_IRQHandler+0x19a>
 8004970:	681a      	ldr	r2, [r3, #0]
 8004972:	f422 6280 	bic.w	r2, r2, #1024	; 0x400
 8004976:	601a      	str	r2, [r3, #0]
 8004978:	2200      	movs	r2, #0
 800497a:	9203      	str	r2, [sp, #12]
 800497c:	695a      	ldr	r2, [r3, #20]
 800497e:	9203      	str	r2, [sp, #12]
 8004980:	699b      	ldr	r3, [r3, #24]
 8004982:	9303      	str	r3, [sp, #12]
 8004984:	9b03      	ldr	r3, [sp, #12]
 8004986:	2300      	movs	r3, #0
 8004988:	e7d3      	b.n	8004932 <HAL_I2C_EV_IRQHandler+0x142>
 800498a:	9204      	str	r2, [sp, #16]
 800498c:	695a      	ldr	r2, [r3, #20]
 800498e:	9204      	str	r2, [sp, #16]
 8004990:	699a      	ldr	r2, [r3, #24]
 8004992:	9204      	str	r2, [sp, #16]
 8004994:	9a04      	ldr	r2, [sp, #16]
 8004996:	e7d7      	b.n	8004948 <HAL_I2C_EV_IRQHandler+0x158>
 8004998:	2a08      	cmp	r2, #8
 800499a:	d01c      	beq.n	80049d6 <HAL_I2C_EV_IRQHandler+0x1e6>
 800499c:	2a20      	cmp	r2, #32
 800499e:	d01a      	beq.n	80049d6 <HAL_I2C_EV_IRQHandler+0x1e6>
 80049a0:	2d12      	cmp	r5, #18
 80049a2:	d10d      	bne.n	80049c0 <HAL_I2C_EV_IRQHandler+0x1d0>
 80049a4:	2a01      	cmp	r2, #1
 80049a6:	d116      	bne.n	80049d6 <HAL_I2C_EV_IRQHandler+0x1e6>
 80049a8:	681a      	ldr	r2, [r3, #0]
 80049aa:	f422 6280 	bic.w	r2, r2, #1024	; 0x400
 80049ae:	601a      	str	r2, [r3, #0]
 80049b0:	2200      	movs	r2, #0
 80049b2:	9205      	str	r2, [sp, #20]
 80049b4:	695a      	ldr	r2, [r3, #20]
 80049b6:	9205      	str	r2, [sp, #20]
 80049b8:	699b      	ldr	r3, [r3, #24]
 80049ba:	9305      	str	r3, [sp, #20]
 80049bc:	9b05      	ldr	r3, [sp, #20]
 80049be:	e7e2      	b.n	8004986 <HAL_I2C_EV_IRQHandler+0x196>
 80049c0:	2a10      	cmp	r2, #16
 80049c2:	d8f1      	bhi.n	80049a8 <HAL_I2C_EV_IRQHandler+0x1b8>
 80049c4:	4986      	ldr	r1, [pc, #536]	; (8004be0 <HAL_I2C_EV_IRQHandler+0x3f0>)
 80049c6:	fa21 f202 	lsr.w	r2, r1, r2
 80049ca:	07d7      	lsls	r7, r2, #31
 80049cc:	d5ec      	bpl.n	80049a8 <HAL_I2C_EV_IRQHandler+0x1b8>
 80049ce:	681a      	ldr	r2, [r3, #0]
 80049d0:	f442 6280 	orr.w	r2, r2, #1024	; 0x400
 80049d4:	e7eb      	b.n	80049ae <HAL_I2C_EV_IRQHandler+0x1be>
 80049d6:	681a      	ldr	r2, [r3, #0]
 80049d8:	f422 6280 	bic.w	r2, r2, #1024	; 0x400
 80049dc:	601a      	str	r2, [r3, #0]
 80049de:	2200      	movs	r2, #0
 80049e0:	9206      	str	r2, [sp, #24]
 80049e2:	695a      	ldr	r2, [r3, #20]
 80049e4:	9206      	str	r2, [sp, #24]
 80049e6:	699a      	ldr	r2, [r3, #24]
 80049e8:	9206      	str	r2, [sp, #24]
 80049ea:	9a06      	ldr	r2, [sp, #24]
 80049ec:	e7ac      	b.n	8004948 <HAL_I2C_EV_IRQHandler+0x158>
 80049ee:	8d61      	ldrh	r1, [r4, #42]	; 0x2a
 80049f0:	b289      	uxth	r1, r1
 80049f2:	2902      	cmp	r1, #2
 80049f4:	d138      	bne.n	8004a68 <HAL_I2C_EV_IRQHandler+0x278>
 80049f6:	2a10      	cmp	r2, #16
 80049f8:	d803      	bhi.n	8004a02 <HAL_I2C_EV_IRQHandler+0x212>
 80049fa:	4979      	ldr	r1, [pc, #484]	; (8004be0 <HAL_I2C_EV_IRQHandler+0x3f0>)
 80049fc:	40d1      	lsrs	r1, r2
 80049fe:	07ce      	lsls	r6, r1, #31
 8004a00:	d418      	bmi.n	8004a34 <HAL_I2C_EV_IRQHandler+0x244>
 8004a02:	6819      	ldr	r1, [r3, #0]
 8004a04:	f441 6100 	orr.w	r1, r1, #2048	; 0x800
 8004a08:	6019      	str	r1, [r3, #0]
 8004a0a:	2100      	movs	r1, #0
 8004a0c:	9107      	str	r1, [sp, #28]
 8004a0e:	6959      	ldr	r1, [r3, #20]
 8004a10:	9107      	str	r1, [sp, #28]
 8004a12:	6999      	ldr	r1, [r3, #24]
 8004a14:	9107      	str	r1, [sp, #28]
 8004a16:	9907      	ldr	r1, [sp, #28]
 8004a18:	6819      	ldr	r1, [r3, #0]
 8004a1a:	f421 6180 	bic.w	r1, r1, #1024	; 0x400
 8004a1e:	6019      	str	r1, [r3, #0]
 8004a20:	6859      	ldr	r1, [r3, #4]
 8004a22:	050d      	lsls	r5, r1, #20
 8004a24:	d5af      	bpl.n	8004986 <HAL_I2C_EV_IRQHandler+0x196>
 8004a26:	2a20      	cmp	r2, #32
 8004a28:	d81b      	bhi.n	8004a62 <HAL_I2C_EV_IRQHandler+0x272>
 8004a2a:	2a07      	cmp	r2, #7
 8004a2c:	d80e      	bhi.n	8004a4c <HAL_I2C_EV_IRQHandler+0x25c>
 8004a2e:	2a01      	cmp	r2, #1
 8004a30:	d1a9      	bne.n	8004986 <HAL_I2C_EV_IRQHandler+0x196>
 8004a32:	e011      	b.n	8004a58 <HAL_I2C_EV_IRQHandler+0x268>
 8004a34:	6819      	ldr	r1, [r3, #0]
 8004a36:	f441 6180 	orr.w	r1, r1, #1024	; 0x400
 8004a3a:	6019      	str	r1, [r3, #0]
 8004a3c:	2100      	movs	r1, #0
 8004a3e:	9108      	str	r1, [sp, #32]
 8004a40:	6959      	ldr	r1, [r3, #20]
 8004a42:	9108      	str	r1, [sp, #32]
 8004a44:	6999      	ldr	r1, [r3, #24]
 8004a46:	9108      	str	r1, [sp, #32]
 8004a48:	9908      	ldr	r1, [sp, #32]
 8004a4a:	e7e9      	b.n	8004a20 <HAL_I2C_EV_IRQHandler+0x230>
 8004a4c:	f1a2 0108 	sub.w	r1, r2, #8
 8004a50:	4a64      	ldr	r2, [pc, #400]	; (8004be4 <HAL_I2C_EV_IRQHandler+0x3f4>)
 8004a52:	40ca      	lsrs	r2, r1
 8004a54:	07d0      	lsls	r0, r2, #31
 8004a56:	d596      	bpl.n	8004986 <HAL_I2C_EV_IRQHandler+0x196>
 8004a58:	685a      	ldr	r2, [r3, #4]
 8004a5a:	f442 5280 	orr.w	r2, r2, #4096	; 0x1000
 8004a5e:	605a      	str	r2, [r3, #4]
 8004a60:	e791      	b.n	8004986 <HAL_I2C_EV_IRQHandler+0x196>
 8004a62:	f512 3f80 	cmn.w	r2, #65536	; 0x10000
 8004a66:	e7e3      	b.n	8004a30 <HAL_I2C_EV_IRQHandler+0x240>
 8004a68:	6819      	ldr	r1, [r3, #0]
 8004a6a:	f441 6180 	orr.w	r1, r1, #1024	; 0x400
 8004a6e:	6019      	str	r1, [r3, #0]
 8004a70:	6859      	ldr	r1, [r3, #4]
 8004a72:	0509      	lsls	r1, r1, #20
 8004a74:	d505      	bpl.n	8004a82 <HAL_I2C_EV_IRQHandler+0x292>
 8004a76:	2a20      	cmp	r2, #32
 8004a78:	d816      	bhi.n	8004aa8 <HAL_I2C_EV_IRQHandler+0x2b8>
 8004a7a:	2a07      	cmp	r2, #7
 8004a7c:	d809      	bhi.n	8004a92 <HAL_I2C_EV_IRQHandler+0x2a2>
 8004a7e:	2a01      	cmp	r2, #1
 8004a80:	d00d      	beq.n	8004a9e <HAL_I2C_EV_IRQHandler+0x2ae>
 8004a82:	2200      	movs	r2, #0
 8004a84:	9209      	str	r2, [sp, #36]	; 0x24
 8004a86:	695a      	ldr	r2, [r3, #20]
 8004a88:	9209      	str	r2, [sp, #36]	; 0x24
 8004a8a:	699b      	ldr	r3, [r3, #24]
 8004a8c:	9309      	str	r3, [sp, #36]	; 0x24
 8004a8e:	9b09      	ldr	r3, [sp, #36]	; 0x24
 8004a90:	e779      	b.n	8004986 <HAL_I2C_EV_IRQHandler+0x196>
 8004a92:	f1a2 0108 	sub.w	r1, r2, #8
 8004a96:	4a53      	ldr	r2, [pc, #332]	; (8004be4 <HAL_I2C_EV_IRQHandler+0x3f4>)
 8004a98:	40ca      	lsrs	r2, r1
 8004a9a:	07d2      	lsls	r2, r2, #31
 8004a9c:	d5f1      	bpl.n	8004a82 <HAL_I2C_EV_IRQHandler+0x292>
 8004a9e:	685a      	ldr	r2, [r3, #4]
 8004aa0:	f442 5280 	orr.w	r2, r2, #4096	; 0x1000
 8004aa4:	605a      	str	r2, [r3, #4]
 8004aa6:	e7ec      	b.n	8004a82 <HAL_I2C_EV_IRQHandler+0x292>
 8004aa8:	f512 3f80 	cmn.w	r2, #65536	; 0x10000
 8004aac:	e7e8      	b.n	8004a80 <HAL_I2C_EV_IRQHandler+0x290>
 8004aae:	2200      	movs	r2, #0
 8004ab0:	920a      	str	r2, [sp, #40]	; 0x28
 8004ab2:	695a      	ldr	r2, [r3, #20]
 8004ab4:	920a      	str	r2, [sp, #40]	; 0x28
 8004ab6:	699b      	ldr	r3, [r3, #24]
 8004ab8:	930a      	str	r3, [sp, #40]	; 0x28
 8004aba:	9b0a      	ldr	r3, [sp, #40]	; 0x28
 8004abc:	e6b4      	b.n	8004828 <HAL_I2C_EV_IRQHandler+0x38>
 8004abe:	077f      	lsls	r7, r7, #29
 8004ac0:	f140 8092 	bpl.w	8004be8 <HAL_I2C_EV_IRQHandler+0x3f8>
 8004ac4:	685e      	ldr	r6, [r3, #4]
 8004ac6:	0536      	lsls	r6, r6, #20
 8004ac8:	f53f aeae 	bmi.w	8004828 <HAL_I2C_EV_IRQHandler+0x38>
 8004acc:	0607      	lsls	r7, r0, #24
 8004ace:	f000 0604 	and.w	r6, r0, #4
 8004ad2:	d53e      	bpl.n	8004b52 <HAL_I2C_EV_IRQHandler+0x362>
 8004ad4:	0550      	lsls	r0, r2, #21
 8004ad6:	d53c      	bpl.n	8004b52 <HAL_I2C_EV_IRQHandler+0x362>
 8004ad8:	2e00      	cmp	r6, #0
 8004ada:	d13d      	bne.n	8004b58 <HAL_I2C_EV_IRQHandler+0x368>
 8004adc:	f894 203d 	ldrb.w	r2, [r4, #61]	; 0x3d
 8004ae0:	8d25      	ldrh	r5, [r4, #40]	; 0x28
 8004ae2:	f894 103e 	ldrb.w	r1, [r4, #62]	; 0x3e
 8004ae6:	b2d2      	uxtb	r2, r2
 8004ae8:	6ae0      	ldr	r0, [r4, #44]	; 0x2c
 8004aea:	b2c9      	uxtb	r1, r1
 8004aec:	b9c5      	cbnz	r5, 8004b20 <HAL_I2C_EV_IRQHandler+0x330>
 8004aee:	2a21      	cmp	r2, #33	; 0x21
 8004af0:	d118      	bne.n	8004b24 <HAL_I2C_EV_IRQHandler+0x334>
 8004af2:	2808      	cmp	r0, #8
 8004af4:	d058      	beq.n	8004ba8 <HAL_I2C_EV_IRQHandler+0x3b8>
 8004af6:	2820      	cmp	r0, #32
 8004af8:	d056      	beq.n	8004ba8 <HAL_I2C_EV_IRQHandler+0x3b8>
 8004afa:	f510 3f80 	cmn.w	r0, #65536	; 0x10000
 8004afe:	d053      	beq.n	8004ba8 <HAL_I2C_EV_IRQHandler+0x3b8>
 8004b00:	685a      	ldr	r2, [r3, #4]
 8004b02:	f422 62e0 	bic.w	r2, r2, #1792	; 0x700
 8004b06:	605a      	str	r2, [r3, #4]
 8004b08:	2311      	movs	r3, #17
 8004b0a:	6323      	str	r3, [r4, #48]	; 0x30
 8004b0c:	2300      	movs	r3, #0
 8004b0e:	f884 303e 	strb.w	r3, [r4, #62]	; 0x3e
 8004b12:	2320      	movs	r3, #32
 8004b14:	4620      	mov	r0, r4
 8004b16:	f884 303d 	strb.w	r3, [r4, #61]	; 0x3d
 8004b1a:	f7ff fcff 	bl	800451c <HAL_I2C_MasterTxCpltCallback>
 8004b1e:	e683      	b.n	8004828 <HAL_I2C_EV_IRQHandler+0x38>
 8004b20:	2a21      	cmp	r2, #33	; 0x21
 8004b22:	d005      	beq.n	8004b30 <HAL_I2C_EV_IRQHandler+0x340>
 8004b24:	2940      	cmp	r1, #64	; 0x40
 8004b26:	f47f ae7f 	bne.w	8004828 <HAL_I2C_EV_IRQHandler+0x38>
 8004b2a:	2a22      	cmp	r2, #34	; 0x22
 8004b2c:	f47f ae7c 	bne.w	8004828 <HAL_I2C_EV_IRQHandler+0x38>
 8004b30:	8d62      	ldrh	r2, [r4, #42]	; 0x2a
 8004b32:	b292      	uxth	r2, r2
 8004b34:	b91a      	cbnz	r2, 8004b3e <HAL_I2C_EV_IRQHandler+0x34e>
 8004b36:	685a      	ldr	r2, [r3, #4]
 8004b38:	f422 6280 	bic.w	r2, r2, #1024	; 0x400
 8004b3c:	e6ad      	b.n	800489a <HAL_I2C_EV_IRQHandler+0xaa>
 8004b3e:	f894 203e 	ldrb.w	r2, [r4, #62]	; 0x3e
 8004b42:	2a40      	cmp	r2, #64	; 0x40
 8004b44:	d116      	bne.n	8004b74 <HAL_I2C_EV_IRQHandler+0x384>
 8004b46:	4620      	mov	r0, r4
 8004b48:	b00f      	add	sp, #60	; 0x3c
 8004b4a:	e8bd 40f0 	ldmia.w	sp!, {r4, r5, r6, r7, lr}
 8004b4e:	f7ff bcec 	b.w	800452a <I2C_MemoryTransmit_TXE_BTF>
 8004b52:	2e00      	cmp	r6, #0
 8004b54:	f43f ae68 	beq.w	8004828 <HAL_I2C_EV_IRQHandler+0x38>
 8004b58:	0597      	lsls	r7, r2, #22
 8004b5a:	f57f ae65 	bpl.w	8004828 <HAL_I2C_EV_IRQHandler+0x38>
 8004b5e:	2921      	cmp	r1, #33	; 0x21
 8004b60:	d139      	bne.n	8004bd6 <HAL_I2C_EV_IRQHandler+0x3e6>
 8004b62:	6ae1      	ldr	r1, [r4, #44]	; 0x2c
 8004b64:	f894 203d 	ldrb.w	r2, [r4, #61]	; 0x3d
 8004b68:	2a21      	cmp	r2, #33	; 0x21
 8004b6a:	f47f ae5d 	bne.w	8004828 <HAL_I2C_EV_IRQHandler+0x38>
 8004b6e:	8d62      	ldrh	r2, [r4, #42]	; 0x2a
 8004b70:	b292      	uxth	r2, r2
 8004b72:	b14a      	cbz	r2, 8004b88 <HAL_I2C_EV_IRQHandler+0x398>
 8004b74:	6a62      	ldr	r2, [r4, #36]	; 0x24
 8004b76:	f812 1b01 	ldrb.w	r1, [r2], #1
 8004b7a:	6119      	str	r1, [r3, #16]
 8004b7c:	6262      	str	r2, [r4, #36]	; 0x24
 8004b7e:	8d63      	ldrh	r3, [r4, #42]	; 0x2a
 8004b80:	3b01      	subs	r3, #1
 8004b82:	b29b      	uxth	r3, r3
 8004b84:	8563      	strh	r3, [r4, #42]	; 0x2a
 8004b86:	e64f      	b.n	8004828 <HAL_I2C_EV_IRQHandler+0x38>
 8004b88:	2908      	cmp	r1, #8
 8004b8a:	d00d      	beq.n	8004ba8 <HAL_I2C_EV_IRQHandler+0x3b8>
 8004b8c:	2920      	cmp	r1, #32
 8004b8e:	d00b      	beq.n	8004ba8 <HAL_I2C_EV_IRQHandler+0x3b8>
 8004b90:	f511 3f80 	cmn.w	r1, #65536	; 0x10000
 8004b94:	d008      	beq.n	8004ba8 <HAL_I2C_EV_IRQHandler+0x3b8>
 8004b96:	6859      	ldr	r1, [r3, #4]
 8004b98:	f421 61e0 	bic.w	r1, r1, #1792	; 0x700
 8004b9c:	6059      	str	r1, [r3, #4]
 8004b9e:	2311      	movs	r3, #17
 8004ba0:	6323      	str	r3, [r4, #48]	; 0x30
 8004ba2:	f884 203e 	strb.w	r2, [r4, #62]	; 0x3e
 8004ba6:	e7b4      	b.n	8004b12 <HAL_I2C_EV_IRQHandler+0x322>
 8004ba8:	685a      	ldr	r2, [r3, #4]
 8004baa:	4620      	mov	r0, r4
 8004bac:	f422 62e0 	bic.w	r2, r2, #1792	; 0x700
 8004bb0:	605a      	str	r2, [r3, #4]
 8004bb2:	681a      	ldr	r2, [r3, #0]
 8004bb4:	f442 7200 	orr.w	r2, r2, #512	; 0x200
 8004bb8:	601a      	str	r2, [r3, #0]
 8004bba:	2300      	movs	r3, #0
 8004bbc:	2220      	movs	r2, #32
 8004bbe:	6323      	str	r3, [r4, #48]	; 0x30
 8004bc0:	f884 203d 	strb.w	r2, [r4, #61]	; 0x3d
 8004bc4:	f894 203e 	ldrb.w	r2, [r4, #62]	; 0x3e
 8004bc8:	f884 303e 	strb.w	r3, [r4, #62]	; 0x3e
 8004bcc:	2a40      	cmp	r2, #64	; 0x40
 8004bce:	d1a4      	bne.n	8004b1a <HAL_I2C_EV_IRQHandler+0x32a>
 8004bd0:	f7ff fcaa 	bl	8004528 <HAL_I2C_MemTxCpltCallback>
 8004bd4:	e628      	b.n	8004828 <HAL_I2C_EV_IRQHandler+0x38>
 8004bd6:	2d40      	cmp	r5, #64	; 0x40
 8004bd8:	f47f ae26 	bne.w	8004828 <HAL_I2C_EV_IRQHandler+0x38>
 8004bdc:	e7b3      	b.n	8004b46 <HAL_I2C_EV_IRQHandler+0x356>
 8004bde:	bf00      	nop
 8004be0:	00010014 	.word	0x00010014
 8004be4:	01000101 	.word	0x01000101
 8004be8:	6859      	ldr	r1, [r3, #4]
 8004bea:	050e      	lsls	r6, r1, #20
 8004bec:	f53f ae1c 	bmi.w	8004828 <HAL_I2C_EV_IRQHandler+0x38>
 8004bf0:	0645      	lsls	r5, r0, #25
 8004bf2:	f000 0104 	and.w	r1, r0, #4
 8004bf6:	d576      	bpl.n	8004ce6 <HAL_I2C_EV_IRQHandler+0x4f6>
 8004bf8:	0550      	lsls	r0, r2, #21
 8004bfa:	d574      	bpl.n	8004ce6 <HAL_I2C_EV_IRQHandler+0x4f6>
 8004bfc:	2900      	cmp	r1, #0
 8004bfe:	d175      	bne.n	8004cec <HAL_I2C_EV_IRQHandler+0x4fc>
 8004c00:	f894 203d 	ldrb.w	r2, [r4, #61]	; 0x3d
 8004c04:	2a22      	cmp	r2, #34	; 0x22
 8004c06:	f47f ae0f 	bne.w	8004828 <HAL_I2C_EV_IRQHandler+0x38>
 8004c0a:	8d62      	ldrh	r2, [r4, #42]	; 0x2a
 8004c0c:	b292      	uxth	r2, r2
 8004c0e:	2a03      	cmp	r2, #3
 8004c10:	d914      	bls.n	8004c3c <HAL_I2C_EV_IRQHandler+0x44c>
 8004c12:	691a      	ldr	r2, [r3, #16]
 8004c14:	6a63      	ldr	r3, [r4, #36]	; 0x24
 8004c16:	701a      	strb	r2, [r3, #0]
 8004c18:	6a63      	ldr	r3, [r4, #36]	; 0x24
 8004c1a:	3301      	adds	r3, #1
 8004c1c:	6263      	str	r3, [r4, #36]	; 0x24
 8004c1e:	8d63      	ldrh	r3, [r4, #42]	; 0x2a
 8004c20:	3b01      	subs	r3, #1
 8004c22:	b29b      	uxth	r3, r3
 8004c24:	8563      	strh	r3, [r4, #42]	; 0x2a
 8004c26:	8d63      	ldrh	r3, [r4, #42]	; 0x2a
 8004c28:	b29b      	uxth	r3, r3
 8004c2a:	2b03      	cmp	r3, #3
 8004c2c:	f47f adfc 	bne.w	8004828 <HAL_I2C_EV_IRQHandler+0x38>
 8004c30:	6822      	ldr	r2, [r4, #0]
 8004c32:	6853      	ldr	r3, [r2, #4]
 8004c34:	f423 6380 	bic.w	r3, r3, #1024	; 0x400
 8004c38:	6053      	str	r3, [r2, #4]
 8004c3a:	e5f5      	b.n	8004828 <HAL_I2C_EV_IRQHandler+0x38>
 8004c3c:	6ae0      	ldr	r0, [r4, #44]	; 0x2c
 8004c3e:	2802      	cmp	r0, #2
 8004c40:	f43f af79 	beq.w	8004b36 <HAL_I2C_EV_IRQHandler+0x346>
 8004c44:	2a01      	cmp	r2, #1
 8004c46:	f63f af76 	bhi.w	8004b36 <HAL_I2C_EV_IRQHandler+0x346>
 8004c4a:	910b      	str	r1, [sp, #44]	; 0x2c
 8004c4c:	f246 11a8 	movw	r1, #25000	; 0x61a8
 8004c50:	4a73      	ldr	r2, [pc, #460]	; (8004e20 <HAL_I2C_EV_IRQHandler+0x630>)
 8004c52:	6812      	ldr	r2, [r2, #0]
 8004c54:	fbb2 f2f1 	udiv	r2, r2, r1
 8004c58:	eb02 0282 	add.w	r2, r2, r2, lsl #2
 8004c5c:	920b      	str	r2, [sp, #44]	; 0x2c
 8004c5e:	9a0b      	ldr	r2, [sp, #44]	; 0x2c
 8004c60:	3a01      	subs	r2, #1
 8004c62:	920b      	str	r2, [sp, #44]	; 0x2c
 8004c64:	990b      	ldr	r1, [sp, #44]	; 0x2c
 8004c66:	b9d1      	cbnz	r1, 8004c9e <HAL_I2C_EV_IRQHandler+0x4ae>
 8004c68:	6c22      	ldr	r2, [r4, #64]	; 0x40
 8004c6a:	4620      	mov	r0, r4
 8004c6c:	f042 0220 	orr.w	r2, r2, #32
 8004c70:	6422      	str	r2, [r4, #64]	; 0x40
 8004c72:	685a      	ldr	r2, [r3, #4]
 8004c74:	f422 62e0 	bic.w	r2, r2, #1792	; 0x700
 8004c78:	605a      	str	r2, [r3, #4]
 8004c7a:	691a      	ldr	r2, [r3, #16]
 8004c7c:	6a63      	ldr	r3, [r4, #36]	; 0x24
 8004c7e:	701a      	strb	r2, [r3, #0]
 8004c80:	6a63      	ldr	r3, [r4, #36]	; 0x24
 8004c82:	3301      	adds	r3, #1
 8004c84:	6263      	str	r3, [r4, #36]	; 0x24
 8004c86:	8d63      	ldrh	r3, [r4, #42]	; 0x2a
 8004c88:	3b01      	subs	r3, #1
 8004c8a:	b29b      	uxth	r3, r3
 8004c8c:	8563      	strh	r3, [r4, #42]	; 0x2a
 8004c8e:	2320      	movs	r3, #32
 8004c90:	f884 303d 	strb.w	r3, [r4, #61]	; 0x3d
 8004c94:	f884 103e 	strb.w	r1, [r4, #62]	; 0x3e
 8004c98:	f7ff fca0 	bl	80045dc <HAL_I2C_ErrorCallback>
 8004c9c:	e5c4      	b.n	8004828 <HAL_I2C_EV_IRQHandler+0x38>
 8004c9e:	681a      	ldr	r2, [r3, #0]
 8004ca0:	f412 7200 	ands.w	r2, r2, #512	; 0x200
 8004ca4:	d1db      	bne.n	8004c5e <HAL_I2C_EV_IRQHandler+0x46e>
 8004ca6:	6819      	ldr	r1, [r3, #0]
 8004ca8:	f421 6180 	bic.w	r1, r1, #1024	; 0x400
 8004cac:	6019      	str	r1, [r3, #0]
 8004cae:	6859      	ldr	r1, [r3, #4]
 8004cb0:	f421 61e0 	bic.w	r1, r1, #1792	; 0x700
 8004cb4:	6059      	str	r1, [r3, #4]
 8004cb6:	6919      	ldr	r1, [r3, #16]
 8004cb8:	6a63      	ldr	r3, [r4, #36]	; 0x24
 8004cba:	7019      	strb	r1, [r3, #0]
 8004cbc:	6a63      	ldr	r3, [r4, #36]	; 0x24
 8004cbe:	3301      	adds	r3, #1
 8004cc0:	6263      	str	r3, [r4, #36]	; 0x24
 8004cc2:	8d63      	ldrh	r3, [r4, #42]	; 0x2a
 8004cc4:	3b01      	subs	r3, #1
 8004cc6:	b29b      	uxth	r3, r3
 8004cc8:	8563      	strh	r3, [r4, #42]	; 0x2a
 8004cca:	2320      	movs	r3, #32
 8004ccc:	f884 303d 	strb.w	r3, [r4, #61]	; 0x3d
 8004cd0:	f894 303e 	ldrb.w	r3, [r4, #62]	; 0x3e
 8004cd4:	f884 203e 	strb.w	r2, [r4, #62]	; 0x3e
 8004cd8:	2b40      	cmp	r3, #64	; 0x40
 8004cda:	d169      	bne.n	8004db0 <HAL_I2C_EV_IRQHandler+0x5c0>
 8004cdc:	6322      	str	r2, [r4, #48]	; 0x30
 8004cde:	4620      	mov	r0, r4
 8004ce0:	f7ff fc7b 	bl	80045da <HAL_I2C_MemRxCpltCallback>
 8004ce4:	e5a0      	b.n	8004828 <HAL_I2C_EV_IRQHandler+0x38>
 8004ce6:	2900      	cmp	r1, #0
 8004ce8:	f43f ad9e 	beq.w	8004828 <HAL_I2C_EV_IRQHandler+0x38>
 8004cec:	0592      	lsls	r2, r2, #22
 8004cee:	f57f ad9b 	bpl.w	8004828 <HAL_I2C_EV_IRQHandler+0x38>
 8004cf2:	6ae2      	ldr	r2, [r4, #44]	; 0x2c
 8004cf4:	8d60      	ldrh	r0, [r4, #42]	; 0x2a
 8004cf6:	6a61      	ldr	r1, [r4, #36]	; 0x24
 8004cf8:	b280      	uxth	r0, r0
 8004cfa:	2804      	cmp	r0, #4
 8004cfc:	d109      	bne.n	8004d12 <HAL_I2C_EV_IRQHandler+0x522>
 8004cfe:	685a      	ldr	r2, [r3, #4]
 8004d00:	f422 6280 	bic.w	r2, r2, #1024	; 0x400
 8004d04:	605a      	str	r2, [r3, #4]
 8004d06:	691b      	ldr	r3, [r3, #16]
 8004d08:	700b      	strb	r3, [r1, #0]
 8004d0a:	6a63      	ldr	r3, [r4, #36]	; 0x24
 8004d0c:	3301      	adds	r3, #1
 8004d0e:	6263      	str	r3, [r4, #36]	; 0x24
 8004d10:	e735      	b.n	8004b7e <HAL_I2C_EV_IRQHandler+0x38e>
 8004d12:	8d60      	ldrh	r0, [r4, #42]	; 0x2a
 8004d14:	b280      	uxth	r0, r0
 8004d16:	2803      	cmp	r0, #3
 8004d18:	d10c      	bne.n	8004d34 <HAL_I2C_EV_IRQHandler+0x544>
 8004d1a:	6858      	ldr	r0, [r3, #4]
 8004d1c:	2a04      	cmp	r2, #4
 8004d1e:	f420 6080 	bic.w	r0, r0, #1024	; 0x400
 8004d22:	6058      	str	r0, [r3, #4]
 8004d24:	d0ef      	beq.n	8004d06 <HAL_I2C_EV_IRQHandler+0x516>
 8004d26:	2a02      	cmp	r2, #2
 8004d28:	d0ed      	beq.n	8004d06 <HAL_I2C_EV_IRQHandler+0x516>
 8004d2a:	681a      	ldr	r2, [r3, #0]
 8004d2c:	f422 6280 	bic.w	r2, r2, #1024	; 0x400
 8004d30:	601a      	str	r2, [r3, #0]
 8004d32:	e7e8      	b.n	8004d06 <HAL_I2C_EV_IRQHandler+0x516>
 8004d34:	8d60      	ldrh	r0, [r4, #42]	; 0x2a
 8004d36:	b280      	uxth	r0, r0
 8004d38:	2802      	cmp	r0, #2
 8004d3a:	d1e4      	bne.n	8004d06 <HAL_I2C_EV_IRQHandler+0x516>
 8004d3c:	2a04      	cmp	r2, #4
 8004d3e:	d033      	beq.n	8004da8 <HAL_I2C_EV_IRQHandler+0x5b8>
 8004d40:	d807      	bhi.n	8004d52 <HAL_I2C_EV_IRQHandler+0x562>
 8004d42:	2a01      	cmp	r2, #1
 8004d44:	d007      	beq.n	8004d56 <HAL_I2C_EV_IRQHandler+0x566>
 8004d46:	2a02      	cmp	r2, #2
 8004d48:	d02e      	beq.n	8004da8 <HAL_I2C_EV_IRQHandler+0x5b8>
 8004d4a:	681a      	ldr	r2, [r3, #0]
 8004d4c:	f442 7200 	orr.w	r2, r2, #512	; 0x200
 8004d50:	e004      	b.n	8004d5c <HAL_I2C_EV_IRQHandler+0x56c>
 8004d52:	2a10      	cmp	r2, #16
 8004d54:	d1f9      	bne.n	8004d4a <HAL_I2C_EV_IRQHandler+0x55a>
 8004d56:	681a      	ldr	r2, [r3, #0]
 8004d58:	f422 6280 	bic.w	r2, r2, #1024	; 0x400
 8004d5c:	601a      	str	r2, [r3, #0]
 8004d5e:	691b      	ldr	r3, [r3, #16]
 8004d60:	700b      	strb	r3, [r1, #0]
 8004d62:	6a62      	ldr	r2, [r4, #36]	; 0x24
 8004d64:	1c53      	adds	r3, r2, #1
 8004d66:	6263      	str	r3, [r4, #36]	; 0x24
 8004d68:	8d63      	ldrh	r3, [r4, #42]	; 0x2a
 8004d6a:	3b01      	subs	r3, #1
 8004d6c:	b29b      	uxth	r3, r3
 8004d6e:	8563      	strh	r3, [r4, #42]	; 0x2a
 8004d70:	6823      	ldr	r3, [r4, #0]
 8004d72:	691b      	ldr	r3, [r3, #16]
 8004d74:	7053      	strb	r3, [r2, #1]
 8004d76:	6a63      	ldr	r3, [r4, #36]	; 0x24
 8004d78:	6822      	ldr	r2, [r4, #0]
 8004d7a:	3301      	adds	r3, #1
 8004d7c:	6263      	str	r3, [r4, #36]	; 0x24
 8004d7e:	8d63      	ldrh	r3, [r4, #42]	; 0x2a
 8004d80:	3b01      	subs	r3, #1
 8004d82:	b29b      	uxth	r3, r3
 8004d84:	8563      	strh	r3, [r4, #42]	; 0x2a
 8004d86:	6853      	ldr	r3, [r2, #4]
 8004d88:	f423 7340 	bic.w	r3, r3, #768	; 0x300
 8004d8c:	6053      	str	r3, [r2, #4]
 8004d8e:	2320      	movs	r3, #32
 8004d90:	f884 303d 	strb.w	r3, [r4, #61]	; 0x3d
 8004d94:	f894 303e 	ldrb.w	r3, [r4, #62]	; 0x3e
 8004d98:	2b40      	cmp	r3, #64	; 0x40
 8004d9a:	f04f 0300 	mov.w	r3, #0
 8004d9e:	f884 303e 	strb.w	r3, [r4, #62]	; 0x3e
 8004da2:	d105      	bne.n	8004db0 <HAL_I2C_EV_IRQHandler+0x5c0>
 8004da4:	6323      	str	r3, [r4, #48]	; 0x30
 8004da6:	e79a      	b.n	8004cde <HAL_I2C_EV_IRQHandler+0x4ee>
 8004da8:	681a      	ldr	r2, [r3, #0]
 8004daa:	f442 6280 	orr.w	r2, r2, #1024	; 0x400
 8004dae:	e7d5      	b.n	8004d5c <HAL_I2C_EV_IRQHandler+0x56c>
 8004db0:	2312      	movs	r3, #18
 8004db2:	4620      	mov	r0, r4
 8004db4:	6323      	str	r3, [r4, #48]	; 0x30
 8004db6:	f7ff fbb2 	bl	800451e <HAL_I2C_MasterRxCpltCallback>
 8004dba:	e535      	b.n	8004828 <HAL_I2C_EV_IRQHandler+0x38>
 8004dbc:	6c20      	ldr	r0, [r4, #64]	; 0x40
 8004dbe:	b310      	cbz	r0, 8004e06 <HAL_I2C_EV_IRQHandler+0x616>
 8004dc0:	2500      	movs	r5, #0
 8004dc2:	6958      	ldr	r0, [r3, #20]
 8004dc4:	0787      	lsls	r7, r0, #30
 8004dc6:	d52d      	bpl.n	8004e24 <HAL_I2C_EV_IRQHandler+0x634>
 8004dc8:	0596      	lsls	r6, r2, #22
 8004dca:	d52b      	bpl.n	8004e24 <HAL_I2C_EV_IRQHandler+0x634>
 8004dcc:	6c22      	ldr	r2, [r4, #64]	; 0x40
 8004dce:	b102      	cbz	r2, 8004dd2 <HAL_I2C_EV_IRQHandler+0x5e2>
 8004dd0:	699d      	ldr	r5, [r3, #24]
 8004dd2:	f894 203d 	ldrb.w	r2, [r4, #61]	; 0x3d
 8004dd6:	f002 0228 	and.w	r2, r2, #40	; 0x28
 8004dda:	2a28      	cmp	r2, #40	; 0x28
 8004ddc:	d116      	bne.n	8004e0c <HAL_I2C_EV_IRQHandler+0x61c>
 8004dde:	685a      	ldr	r2, [r3, #4]
 8004de0:	062f      	lsls	r7, r5, #24
 8004de2:	f422 6280 	bic.w	r2, r2, #1024	; 0x400
 8004de6:	605a      	str	r2, [r3, #4]
 8004de8:	f04f 0300 	mov.w	r3, #0
 8004dec:	f085 0104 	eor.w	r1, r5, #4
 8004df0:	4620      	mov	r0, r4
 8004df2:	bf54      	ite	pl
 8004df4:	89a2      	ldrhpl	r2, [r4, #12]
 8004df6:	8b22      	ldrhmi	r2, [r4, #24]
 8004df8:	f3c1 0180 	ubfx	r1, r1, #2, #1
 8004dfc:	f884 303c 	strb.w	r3, [r4, #60]	; 0x3c
 8004e00:	f7ff fb90 	bl	8004524 <HAL_I2C_AddrCallback>
 8004e04:	e510      	b.n	8004828 <HAL_I2C_EV_IRQHandler+0x38>
 8004e06:	699d      	ldr	r5, [r3, #24]
 8004e08:	6958      	ldr	r0, [r3, #20]
 8004e0a:	e7db      	b.n	8004dc4 <HAL_I2C_EV_IRQHandler+0x5d4>
 8004e0c:	2200      	movs	r2, #0
 8004e0e:	920c      	str	r2, [sp, #48]	; 0x30
 8004e10:	6959      	ldr	r1, [r3, #20]
 8004e12:	910c      	str	r1, [sp, #48]	; 0x30
 8004e14:	699b      	ldr	r3, [r3, #24]
 8004e16:	f884 203c 	strb.w	r2, [r4, #60]	; 0x3c
 8004e1a:	930c      	str	r3, [sp, #48]	; 0x30
 8004e1c:	9b0c      	ldr	r3, [sp, #48]	; 0x30
 8004e1e:	e503      	b.n	8004828 <HAL_I2C_EV_IRQHandler+0x38>
 8004e20:	20000020 	.word	0x20000020
 8004e24:	06c6      	lsls	r6, r0, #27
 8004e26:	f140 80b1 	bpl.w	8004f8c <HAL_I2C_EV_IRQHandler+0x79c>
 8004e2a:	0595      	lsls	r5, r2, #22
 8004e2c:	f140 80ae 	bpl.w	8004f8c <HAL_I2C_EV_IRQHandler+0x79c>
 8004e30:	f894 503d 	ldrb.w	r5, [r4, #61]	; 0x3d
 8004e34:	685a      	ldr	r2, [r3, #4]
 8004e36:	b2ed      	uxtb	r5, r5
 8004e38:	f422 62e0 	bic.w	r2, r2, #1792	; 0x700
 8004e3c:	605a      	str	r2, [r3, #4]
 8004e3e:	2200      	movs	r2, #0
 8004e40:	920d      	str	r2, [sp, #52]	; 0x34
 8004e42:	695a      	ldr	r2, [r3, #20]
 8004e44:	920d      	str	r2, [sp, #52]	; 0x34
 8004e46:	681a      	ldr	r2, [r3, #0]
 8004e48:	f042 0201 	orr.w	r2, r2, #1
 8004e4c:	601a      	str	r2, [r3, #0]
 8004e4e:	9a0d      	ldr	r2, [sp, #52]	; 0x34
 8004e50:	681a      	ldr	r2, [r3, #0]
 8004e52:	f422 6280 	bic.w	r2, r2, #1024	; 0x400
 8004e56:	601a      	str	r2, [r3, #0]
 8004e58:	685a      	ldr	r2, [r3, #4]
 8004e5a:	0510      	lsls	r0, r2, #20
 8004e5c:	d520      	bpl.n	8004ea0 <HAL_I2C_EV_IRQHandler+0x6b0>
 8004e5e:	f005 02f7 	and.w	r2, r5, #247	; 0xf7
 8004e62:	2a22      	cmp	r2, #34	; 0x22
 8004e64:	d14a      	bne.n	8004efc <HAL_I2C_EV_IRQHandler+0x70c>
 8004e66:	6ba0      	ldr	r0, [r4, #56]	; 0x38
 8004e68:	6802      	ldr	r2, [r0, #0]
 8004e6a:	6852      	ldr	r2, [r2, #4]
 8004e6c:	b292      	uxth	r2, r2
 8004e6e:	8562      	strh	r2, [r4, #42]	; 0x2a
 8004e70:	8d62      	ldrh	r2, [r4, #42]	; 0x2a
 8004e72:	b292      	uxth	r2, r2
 8004e74:	b11a      	cbz	r2, 8004e7e <HAL_I2C_EV_IRQHandler+0x68e>
 8004e76:	6c22      	ldr	r2, [r4, #64]	; 0x40
 8004e78:	f042 0204 	orr.w	r2, r2, #4
 8004e7c:	6422      	str	r2, [r4, #64]	; 0x40
 8004e7e:	685a      	ldr	r2, [r3, #4]
 8004e80:	f422 6200 	bic.w	r2, r2, #2048	; 0x800
 8004e84:	605a      	str	r2, [r3, #4]
 8004e86:	f7fe fb61 	bl	800354c <HAL_DMA_GetState>
 8004e8a:	2801      	cmp	r0, #1
 8004e8c:	d008      	beq.n	8004ea0 <HAL_I2C_EV_IRQHandler+0x6b0>
 8004e8e:	6ba0      	ldr	r0, [r4, #56]	; 0x38
 8004e90:	4b79      	ldr	r3, [pc, #484]	; (8005078 <HAL_I2C_EV_IRQHandler+0x888>)
 8004e92:	6343      	str	r3, [r0, #52]	; 0x34
 8004e94:	f7fe fb12 	bl	80034bc <HAL_DMA_Abort_IT>
 8004e98:	b110      	cbz	r0, 8004ea0 <HAL_I2C_EV_IRQHandler+0x6b0>
 8004e9a:	6ba0      	ldr	r0, [r4, #56]	; 0x38
 8004e9c:	6b43      	ldr	r3, [r0, #52]	; 0x34
 8004e9e:	4798      	blx	r3
 8004ea0:	8d63      	ldrh	r3, [r4, #42]	; 0x2a
 8004ea2:	b29b      	uxth	r3, r3
 8004ea4:	b313      	cbz	r3, 8004eec <HAL_I2C_EV_IRQHandler+0x6fc>
 8004ea6:	6823      	ldr	r3, [r4, #0]
 8004ea8:	695a      	ldr	r2, [r3, #20]
 8004eaa:	0751      	lsls	r1, r2, #29
 8004eac:	d509      	bpl.n	8004ec2 <HAL_I2C_EV_IRQHandler+0x6d2>
 8004eae:	691a      	ldr	r2, [r3, #16]
 8004eb0:	6a63      	ldr	r3, [r4, #36]	; 0x24
 8004eb2:	701a      	strb	r2, [r3, #0]
 8004eb4:	6a63      	ldr	r3, [r4, #36]	; 0x24
 8004eb6:	3301      	adds	r3, #1
 8004eb8:	6263      	str	r3, [r4, #36]	; 0x24
 8004eba:	8d63      	ldrh	r3, [r4, #42]	; 0x2a
 8004ebc:	3b01      	subs	r3, #1
 8004ebe:	b29b      	uxth	r3, r3
 8004ec0:	8563      	strh	r3, [r4, #42]	; 0x2a
 8004ec2:	6823      	ldr	r3, [r4, #0]
 8004ec4:	695a      	ldr	r2, [r3, #20]
 8004ec6:	0652      	lsls	r2, r2, #25
 8004ec8:	d509      	bpl.n	8004ede <HAL_I2C_EV_IRQHandler+0x6ee>
 8004eca:	691a      	ldr	r2, [r3, #16]
 8004ecc:	6a63      	ldr	r3, [r4, #36]	; 0x24
 8004ece:	701a      	strb	r2, [r3, #0]
 8004ed0:	6a63      	ldr	r3, [r4, #36]	; 0x24
 8004ed2:	3301      	adds	r3, #1
 8004ed4:	6263      	str	r3, [r4, #36]	; 0x24
 8004ed6:	8d63      	ldrh	r3, [r4, #42]	; 0x2a
 8004ed8:	3b01      	subs	r3, #1
 8004eda:	b29b      	uxth	r3, r3
 8004edc:	8563      	strh	r3, [r4, #42]	; 0x2a
 8004ede:	8d63      	ldrh	r3, [r4, #42]	; 0x2a
 8004ee0:	b29b      	uxth	r3, r3
 8004ee2:	b11b      	cbz	r3, 8004eec <HAL_I2C_EV_IRQHandler+0x6fc>
 8004ee4:	6c23      	ldr	r3, [r4, #64]	; 0x40
 8004ee6:	f043 0304 	orr.w	r3, r3, #4
 8004eea:	6423      	str	r3, [r4, #64]	; 0x40
 8004eec:	6c23      	ldr	r3, [r4, #64]	; 0x40
 8004eee:	b313      	cbz	r3, 8004f36 <HAL_I2C_EV_IRQHandler+0x746>
 8004ef0:	4620      	mov	r0, r4
 8004ef2:	b00f      	add	sp, #60	; 0x3c
 8004ef4:	e8bd 40f0 	ldmia.w	sp!, {r4, r5, r6, r7, lr}
 8004ef8:	f7ff bbd2 	b.w	80046a0 <I2C_ITError>
 8004efc:	6b60      	ldr	r0, [r4, #52]	; 0x34
 8004efe:	6802      	ldr	r2, [r0, #0]
 8004f00:	6852      	ldr	r2, [r2, #4]
 8004f02:	b292      	uxth	r2, r2
 8004f04:	8562      	strh	r2, [r4, #42]	; 0x2a
 8004f06:	8d62      	ldrh	r2, [r4, #42]	; 0x2a
 8004f08:	b292      	uxth	r2, r2
 8004f0a:	b11a      	cbz	r2, 8004f14 <HAL_I2C_EV_IRQHandler+0x724>
 8004f0c:	6c22      	ldr	r2, [r4, #64]	; 0x40
 8004f0e:	f042 0204 	orr.w	r2, r2, #4
 8004f12:	6422      	str	r2, [r4, #64]	; 0x40
 8004f14:	685a      	ldr	r2, [r3, #4]
 8004f16:	f422 6200 	bic.w	r2, r2, #2048	; 0x800
 8004f1a:	605a      	str	r2, [r3, #4]
 8004f1c:	f7fe fb16 	bl	800354c <HAL_DMA_GetState>
 8004f20:	2801      	cmp	r0, #1
 8004f22:	d0bd      	beq.n	8004ea0 <HAL_I2C_EV_IRQHandler+0x6b0>
 8004f24:	6b60      	ldr	r0, [r4, #52]	; 0x34
 8004f26:	4b54      	ldr	r3, [pc, #336]	; (8005078 <HAL_I2C_EV_IRQHandler+0x888>)
 8004f28:	6343      	str	r3, [r0, #52]	; 0x34
 8004f2a:	f7fe fac7 	bl	80034bc <HAL_DMA_Abort_IT>
 8004f2e:	2800      	cmp	r0, #0
 8004f30:	d0b6      	beq.n	8004ea0 <HAL_I2C_EV_IRQHandler+0x6b0>
 8004f32:	6b60      	ldr	r0, [r4, #52]	; 0x34
 8004f34:	e7b2      	b.n	8004e9c <HAL_I2C_EV_IRQHandler+0x6ac>
 8004f36:	2d2a      	cmp	r5, #42	; 0x2a
 8004f38:	d106      	bne.n	8004f48 <HAL_I2C_EV_IRQHandler+0x758>
 8004f3a:	6323      	str	r3, [r4, #48]	; 0x30
 8004f3c:	2328      	movs	r3, #40	; 0x28
 8004f3e:	4620      	mov	r0, r4
 8004f40:	f884 303d 	strb.w	r3, [r4, #61]	; 0x3d
 8004f44:	f7ff faed 	bl	8004522 <HAL_I2C_SlaveRxCpltCallback>
 8004f48:	f894 303d 	ldrb.w	r3, [r4, #61]	; 0x3d
 8004f4c:	2b28      	cmp	r3, #40	; 0x28
 8004f4e:	d10c      	bne.n	8004f6a <HAL_I2C_EV_IRQHandler+0x77a>
 8004f50:	4b4a      	ldr	r3, [pc, #296]	; (800507c <HAL_I2C_EV_IRQHandler+0x88c>)
 8004f52:	2220      	movs	r2, #32
 8004f54:	62e3      	str	r3, [r4, #44]	; 0x2c
 8004f56:	2300      	movs	r3, #0
 8004f58:	4620      	mov	r0, r4
 8004f5a:	6323      	str	r3, [r4, #48]	; 0x30
 8004f5c:	f884 203d 	strb.w	r2, [r4, #61]	; 0x3d
 8004f60:	f884 303e 	strb.w	r3, [r4, #62]	; 0x3e
 8004f64:	f7ff fadf 	bl	8004526 <HAL_I2C_ListenCpltCallback>
 8004f68:	e45e      	b.n	8004828 <HAL_I2C_EV_IRQHandler+0x38>
 8004f6a:	6b23      	ldr	r3, [r4, #48]	; 0x30
 8004f6c:	2b22      	cmp	r3, #34	; 0x22
 8004f6e:	d002      	beq.n	8004f76 <HAL_I2C_EV_IRQHandler+0x786>
 8004f70:	2d22      	cmp	r5, #34	; 0x22
 8004f72:	f47f ac59 	bne.w	8004828 <HAL_I2C_EV_IRQHandler+0x38>
 8004f76:	2300      	movs	r3, #0
 8004f78:	2220      	movs	r2, #32
 8004f7a:	6323      	str	r3, [r4, #48]	; 0x30
 8004f7c:	f884 203d 	strb.w	r2, [r4, #61]	; 0x3d
 8004f80:	f884 303e 	strb.w	r3, [r4, #62]	; 0x3e
 8004f84:	4620      	mov	r0, r4
 8004f86:	f7ff facc 	bl	8004522 <HAL_I2C_SlaveRxCpltCallback>
 8004f8a:	e44d      	b.n	8004828 <HAL_I2C_EV_IRQHandler+0x38>
 8004f8c:	f001 01f7 	and.w	r1, r1, #247	; 0xf7
 8004f90:	2921      	cmp	r1, #33	; 0x21
 8004f92:	f000 0504 	and.w	r5, r0, #4
 8004f96:	d135      	bne.n	8005004 <HAL_I2C_EV_IRQHandler+0x814>
 8004f98:	0607      	lsls	r7, r0, #24
 8004f9a:	d527      	bpl.n	8004fec <HAL_I2C_EV_IRQHandler+0x7fc>
 8004f9c:	0556      	lsls	r6, r2, #21
 8004f9e:	d525      	bpl.n	8004fec <HAL_I2C_EV_IRQHandler+0x7fc>
 8004fa0:	bb3d      	cbnz	r5, 8004ff2 <HAL_I2C_EV_IRQHandler+0x802>
 8004fa2:	f894 003d 	ldrb.w	r0, [r4, #61]	; 0x3d
 8004fa6:	8d62      	ldrh	r2, [r4, #42]	; 0x2a
 8004fa8:	b2c0      	uxtb	r0, r0
 8004faa:	b292      	uxth	r2, r2
 8004fac:	2a00      	cmp	r2, #0
 8004fae:	f43f ac3b 	beq.w	8004828 <HAL_I2C_EV_IRQHandler+0x38>
 8004fb2:	6a62      	ldr	r2, [r4, #36]	; 0x24
 8004fb4:	f812 5b01 	ldrb.w	r5, [r2], #1
 8004fb8:	611d      	str	r5, [r3, #16]
 8004fba:	6262      	str	r2, [r4, #36]	; 0x24
 8004fbc:	8d62      	ldrh	r2, [r4, #42]	; 0x2a
 8004fbe:	3a01      	subs	r2, #1
 8004fc0:	b292      	uxth	r2, r2
 8004fc2:	8562      	strh	r2, [r4, #42]	; 0x2a
 8004fc4:	8d62      	ldrh	r2, [r4, #42]	; 0x2a
 8004fc6:	b292      	uxth	r2, r2
 8004fc8:	2a00      	cmp	r2, #0
 8004fca:	f47f ac2d 	bne.w	8004828 <HAL_I2C_EV_IRQHandler+0x38>
 8004fce:	2829      	cmp	r0, #41	; 0x29
 8004fd0:	f47f ac2a 	bne.w	8004828 <HAL_I2C_EV_IRQHandler+0x38>
 8004fd4:	685a      	ldr	r2, [r3, #4]
 8004fd6:	4620      	mov	r0, r4
 8004fd8:	f422 6280 	bic.w	r2, r2, #1024	; 0x400
 8004fdc:	605a      	str	r2, [r3, #4]
 8004fde:	2328      	movs	r3, #40	; 0x28
 8004fe0:	6321      	str	r1, [r4, #48]	; 0x30
 8004fe2:	f884 303d 	strb.w	r3, [r4, #61]	; 0x3d
 8004fe6:	f7ff fa9b 	bl	8004520 <HAL_I2C_SlaveTxCpltCallback>
 8004fea:	e41d      	b.n	8004828 <HAL_I2C_EV_IRQHandler+0x38>
 8004fec:	2d00      	cmp	r5, #0
 8004fee:	f43f ac1b 	beq.w	8004828 <HAL_I2C_EV_IRQHandler+0x38>
 8004ff2:	0595      	lsls	r5, r2, #22
 8004ff4:	f57f ac18 	bpl.w	8004828 <HAL_I2C_EV_IRQHandler+0x38>
 8004ff8:	8d62      	ldrh	r2, [r4, #42]	; 0x2a
 8004ffa:	b292      	uxth	r2, r2
 8004ffc:	2a00      	cmp	r2, #0
 8004ffe:	f43f ac13 	beq.w	8004828 <HAL_I2C_EV_IRQHandler+0x38>
 8005002:	e5b7      	b.n	8004b74 <HAL_I2C_EV_IRQHandler+0x384>
 8005004:	0640      	lsls	r0, r0, #25
 8005006:	d527      	bpl.n	8005058 <HAL_I2C_EV_IRQHandler+0x868>
 8005008:	0551      	lsls	r1, r2, #21
 800500a:	d525      	bpl.n	8005058 <HAL_I2C_EV_IRQHandler+0x868>
 800500c:	bb3d      	cbnz	r5, 800505e <HAL_I2C_EV_IRQHandler+0x86e>
 800500e:	f894 203d 	ldrb.w	r2, [r4, #61]	; 0x3d
 8005012:	8d61      	ldrh	r1, [r4, #42]	; 0x2a
 8005014:	b2d2      	uxtb	r2, r2
 8005016:	b289      	uxth	r1, r1
 8005018:	2900      	cmp	r1, #0
 800501a:	f43f ac05 	beq.w	8004828 <HAL_I2C_EV_IRQHandler+0x38>
 800501e:	6919      	ldr	r1, [r3, #16]
 8005020:	6a63      	ldr	r3, [r4, #36]	; 0x24
 8005022:	7019      	strb	r1, [r3, #0]
 8005024:	6a63      	ldr	r3, [r4, #36]	; 0x24
 8005026:	3301      	adds	r3, #1
 8005028:	6263      	str	r3, [r4, #36]	; 0x24
 800502a:	8d63      	ldrh	r3, [r4, #42]	; 0x2a
 800502c:	3b01      	subs	r3, #1
 800502e:	b29b      	uxth	r3, r3
 8005030:	8563      	strh	r3, [r4, #42]	; 0x2a
 8005032:	8d63      	ldrh	r3, [r4, #42]	; 0x2a
 8005034:	b29b      	uxth	r3, r3
 8005036:	2b00      	cmp	r3, #0
 8005038:	f47f abf6 	bne.w	8004828 <HAL_I2C_EV_IRQHandler+0x38>
 800503c:	2a2a      	cmp	r2, #42	; 0x2a
 800503e:	f47f abf3 	bne.w	8004828 <HAL_I2C_EV_IRQHandler+0x38>
 8005042:	6822      	ldr	r2, [r4, #0]
 8005044:	6853      	ldr	r3, [r2, #4]
 8005046:	f423 6380 	bic.w	r3, r3, #1024	; 0x400
 800504a:	6053      	str	r3, [r2, #4]
 800504c:	2322      	movs	r3, #34	; 0x22
 800504e:	6323      	str	r3, [r4, #48]	; 0x30
 8005050:	2328      	movs	r3, #40	; 0x28
 8005052:	f884 303d 	strb.w	r3, [r4, #61]	; 0x3d
 8005056:	e795      	b.n	8004f84 <HAL_I2C_EV_IRQHandler+0x794>
 8005058:	2d00      	cmp	r5, #0
 800505a:	f43f abe5 	beq.w	8004828 <HAL_I2C_EV_IRQHandler+0x38>
 800505e:	0592      	lsls	r2, r2, #22
 8005060:	f57f abe2 	bpl.w	8004828 <HAL_I2C_EV_IRQHandler+0x38>
 8005064:	8d62      	ldrh	r2, [r4, #42]	; 0x2a
 8005066:	b292      	uxth	r2, r2
 8005068:	2a00      	cmp	r2, #0
 800506a:	f43f abdd 	beq.w	8004828 <HAL_I2C_EV_IRQHandler+0x38>
 800506e:	691a      	ldr	r2, [r3, #16]
 8005070:	6a63      	ldr	r3, [r4, #36]	; 0x24
 8005072:	701a      	strb	r2, [r3, #0]
 8005074:	e649      	b.n	8004d0a <HAL_I2C_EV_IRQHandler+0x51a>
 8005076:	bf00      	nop
 8005078:	080045e1 	.word	0x080045e1
 800507c:	ffff0000 	.word	0xffff0000

08005080 <HAL_I2C_ER_IRQHandler>:
 8005080:	b5f8      	push	{r3, r4, r5, r6, r7, lr}
 8005082:	6803      	ldr	r3, [r0, #0]
 8005084:	4604      	mov	r4, r0
 8005086:	695f      	ldr	r7, [r3, #20]
 8005088:	685e      	ldr	r6, [r3, #4]
 800508a:	f890 203e 	ldrb.w	r2, [r0, #62]	; 0x3e
 800508e:	f417 7580 	ands.w	r5, r7, #256	; 0x100
 8005092:	b2d2      	uxtb	r2, r2
 8005094:	d00a      	beq.n	80050ac <HAL_I2C_ER_IRQHandler+0x2c>
 8005096:	f416 7580 	ands.w	r5, r6, #256	; 0x100
 800509a:	d007      	beq.n	80050ac <HAL_I2C_ER_IRQHandler+0x2c>
 800509c:	f46f 7180 	mvn.w	r1, #256	; 0x100
 80050a0:	2501      	movs	r5, #1
 80050a2:	6159      	str	r1, [r3, #20]
 80050a4:	6819      	ldr	r1, [r3, #0]
 80050a6:	f441 4100 	orr.w	r1, r1, #32768	; 0x8000
 80050aa:	6019      	str	r1, [r3, #0]
 80050ac:	05b8      	lsls	r0, r7, #22
 80050ae:	d506      	bpl.n	80050be <HAL_I2C_ER_IRQHandler+0x3e>
 80050b0:	05f1      	lsls	r1, r6, #23
 80050b2:	bf42      	ittt	mi
 80050b4:	f46f 7100 	mvnmi.w	r1, #512	; 0x200
 80050b8:	f045 0502 	orrmi.w	r5, r5, #2
 80050bc:	6159      	strmi	r1, [r3, #20]
 80050be:	0578      	lsls	r0, r7, #21
 80050c0:	d536      	bpl.n	8005130 <HAL_I2C_ER_IRQHandler+0xb0>
 80050c2:	05f1      	lsls	r1, r6, #23
 80050c4:	d534      	bpl.n	8005130 <HAL_I2C_ER_IRQHandler+0xb0>
 80050c6:	8d60      	ldrh	r0, [r4, #42]	; 0x2a
 80050c8:	f894 103d 	ldrb.w	r1, [r4, #61]	; 0x3d
 80050cc:	2a20      	cmp	r2, #32
 80050ce:	f8d4 c030 	ldr.w	ip, [r4, #48]	; 0x30
 80050d2:	b280      	uxth	r0, r0
 80050d4:	b2c9      	uxtb	r1, r1
 80050d6:	d15f      	bne.n	8005198 <HAL_I2C_ER_IRQHandler+0x118>
 80050d8:	2800      	cmp	r0, #0
 80050da:	d15d      	bne.n	8005198 <HAL_I2C_ER_IRQHandler+0x118>
 80050dc:	f001 00f7 	and.w	r0, r1, #247	; 0xf7
 80050e0:	2821      	cmp	r0, #33	; 0x21
 80050e2:	d004      	beq.n	80050ee <HAL_I2C_ER_IRQHandler+0x6e>
 80050e4:	2928      	cmp	r1, #40	; 0x28
 80050e6:	d157      	bne.n	8005198 <HAL_I2C_ER_IRQHandler+0x118>
 80050e8:	f1bc 0f21 	cmp.w	ip, #33	; 0x21
 80050ec:	d154      	bne.n	8005198 <HAL_I2C_ER_IRQHandler+0x118>
 80050ee:	f894 203d 	ldrb.w	r2, [r4, #61]	; 0x3d
 80050f2:	6ae1      	ldr	r1, [r4, #44]	; 0x2c
 80050f4:	b2d2      	uxtb	r2, r2
 80050f6:	2908      	cmp	r1, #8
 80050f8:	d001      	beq.n	80050fe <HAL_I2C_ER_IRQHandler+0x7e>
 80050fa:	2920      	cmp	r1, #32
 80050fc:	d12a      	bne.n	8005154 <HAL_I2C_ER_IRQHandler+0xd4>
 80050fe:	2a28      	cmp	r2, #40	; 0x28
 8005100:	d128      	bne.n	8005154 <HAL_I2C_ER_IRQHandler+0xd4>
 8005102:	4a2e      	ldr	r2, [pc, #184]	; (80051bc <HAL_I2C_ER_IRQHandler+0x13c>)
 8005104:	4620      	mov	r0, r4
 8005106:	62e2      	str	r2, [r4, #44]	; 0x2c
 8005108:	685a      	ldr	r2, [r3, #4]
 800510a:	f422 62e0 	bic.w	r2, r2, #1792	; 0x700
 800510e:	605a      	str	r2, [r3, #4]
 8005110:	f46f 6280 	mvn.w	r2, #1024	; 0x400
 8005114:	615a      	str	r2, [r3, #20]
 8005116:	681a      	ldr	r2, [r3, #0]
 8005118:	f422 6280 	bic.w	r2, r2, #1024	; 0x400
 800511c:	601a      	str	r2, [r3, #0]
 800511e:	2300      	movs	r3, #0
 8005120:	2220      	movs	r2, #32
 8005122:	6323      	str	r3, [r4, #48]	; 0x30
 8005124:	f884 203d 	strb.w	r2, [r4, #61]	; 0x3d
 8005128:	f884 303e 	strb.w	r3, [r4, #62]	; 0x3e
 800512c:	f7ff f9fb 	bl	8004526 <HAL_I2C_ListenCpltCallback>
 8005130:	053a      	lsls	r2, r7, #20
 8005132:	d53f      	bpl.n	80051b4 <HAL_I2C_ER_IRQHandler+0x134>
 8005134:	05f3      	lsls	r3, r6, #23
 8005136:	d53d      	bpl.n	80051b4 <HAL_I2C_ER_IRQHandler+0x134>
 8005138:	f46f 6200 	mvn.w	r2, #2048	; 0x800
 800513c:	6823      	ldr	r3, [r4, #0]
 800513e:	f045 0508 	orr.w	r5, r5, #8
 8005142:	615a      	str	r2, [r3, #20]
 8005144:	6c23      	ldr	r3, [r4, #64]	; 0x40
 8005146:	4620      	mov	r0, r4
 8005148:	432b      	orrs	r3, r5
 800514a:	6423      	str	r3, [r4, #64]	; 0x40
 800514c:	e8bd 40f8 	ldmia.w	sp!, {r3, r4, r5, r6, r7, lr}
 8005150:	f7ff baa6 	b.w	80046a0 <I2C_ITError>
 8005154:	2a21      	cmp	r2, #33	; 0x21
 8005156:	d11b      	bne.n	8005190 <HAL_I2C_ER_IRQHandler+0x110>
 8005158:	4918      	ldr	r1, [pc, #96]	; (80051bc <HAL_I2C_ER_IRQHandler+0x13c>)
 800515a:	62e1      	str	r1, [r4, #44]	; 0x2c
 800515c:	6322      	str	r2, [r4, #48]	; 0x30
 800515e:	2100      	movs	r1, #0
 8005160:	2220      	movs	r2, #32
 8005162:	f884 203d 	strb.w	r2, [r4, #61]	; 0x3d
 8005166:	f884 103e 	strb.w	r1, [r4, #62]	; 0x3e
 800516a:	685a      	ldr	r2, [r3, #4]
 800516c:	f422 62e0 	bic.w	r2, r2, #1792	; 0x700
 8005170:	605a      	str	r2, [r3, #4]
 8005172:	f46f 6280 	mvn.w	r2, #1024	; 0x400
 8005176:	615a      	str	r2, [r3, #20]
 8005178:	681a      	ldr	r2, [r3, #0]
 800517a:	f422 6280 	bic.w	r2, r2, #1024	; 0x400
 800517e:	601a      	str	r2, [r3, #0]
 8005180:	695a      	ldr	r2, [r3, #20]
 8005182:	0610      	lsls	r0, r2, #24
 8005184:	bf48      	it	mi
 8005186:	6119      	strmi	r1, [r3, #16]
 8005188:	4620      	mov	r0, r4
 800518a:	f7ff f9c9 	bl	8004520 <HAL_I2C_SlaveTxCpltCallback>
 800518e:	e7cf      	b.n	8005130 <HAL_I2C_ER_IRQHandler+0xb0>
 8005190:	f46f 6280 	mvn.w	r2, #1024	; 0x400
 8005194:	615a      	str	r2, [r3, #20]
 8005196:	e7cb      	b.n	8005130 <HAL_I2C_ER_IRQHandler+0xb0>
 8005198:	f46f 6180 	mvn.w	r1, #1024	; 0x400
 800519c:	2a10      	cmp	r2, #16
 800519e:	6159      	str	r1, [r3, #20]
 80051a0:	f045 0504 	orr.w	r5, r5, #4
 80051a4:	d001      	beq.n	80051aa <HAL_I2C_ER_IRQHandler+0x12a>
 80051a6:	2a40      	cmp	r2, #64	; 0x40
 80051a8:	d1c2      	bne.n	8005130 <HAL_I2C_ER_IRQHandler+0xb0>
 80051aa:	681a      	ldr	r2, [r3, #0]
 80051ac:	f442 7200 	orr.w	r2, r2, #512	; 0x200
 80051b0:	601a      	str	r2, [r3, #0]
 80051b2:	e7bd      	b.n	8005130 <HAL_I2C_ER_IRQHandler+0xb0>
 80051b4:	2d00      	cmp	r5, #0
 80051b6:	d1c5      	bne.n	8005144 <HAL_I2C_ER_IRQHandler+0xc4>
 80051b8:	bdf8      	pop	{r3, r4, r5, r6, r7, pc}
 80051ba:	bf00      	nop
 80051bc:	ffff0000 	.word	0xffff0000

080051c0 <HAL_RCC_OscConfig>:
 80051c0:	e92d 41f3 	stmdb	sp!, {r0, r1, r4, r5, r6, r7, r8, lr}
 80051c4:	4605      	mov	r5, r0
 80051c6:	b338      	cbz	r0, 8005218 <HAL_RCC_OscConfig+0x58>
 80051c8:	6803      	ldr	r3, [r0, #0]
 80051ca:	07db      	lsls	r3, r3, #31
 80051cc:	d410      	bmi.n	80051f0 <HAL_RCC_OscConfig+0x30>
 80051ce:	682b      	ldr	r3, [r5, #0]
 80051d0:	079f      	lsls	r7, r3, #30
 80051d2:	d45e      	bmi.n	8005292 <HAL_RCC_OscConfig+0xd2>
 80051d4:	682b      	ldr	r3, [r5, #0]
 80051d6:	0719      	lsls	r1, r3, #28
 80051d8:	f100 8095 	bmi.w	8005306 <HAL_RCC_OscConfig+0x146>
 80051dc:	682b      	ldr	r3, [r5, #0]
 80051de:	075a      	lsls	r2, r3, #29
 80051e0:	f100 80c1 	bmi.w	8005366 <HAL_RCC_OscConfig+0x1a6>
 80051e4:	69e8      	ldr	r0, [r5, #28]
 80051e6:	2800      	cmp	r0, #0
 80051e8:	f040 812c 	bne.w	8005444 <HAL_RCC_OscConfig+0x284>
 80051ec:	2000      	movs	r0, #0
 80051ee:	e029      	b.n	8005244 <HAL_RCC_OscConfig+0x84>
 80051f0:	4c90      	ldr	r4, [pc, #576]	; (8005434 <HAL_RCC_OscConfig+0x274>)
 80051f2:	6863      	ldr	r3, [r4, #4]
 80051f4:	f003 030c 	and.w	r3, r3, #12
 80051f8:	2b04      	cmp	r3, #4
 80051fa:	d007      	beq.n	800520c <HAL_RCC_OscConfig+0x4c>
 80051fc:	6863      	ldr	r3, [r4, #4]
 80051fe:	f003 030c 	and.w	r3, r3, #12
 8005202:	2b08      	cmp	r3, #8
 8005204:	d10a      	bne.n	800521c <HAL_RCC_OscConfig+0x5c>
 8005206:	6863      	ldr	r3, [r4, #4]
 8005208:	03de      	lsls	r6, r3, #15
 800520a:	d507      	bpl.n	800521c <HAL_RCC_OscConfig+0x5c>
 800520c:	6823      	ldr	r3, [r4, #0]
 800520e:	039c      	lsls	r4, r3, #14
 8005210:	d5dd      	bpl.n	80051ce <HAL_RCC_OscConfig+0xe>
 8005212:	686b      	ldr	r3, [r5, #4]
 8005214:	2b00      	cmp	r3, #0
 8005216:	d1da      	bne.n	80051ce <HAL_RCC_OscConfig+0xe>
 8005218:	2001      	movs	r0, #1
 800521a:	e013      	b.n	8005244 <HAL_RCC_OscConfig+0x84>
 800521c:	686b      	ldr	r3, [r5, #4]
 800521e:	f5b3 3f80 	cmp.w	r3, #65536	; 0x10000
 8005222:	d112      	bne.n	800524a <HAL_RCC_OscConfig+0x8a>
 8005224:	6823      	ldr	r3, [r4, #0]
 8005226:	f443 3380 	orr.w	r3, r3, #65536	; 0x10000
 800522a:	6023      	str	r3, [r4, #0]
 800522c:	f7fe f8aa 	bl	8003384 <HAL_GetTick>
 8005230:	4606      	mov	r6, r0
 8005232:	6823      	ldr	r3, [r4, #0]
 8005234:	0398      	lsls	r0, r3, #14
 8005236:	d4ca      	bmi.n	80051ce <HAL_RCC_OscConfig+0xe>
 8005238:	f7fe f8a4 	bl	8003384 <HAL_GetTick>
 800523c:	1b80      	subs	r0, r0, r6
 800523e:	2864      	cmp	r0, #100	; 0x64
 8005240:	d9f7      	bls.n	8005232 <HAL_RCC_OscConfig+0x72>
 8005242:	2003      	movs	r0, #3
 8005244:	b002      	add	sp, #8
 8005246:	e8bd 81f0 	ldmia.w	sp!, {r4, r5, r6, r7, r8, pc}
 800524a:	b99b      	cbnz	r3, 8005274 <HAL_RCC_OscConfig+0xb4>
 800524c:	6823      	ldr	r3, [r4, #0]
 800524e:	f423 3380 	bic.w	r3, r3, #65536	; 0x10000
 8005252:	6023      	str	r3, [r4, #0]
 8005254:	6823      	ldr	r3, [r4, #0]
 8005256:	f423 2380 	bic.w	r3, r3, #262144	; 0x40000
 800525a:	6023      	str	r3, [r4, #0]
 800525c:	f7fe f892 	bl	8003384 <HAL_GetTick>
 8005260:	4606      	mov	r6, r0
 8005262:	6823      	ldr	r3, [r4, #0]
 8005264:	0399      	lsls	r1, r3, #14
 8005266:	d5b2      	bpl.n	80051ce <HAL_RCC_OscConfig+0xe>
 8005268:	f7fe f88c 	bl	8003384 <HAL_GetTick>
 800526c:	1b80      	subs	r0, r0, r6
 800526e:	2864      	cmp	r0, #100	; 0x64
 8005270:	d9f7      	bls.n	8005262 <HAL_RCC_OscConfig+0xa2>
 8005272:	e7e6      	b.n	8005242 <HAL_RCC_OscConfig+0x82>
 8005274:	f5b3 2fa0 	cmp.w	r3, #327680	; 0x50000
 8005278:	6823      	ldr	r3, [r4, #0]
 800527a:	d103      	bne.n	8005284 <HAL_RCC_OscConfig+0xc4>
 800527c:	f443 2380 	orr.w	r3, r3, #262144	; 0x40000
 8005280:	6023      	str	r3, [r4, #0]
 8005282:	e7cf      	b.n	8005224 <HAL_RCC_OscConfig+0x64>
 8005284:	f423 3380 	bic.w	r3, r3, #65536	; 0x10000
 8005288:	6023      	str	r3, [r4, #0]
 800528a:	6823      	ldr	r3, [r4, #0]
 800528c:	f423 2380 	bic.w	r3, r3, #262144	; 0x40000
 8005290:	e7cb      	b.n	800522a <HAL_RCC_OscConfig+0x6a>
 8005292:	4c68      	ldr	r4, [pc, #416]	; (8005434 <HAL_RCC_OscConfig+0x274>)
 8005294:	6863      	ldr	r3, [r4, #4]
 8005296:	f013 0f0c 	tst.w	r3, #12
 800529a:	d007      	beq.n	80052ac <HAL_RCC_OscConfig+0xec>
 800529c:	6863      	ldr	r3, [r4, #4]
 800529e:	f003 030c 	and.w	r3, r3, #12
 80052a2:	2b08      	cmp	r3, #8
 80052a4:	d110      	bne.n	80052c8 <HAL_RCC_OscConfig+0x108>
 80052a6:	6863      	ldr	r3, [r4, #4]
 80052a8:	03da      	lsls	r2, r3, #15
 80052aa:	d40d      	bmi.n	80052c8 <HAL_RCC_OscConfig+0x108>
 80052ac:	6823      	ldr	r3, [r4, #0]
 80052ae:	079b      	lsls	r3, r3, #30
 80052b0:	d502      	bpl.n	80052b8 <HAL_RCC_OscConfig+0xf8>
 80052b2:	692b      	ldr	r3, [r5, #16]
 80052b4:	2b01      	cmp	r3, #1
 80052b6:	d1af      	bne.n	8005218 <HAL_RCC_OscConfig+0x58>
 80052b8:	6823      	ldr	r3, [r4, #0]
 80052ba:	696a      	ldr	r2, [r5, #20]
 80052bc:	f023 03f8 	bic.w	r3, r3, #248	; 0xf8
 80052c0:	ea43 03c2 	orr.w	r3, r3, r2, lsl #3
 80052c4:	6023      	str	r3, [r4, #0]
 80052c6:	e785      	b.n	80051d4 <HAL_RCC_OscConfig+0x14>
 80052c8:	692a      	ldr	r2, [r5, #16]
 80052ca:	4b5b      	ldr	r3, [pc, #364]	; (8005438 <HAL_RCC_OscConfig+0x278>)
 80052cc:	b16a      	cbz	r2, 80052ea <HAL_RCC_OscConfig+0x12a>
 80052ce:	2201      	movs	r2, #1
 80052d0:	601a      	str	r2, [r3, #0]
 80052d2:	f7fe f857 	bl	8003384 <HAL_GetTick>
 80052d6:	4606      	mov	r6, r0
 80052d8:	6823      	ldr	r3, [r4, #0]
 80052da:	079f      	lsls	r7, r3, #30
 80052dc:	d4ec      	bmi.n	80052b8 <HAL_RCC_OscConfig+0xf8>
 80052de:	f7fe f851 	bl	8003384 <HAL_GetTick>
 80052e2:	1b80      	subs	r0, r0, r6
 80052e4:	2802      	cmp	r0, #2
 80052e6:	d9f7      	bls.n	80052d8 <HAL_RCC_OscConfig+0x118>
 80052e8:	e7ab      	b.n	8005242 <HAL_RCC_OscConfig+0x82>
 80052ea:	601a      	str	r2, [r3, #0]
 80052ec:	f7fe f84a 	bl	8003384 <HAL_GetTick>
 80052f0:	4606      	mov	r6, r0
 80052f2:	6823      	ldr	r3, [r4, #0]
 80052f4:	0798      	lsls	r0, r3, #30
 80052f6:	f57f af6d 	bpl.w	80051d4 <HAL_RCC_OscConfig+0x14>
 80052fa:	f7fe f843 	bl	8003384 <HAL_GetTick>
 80052fe:	1b80      	subs	r0, r0, r6
 8005300:	2802      	cmp	r0, #2
 8005302:	d9f6      	bls.n	80052f2 <HAL_RCC_OscConfig+0x132>
 8005304:	e79d      	b.n	8005242 <HAL_RCC_OscConfig+0x82>
 8005306:	69aa      	ldr	r2, [r5, #24]
 8005308:	4e4a      	ldr	r6, [pc, #296]	; (8005434 <HAL_RCC_OscConfig+0x274>)
 800530a:	4b4b      	ldr	r3, [pc, #300]	; (8005438 <HAL_RCC_OscConfig+0x278>)
 800530c:	b1e2      	cbz	r2, 8005348 <HAL_RCC_OscConfig+0x188>
 800530e:	2201      	movs	r2, #1
 8005310:	f8c3 2480 	str.w	r2, [r3, #1152]	; 0x480
 8005314:	f7fe f836 	bl	8003384 <HAL_GetTick>
 8005318:	4604      	mov	r4, r0
 800531a:	6a73      	ldr	r3, [r6, #36]	; 0x24
 800531c:	079b      	lsls	r3, r3, #30
 800531e:	d50d      	bpl.n	800533c <HAL_RCC_OscConfig+0x17c>
 8005320:	f44f 52fa 	mov.w	r2, #8000	; 0x1f40
 8005324:	4b45      	ldr	r3, [pc, #276]	; (800543c <HAL_RCC_OscConfig+0x27c>)
 8005326:	681b      	ldr	r3, [r3, #0]
 8005328:	fbb3 f3f2 	udiv	r3, r3, r2
 800532c:	9301      	str	r3, [sp, #4]
 800532e:	bf00      	nop
 8005330:	9b01      	ldr	r3, [sp, #4]
 8005332:	1e5a      	subs	r2, r3, #1
 8005334:	9201      	str	r2, [sp, #4]
 8005336:	2b00      	cmp	r3, #0
 8005338:	d1f9      	bne.n	800532e <HAL_RCC_OscConfig+0x16e>
 800533a:	e74f      	b.n	80051dc <HAL_RCC_OscConfig+0x1c>
 800533c:	f7fe f822 	bl	8003384 <HAL_GetTick>
 8005340:	1b00      	subs	r0, r0, r4
 8005342:	2802      	cmp	r0, #2
 8005344:	d9e9      	bls.n	800531a <HAL_RCC_OscConfig+0x15a>
 8005346:	e77c      	b.n	8005242 <HAL_RCC_OscConfig+0x82>
 8005348:	f8c3 2480 	str.w	r2, [r3, #1152]	; 0x480
 800534c:	f7fe f81a 	bl	8003384 <HAL_GetTick>
 8005350:	4604      	mov	r4, r0
 8005352:	6a73      	ldr	r3, [r6, #36]	; 0x24
 8005354:	079f      	lsls	r7, r3, #30
 8005356:	f57f af41 	bpl.w	80051dc <HAL_RCC_OscConfig+0x1c>
 800535a:	f7fe f813 	bl	8003384 <HAL_GetTick>
 800535e:	1b00      	subs	r0, r0, r4
 8005360:	2802      	cmp	r0, #2
 8005362:	d9f6      	bls.n	8005352 <HAL_RCC_OscConfig+0x192>
 8005364:	e76d      	b.n	8005242 <HAL_RCC_OscConfig+0x82>
 8005366:	4c33      	ldr	r4, [pc, #204]	; (8005434 <HAL_RCC_OscConfig+0x274>)
 8005368:	69e3      	ldr	r3, [r4, #28]
 800536a:	00d8      	lsls	r0, r3, #3
 800536c:	d424      	bmi.n	80053b8 <HAL_RCC_OscConfig+0x1f8>
 800536e:	2701      	movs	r7, #1
 8005370:	69e3      	ldr	r3, [r4, #28]
 8005372:	f043 5380 	orr.w	r3, r3, #268435456	; 0x10000000
 8005376:	61e3      	str	r3, [r4, #28]
 8005378:	69e3      	ldr	r3, [r4, #28]
 800537a:	f003 5380 	and.w	r3, r3, #268435456	; 0x10000000
 800537e:	9300      	str	r3, [sp, #0]
 8005380:	9b00      	ldr	r3, [sp, #0]
 8005382:	4e2f      	ldr	r6, [pc, #188]	; (8005440 <HAL_RCC_OscConfig+0x280>)
 8005384:	6833      	ldr	r3, [r6, #0]
 8005386:	05d9      	lsls	r1, r3, #23
 8005388:	d518      	bpl.n	80053bc <HAL_RCC_OscConfig+0x1fc>
 800538a:	68eb      	ldr	r3, [r5, #12]
 800538c:	2b01      	cmp	r3, #1
 800538e:	d126      	bne.n	80053de <HAL_RCC_OscConfig+0x21e>
 8005390:	6a23      	ldr	r3, [r4, #32]
 8005392:	f043 0301 	orr.w	r3, r3, #1
 8005396:	6223      	str	r3, [r4, #32]
 8005398:	f7fd fff4 	bl	8003384 <HAL_GetTick>
 800539c:	f241 3888 	movw	r8, #5000	; 0x1388
 80053a0:	4606      	mov	r6, r0
 80053a2:	6a23      	ldr	r3, [r4, #32]
 80053a4:	079b      	lsls	r3, r3, #30
 80053a6:	d53f      	bpl.n	8005428 <HAL_RCC_OscConfig+0x268>
 80053a8:	2f00      	cmp	r7, #0
 80053aa:	f43f af1b 	beq.w	80051e4 <HAL_RCC_OscConfig+0x24>
 80053ae:	69e3      	ldr	r3, [r4, #28]
 80053b0:	f023 5380 	bic.w	r3, r3, #268435456	; 0x10000000
 80053b4:	61e3      	str	r3, [r4, #28]
 80053b6:	e715      	b.n	80051e4 <HAL_RCC_OscConfig+0x24>
 80053b8:	2700      	movs	r7, #0
 80053ba:	e7e2      	b.n	8005382 <HAL_RCC_OscConfig+0x1c2>
 80053bc:	6833      	ldr	r3, [r6, #0]
 80053be:	f443 7380 	orr.w	r3, r3, #256	; 0x100
 80053c2:	6033      	str	r3, [r6, #0]
 80053c4:	f7fd ffde 	bl	8003384 <HAL_GetTick>
 80053c8:	4680      	mov	r8, r0
 80053ca:	6833      	ldr	r3, [r6, #0]
 80053cc:	05da      	lsls	r2, r3, #23
 80053ce:	d4dc      	bmi.n	800538a <HAL_RCC_OscConfig+0x1ca>
 80053d0:	f7fd ffd8 	bl	8003384 <HAL_GetTick>
 80053d4:	eba0 0008 	sub.w	r0, r0, r8
 80053d8:	2864      	cmp	r0, #100	; 0x64
 80053da:	d9f6      	bls.n	80053ca <HAL_RCC_OscConfig+0x20a>
 80053dc:	e731      	b.n	8005242 <HAL_RCC_OscConfig+0x82>
 80053de:	b9ab      	cbnz	r3, 800540c <HAL_RCC_OscConfig+0x24c>
 80053e0:	6a23      	ldr	r3, [r4, #32]
 80053e2:	f241 3888 	movw	r8, #5000	; 0x1388
 80053e6:	f023 0301 	bic.w	r3, r3, #1
 80053ea:	6223      	str	r3, [r4, #32]
 80053ec:	6a23      	ldr	r3, [r4, #32]
 80053ee:	f023 0304 	bic.w	r3, r3, #4
 80053f2:	6223      	str	r3, [r4, #32]
 80053f4:	f7fd ffc6 	bl	8003384 <HAL_GetTick>
 80053f8:	4606      	mov	r6, r0
 80053fa:	6a23      	ldr	r3, [r4, #32]
 80053fc:	0798      	lsls	r0, r3, #30
 80053fe:	d5d3      	bpl.n	80053a8 <HAL_RCC_OscConfig+0x1e8>
 8005400:	f7fd ffc0 	bl	8003384 <HAL_GetTick>
 8005404:	1b80      	subs	r0, r0, r6
 8005406:	4540      	cmp	r0, r8
 8005408:	d9f7      	bls.n	80053fa <HAL_RCC_OscConfig+0x23a>
 800540a:	e71a      	b.n	8005242 <HAL_RCC_OscConfig+0x82>
 800540c:	2b05      	cmp	r3, #5
 800540e:	6a23      	ldr	r3, [r4, #32]
 8005410:	d103      	bne.n	800541a <HAL_RCC_OscConfig+0x25a>
 8005412:	f043 0304 	orr.w	r3, r3, #4
 8005416:	6223      	str	r3, [r4, #32]
 8005418:	e7ba      	b.n	8005390 <HAL_RCC_OscConfig+0x1d0>
 800541a:	f023 0301 	bic.w	r3, r3, #1
 800541e:	6223      	str	r3, [r4, #32]
 8005420:	6a23      	ldr	r3, [r4, #32]
 8005422:	f023 0304 	bic.w	r3, r3, #4
 8005426:	e7b6      	b.n	8005396 <HAL_RCC_OscConfig+0x1d6>
 8005428:	f7fd ffac 	bl	8003384 <HAL_GetTick>
 800542c:	1b80      	subs	r0, r0, r6
 800542e:	4540      	cmp	r0, r8
 8005430:	d9b7      	bls.n	80053a2 <HAL_RCC_OscConfig+0x1e2>
 8005432:	e706      	b.n	8005242 <HAL_RCC_OscConfig+0x82>
 8005434:	40021000 	.word	0x40021000
 8005438:	42420000 	.word	0x42420000
 800543c:	20000020 	.word	0x20000020
 8005440:	40007000 	.word	0x40007000
 8005444:	4c2a      	ldr	r4, [pc, #168]	; (80054f0 <HAL_RCC_OscConfig+0x330>)
 8005446:	6863      	ldr	r3, [r4, #4]
 8005448:	f003 030c 	and.w	r3, r3, #12
 800544c:	2b08      	cmp	r3, #8
 800544e:	d03e      	beq.n	80054ce <HAL_RCC_OscConfig+0x30e>
 8005450:	2200      	movs	r2, #0
 8005452:	4b28      	ldr	r3, [pc, #160]	; (80054f4 <HAL_RCC_OscConfig+0x334>)
 8005454:	2802      	cmp	r0, #2
 8005456:	661a      	str	r2, [r3, #96]	; 0x60
 8005458:	d12c      	bne.n	80054b4 <HAL_RCC_OscConfig+0x2f4>
 800545a:	f7fd ff93 	bl	8003384 <HAL_GetTick>
 800545e:	4606      	mov	r6, r0
 8005460:	6823      	ldr	r3, [r4, #0]
 8005462:	0199      	lsls	r1, r3, #6
 8005464:	d420      	bmi.n	80054a8 <HAL_RCC_OscConfig+0x2e8>
 8005466:	6a2b      	ldr	r3, [r5, #32]
 8005468:	f5b3 3f80 	cmp.w	r3, #65536	; 0x10000
 800546c:	d105      	bne.n	800547a <HAL_RCC_OscConfig+0x2ba>
 800546e:	6862      	ldr	r2, [r4, #4]
 8005470:	68a9      	ldr	r1, [r5, #8]
 8005472:	f422 3200 	bic.w	r2, r2, #131072	; 0x20000
 8005476:	430a      	orrs	r2, r1
 8005478:	6062      	str	r2, [r4, #4]
 800547a:	6a69      	ldr	r1, [r5, #36]	; 0x24
 800547c:	6862      	ldr	r2, [r4, #4]
 800547e:	430b      	orrs	r3, r1
 8005480:	f422 1274 	bic.w	r2, r2, #3997696	; 0x3d0000
 8005484:	4313      	orrs	r3, r2
 8005486:	2201      	movs	r2, #1
 8005488:	6063      	str	r3, [r4, #4]
 800548a:	4b1a      	ldr	r3, [pc, #104]	; (80054f4 <HAL_RCC_OscConfig+0x334>)
 800548c:	661a      	str	r2, [r3, #96]	; 0x60
 800548e:	f7fd ff79 	bl	8003384 <HAL_GetTick>
 8005492:	4605      	mov	r5, r0
 8005494:	6823      	ldr	r3, [r4, #0]
 8005496:	019a      	lsls	r2, r3, #6
 8005498:	f53f aea8 	bmi.w	80051ec <HAL_RCC_OscConfig+0x2c>
 800549c:	f7fd ff72 	bl	8003384 <HAL_GetTick>
 80054a0:	1b40      	subs	r0, r0, r5
 80054a2:	2802      	cmp	r0, #2
 80054a4:	d9f6      	bls.n	8005494 <HAL_RCC_OscConfig+0x2d4>
 80054a6:	e6cc      	b.n	8005242 <HAL_RCC_OscConfig+0x82>
 80054a8:	f7fd ff6c 	bl	8003384 <HAL_GetTick>
 80054ac:	1b80      	subs	r0, r0, r6
 80054ae:	2802      	cmp	r0, #2
 80054b0:	d9d6      	bls.n	8005460 <HAL_RCC_OscConfig+0x2a0>
 80054b2:	e6c6      	b.n	8005242 <HAL_RCC_OscConfig+0x82>
 80054b4:	f7fd ff66 	bl	8003384 <HAL_GetTick>
 80054b8:	4605      	mov	r5, r0
 80054ba:	6823      	ldr	r3, [r4, #0]
 80054bc:	019b      	lsls	r3, r3, #6
 80054be:	f57f ae95 	bpl.w	80051ec <HAL_RCC_OscConfig+0x2c>
 80054c2:	f7fd ff5f 	bl	8003384 <HAL_GetTick>
 80054c6:	1b40      	subs	r0, r0, r5
 80054c8:	2802      	cmp	r0, #2
 80054ca:	d9f6      	bls.n	80054ba <HAL_RCC_OscConfig+0x2fa>
 80054cc:	e6b9      	b.n	8005242 <HAL_RCC_OscConfig+0x82>
 80054ce:	2801      	cmp	r0, #1
 80054d0:	f43f aeb8 	beq.w	8005244 <HAL_RCC_OscConfig+0x84>
 80054d4:	6863      	ldr	r3, [r4, #4]
 80054d6:	6a2a      	ldr	r2, [r5, #32]
 80054d8:	f403 3180 	and.w	r1, r3, #65536	; 0x10000
 80054dc:	4291      	cmp	r1, r2
 80054de:	f47f ae9b 	bne.w	8005218 <HAL_RCC_OscConfig+0x58>
 80054e2:	6a6a      	ldr	r2, [r5, #36]	; 0x24
 80054e4:	f403 1370 	and.w	r3, r3, #3932160	; 0x3c0000
 80054e8:	4293      	cmp	r3, r2
 80054ea:	f43f ae7f 	beq.w	80051ec <HAL_RCC_OscConfig+0x2c>
 80054ee:	e693      	b.n	8005218 <HAL_RCC_OscConfig+0x58>
 80054f0:	40021000 	.word	0x40021000
 80054f4:	42420000 	.word	0x42420000

080054f8 <HAL_RCC_GetSysClockFreq>:
 80054f8:	4a0d      	ldr	r2, [pc, #52]	; (8005530 <HAL_RCC_GetSysClockFreq+0x38>)
 80054fa:	6853      	ldr	r3, [r2, #4]
 80054fc:	f003 010c 	and.w	r1, r3, #12
 8005500:	2908      	cmp	r1, #8
 8005502:	d112      	bne.n	800552a <HAL_RCC_GetSysClockFreq+0x32>
 8005504:	480b      	ldr	r0, [pc, #44]	; (8005534 <HAL_RCC_GetSysClockFreq+0x3c>)
 8005506:	f3c3 4183 	ubfx	r1, r3, #18, #4
 800550a:	03db      	lsls	r3, r3, #15
 800550c:	5c40      	ldrb	r0, [r0, r1]
 800550e:	d509      	bpl.n	8005524 <HAL_RCC_GetSysClockFreq+0x2c>
 8005510:	6853      	ldr	r3, [r2, #4]
 8005512:	4a09      	ldr	r2, [pc, #36]	; (8005538 <HAL_RCC_GetSysClockFreq+0x40>)
 8005514:	f3c3 4340 	ubfx	r3, r3, #17, #1
 8005518:	4350      	muls	r0, r2
 800551a:	4a08      	ldr	r2, [pc, #32]	; (800553c <HAL_RCC_GetSysClockFreq+0x44>)
 800551c:	5cd3      	ldrb	r3, [r2, r3]
 800551e:	fbb0 f0f3 	udiv	r0, r0, r3
 8005522:	4770      	bx	lr
 8005524:	4b06      	ldr	r3, [pc, #24]	; (8005540 <HAL_RCC_GetSysClockFreq+0x48>)
 8005526:	4358      	muls	r0, r3
 8005528:	4770      	bx	lr
 800552a:	4803      	ldr	r0, [pc, #12]	; (8005538 <HAL_RCC_GetSysClockFreq+0x40>)
 800552c:	4770      	bx	lr
 800552e:	bf00      	nop
 8005530:	40021000 	.word	0x40021000
 8005534:	0800d4bd 	.word	0x0800d4bd
 8005538:	007a1200 	.word	0x007a1200
 800553c:	0800d4cd 	.word	0x0800d4cd
 8005540:	003d0900 	.word	0x003d0900

08005544 <HAL_RCC_ClockConfig>:
 8005544:	e92d 41f0 	stmdb	sp!, {r4, r5, r6, r7, r8, lr}
 8005548:	460d      	mov	r5, r1
 800554a:	4604      	mov	r4, r0
 800554c:	b910      	cbnz	r0, 8005554 <HAL_RCC_ClockConfig+0x10>
 800554e:	2001      	movs	r0, #1
 8005550:	e8bd 81f0 	ldmia.w	sp!, {r4, r5, r6, r7, r8, pc}
 8005554:	4a44      	ldr	r2, [pc, #272]	; (8005668 <HAL_RCC_ClockConfig+0x124>)
 8005556:	6813      	ldr	r3, [r2, #0]
 8005558:	f003 0307 	and.w	r3, r3, #7
 800555c:	428b      	cmp	r3, r1
 800555e:	d328      	bcc.n	80055b2 <HAL_RCC_ClockConfig+0x6e>
 8005560:	6821      	ldr	r1, [r4, #0]
 8005562:	078e      	lsls	r6, r1, #30
 8005564:	d430      	bmi.n	80055c8 <HAL_RCC_ClockConfig+0x84>
 8005566:	07ca      	lsls	r2, r1, #31
 8005568:	d443      	bmi.n	80055f2 <HAL_RCC_ClockConfig+0xae>
 800556a:	4a3f      	ldr	r2, [pc, #252]	; (8005668 <HAL_RCC_ClockConfig+0x124>)
 800556c:	6813      	ldr	r3, [r2, #0]
 800556e:	f003 0307 	and.w	r3, r3, #7
 8005572:	42ab      	cmp	r3, r5
 8005574:	d865      	bhi.n	8005642 <HAL_RCC_ClockConfig+0xfe>
 8005576:	6822      	ldr	r2, [r4, #0]
 8005578:	4d3c      	ldr	r5, [pc, #240]	; (800566c <HAL_RCC_ClockConfig+0x128>)
 800557a:	f012 0f04 	tst.w	r2, #4
 800557e:	d16c      	bne.n	800565a <HAL_RCC_ClockConfig+0x116>
 8005580:	0713      	lsls	r3, r2, #28
 8005582:	d506      	bpl.n	8005592 <HAL_RCC_ClockConfig+0x4e>
 8005584:	686b      	ldr	r3, [r5, #4]
 8005586:	6922      	ldr	r2, [r4, #16]
 8005588:	f423 5360 	bic.w	r3, r3, #14336	; 0x3800
 800558c:	ea43 03c2 	orr.w	r3, r3, r2, lsl #3
 8005590:	606b      	str	r3, [r5, #4]
 8005592:	f7ff ffb1 	bl	80054f8 <HAL_RCC_GetSysClockFreq>
 8005596:	686b      	ldr	r3, [r5, #4]
 8005598:	4a35      	ldr	r2, [pc, #212]	; (8005670 <HAL_RCC_ClockConfig+0x12c>)
 800559a:	f3c3 1303 	ubfx	r3, r3, #4, #4
 800559e:	5cd3      	ldrb	r3, [r2, r3]
 80055a0:	40d8      	lsrs	r0, r3
 80055a2:	4b34      	ldr	r3, [pc, #208]	; (8005674 <HAL_RCC_ClockConfig+0x130>)
 80055a4:	6018      	str	r0, [r3, #0]
 80055a6:	4b34      	ldr	r3, [pc, #208]	; (8005678 <HAL_RCC_ClockConfig+0x134>)
 80055a8:	6818      	ldr	r0, [r3, #0]
 80055aa:	f7fd fea9 	bl	8003300 <HAL_InitTick>
 80055ae:	2000      	movs	r0, #0
 80055b0:	e7ce      	b.n	8005550 <HAL_RCC_ClockConfig+0xc>
 80055b2:	6813      	ldr	r3, [r2, #0]
 80055b4:	f023 0307 	bic.w	r3, r3, #7
 80055b8:	430b      	orrs	r3, r1
 80055ba:	6013      	str	r3, [r2, #0]
 80055bc:	6813      	ldr	r3, [r2, #0]
 80055be:	f003 0307 	and.w	r3, r3, #7
 80055c2:	428b      	cmp	r3, r1
 80055c4:	d1c3      	bne.n	800554e <HAL_RCC_ClockConfig+0xa>
 80055c6:	e7cb      	b.n	8005560 <HAL_RCC_ClockConfig+0x1c>
 80055c8:	4b28      	ldr	r3, [pc, #160]	; (800566c <HAL_RCC_ClockConfig+0x128>)
 80055ca:	f011 0f04 	tst.w	r1, #4
 80055ce:	bf1e      	ittt	ne
 80055d0:	685a      	ldrne	r2, [r3, #4]
 80055d2:	f442 62e0 	orrne.w	r2, r2, #1792	; 0x700
 80055d6:	605a      	strne	r2, [r3, #4]
 80055d8:	0708      	lsls	r0, r1, #28
 80055da:	bf42      	ittt	mi
 80055dc:	685a      	ldrmi	r2, [r3, #4]
 80055de:	f442 5260 	orrmi.w	r2, r2, #14336	; 0x3800
 80055e2:	605a      	strmi	r2, [r3, #4]
 80055e4:	685a      	ldr	r2, [r3, #4]
 80055e6:	68a0      	ldr	r0, [r4, #8]
 80055e8:	f022 02f0 	bic.w	r2, r2, #240	; 0xf0
 80055ec:	4302      	orrs	r2, r0
 80055ee:	605a      	str	r2, [r3, #4]
 80055f0:	e7b9      	b.n	8005566 <HAL_RCC_ClockConfig+0x22>
 80055f2:	6862      	ldr	r2, [r4, #4]
 80055f4:	4e1d      	ldr	r6, [pc, #116]	; (800566c <HAL_RCC_ClockConfig+0x128>)
 80055f6:	2a01      	cmp	r2, #1
 80055f8:	6833      	ldr	r3, [r6, #0]
 80055fa:	d11a      	bne.n	8005632 <HAL_RCC_ClockConfig+0xee>
 80055fc:	f413 3f00 	tst.w	r3, #131072	; 0x20000
 8005600:	d0a5      	beq.n	800554e <HAL_RCC_ClockConfig+0xa>
 8005602:	6873      	ldr	r3, [r6, #4]
 8005604:	f241 3888 	movw	r8, #5000	; 0x1388
 8005608:	f023 0303 	bic.w	r3, r3, #3
 800560c:	4313      	orrs	r3, r2
 800560e:	6073      	str	r3, [r6, #4]
 8005610:	f7fd feb8 	bl	8003384 <HAL_GetTick>
 8005614:	4607      	mov	r7, r0
 8005616:	6873      	ldr	r3, [r6, #4]
 8005618:	6862      	ldr	r2, [r4, #4]
 800561a:	f003 030c 	and.w	r3, r3, #12
 800561e:	ebb3 0f82 	cmp.w	r3, r2, lsl #2
 8005622:	d0a2      	beq.n	800556a <HAL_RCC_ClockConfig+0x26>
 8005624:	f7fd feae 	bl	8003384 <HAL_GetTick>
 8005628:	1bc0      	subs	r0, r0, r7
 800562a:	4540      	cmp	r0, r8
 800562c:	d9f3      	bls.n	8005616 <HAL_RCC_ClockConfig+0xd2>
 800562e:	2003      	movs	r0, #3
 8005630:	e78e      	b.n	8005550 <HAL_RCC_ClockConfig+0xc>
 8005632:	2a02      	cmp	r2, #2
 8005634:	d102      	bne.n	800563c <HAL_RCC_ClockConfig+0xf8>
 8005636:	f013 7f00 	tst.w	r3, #33554432	; 0x2000000
 800563a:	e7e1      	b.n	8005600 <HAL_RCC_ClockConfig+0xbc>
 800563c:	f013 0f02 	tst.w	r3, #2
 8005640:	e7de      	b.n	8005600 <HAL_RCC_ClockConfig+0xbc>
 8005642:	6813      	ldr	r3, [r2, #0]
 8005644:	f023 0307 	bic.w	r3, r3, #7
 8005648:	432b      	orrs	r3, r5
 800564a:	6013      	str	r3, [r2, #0]
 800564c:	6813      	ldr	r3, [r2, #0]
 800564e:	f003 0307 	and.w	r3, r3, #7
 8005652:	42ab      	cmp	r3, r5
 8005654:	f47f af7b 	bne.w	800554e <HAL_RCC_ClockConfig+0xa>
 8005658:	e78d      	b.n	8005576 <HAL_RCC_ClockConfig+0x32>
 800565a:	686b      	ldr	r3, [r5, #4]
 800565c:	68e1      	ldr	r1, [r4, #12]
 800565e:	f423 63e0 	bic.w	r3, r3, #1792	; 0x700
 8005662:	430b      	orrs	r3, r1
 8005664:	606b      	str	r3, [r5, #4]
 8005666:	e78b      	b.n	8005580 <HAL_RCC_ClockConfig+0x3c>
 8005668:	40022000 	.word	0x40022000
 800566c:	40021000 	.word	0x40021000
 8005670:	0800d4a5 	.word	0x0800d4a5
 8005674:	20000020 	.word	0x20000020
 8005678:	20000028 	.word	0x20000028

0800567c <HAL_RCC_GetPCLK1Freq>:
 800567c:	4b04      	ldr	r3, [pc, #16]	; (8005690 <HAL_RCC_GetPCLK1Freq+0x14>)
 800567e:	4a05      	ldr	r2, [pc, #20]	; (8005694 <HAL_RCC_GetPCLK1Freq+0x18>)
 8005680:	685b      	ldr	r3, [r3, #4]
 8005682:	f3c3 2302 	ubfx	r3, r3, #8, #3
 8005686:	5cd3      	ldrb	r3, [r2, r3]
 8005688:	4a03      	ldr	r2, [pc, #12]	; (8005698 <HAL_RCC_GetPCLK1Freq+0x1c>)
 800568a:	6810      	ldr	r0, [r2, #0]
 800568c:	40d8      	lsrs	r0, r3
 800568e:	4770      	bx	lr
 8005690:	40021000 	.word	0x40021000
 8005694:	0800d4b5 	.word	0x0800d4b5
 8005698:	20000020 	.word	0x20000020

0800569c <HAL_RCC_GetPCLK2Freq>:
 800569c:	4b04      	ldr	r3, [pc, #16]	; (80056b0 <HAL_RCC_GetPCLK2Freq+0x14>)
 800569e:	4a05      	ldr	r2, [pc, #20]	; (80056b4 <HAL_RCC_GetPCLK2Freq+0x18>)
 80056a0:	685b      	ldr	r3, [r3, #4]
 80056a2:	f3c3 23c2 	ubfx	r3, r3, #11, #3
 80056a6:	5cd3      	ldrb	r3, [r2, r3]
 80056a8:	4a03      	ldr	r2, [pc, #12]	; (80056b8 <HAL_RCC_GetPCLK2Freq+0x1c>)
 80056aa:	6810      	ldr	r0, [r2, #0]
 80056ac:	40d8      	lsrs	r0, r3
 80056ae:	4770      	bx	lr
 80056b0:	40021000 	.word	0x40021000
 80056b4:	0800d4b5 	.word	0x0800d4b5
 80056b8:	20000020 	.word	0x20000020

080056bc <SPI_WaitFlagStateUntilTimeout.constprop.0>:
 80056bc:	e92d 41f3 	stmdb	sp!, {r0, r1, r4, r5, r6, r7, r8, lr}
 80056c0:	461c      	mov	r4, r3
 80056c2:	4616      	mov	r6, r2
 80056c4:	460f      	mov	r7, r1
 80056c6:	4605      	mov	r5, r0
 80056c8:	f7fd fe5c 	bl	8003384 <HAL_GetTick>
 80056cc:	4434      	add	r4, r6
 80056ce:	1a24      	subs	r4, r4, r0
 80056d0:	f7fd fe58 	bl	8003384 <HAL_GetTick>
 80056d4:	4680      	mov	r8, r0
 80056d6:	4b23      	ldr	r3, [pc, #140]	; (8005764 <SPI_WaitFlagStateUntilTimeout.constprop.0+0xa8>)
 80056d8:	681b      	ldr	r3, [r3, #0]
 80056da:	f3c3 33cb 	ubfx	r3, r3, #15, #12
 80056de:	4363      	muls	r3, r4
 80056e0:	682a      	ldr	r2, [r5, #0]
 80056e2:	9301      	str	r3, [sp, #4]
 80056e4:	6893      	ldr	r3, [r2, #8]
 80056e6:	ea37 0303 	bics.w	r3, r7, r3
 80056ea:	d001      	beq.n	80056f0 <SPI_WaitFlagStateUntilTimeout.constprop.0+0x34>
 80056ec:	2000      	movs	r0, #0
 80056ee:	e02e      	b.n	800574e <SPI_WaitFlagStateUntilTimeout.constprop.0+0x92>
 80056f0:	1c73      	adds	r3, r6, #1
 80056f2:	d0f7      	beq.n	80056e4 <SPI_WaitFlagStateUntilTimeout.constprop.0+0x28>
 80056f4:	f7fd fe46 	bl	8003384 <HAL_GetTick>
 80056f8:	eba0 0008 	sub.w	r0, r0, r8
 80056fc:	42a0      	cmp	r0, r4
 80056fe:	d329      	bcc.n	8005754 <SPI_WaitFlagStateUntilTimeout.constprop.0+0x98>
 8005700:	682b      	ldr	r3, [r5, #0]
 8005702:	685a      	ldr	r2, [r3, #4]
 8005704:	f022 02e0 	bic.w	r2, r2, #224	; 0xe0
 8005708:	605a      	str	r2, [r3, #4]
 800570a:	686a      	ldr	r2, [r5, #4]
 800570c:	f5b2 7f82 	cmp.w	r2, #260	; 0x104
 8005710:	d10a      	bne.n	8005728 <SPI_WaitFlagStateUntilTimeout.constprop.0+0x6c>
 8005712:	68aa      	ldr	r2, [r5, #8]
 8005714:	f5b2 4f00 	cmp.w	r2, #32768	; 0x8000
 8005718:	d002      	beq.n	8005720 <SPI_WaitFlagStateUntilTimeout.constprop.0+0x64>
 800571a:	f5b2 6f80 	cmp.w	r2, #1024	; 0x400
 800571e:	d103      	bne.n	8005728 <SPI_WaitFlagStateUntilTimeout.constprop.0+0x6c>
 8005720:	681a      	ldr	r2, [r3, #0]
 8005722:	f022 0240 	bic.w	r2, r2, #64	; 0x40
 8005726:	601a      	str	r2, [r3, #0]
 8005728:	6aaa      	ldr	r2, [r5, #40]	; 0x28
 800572a:	f5b2 5f00 	cmp.w	r2, #8192	; 0x2000
 800572e:	d107      	bne.n	8005740 <SPI_WaitFlagStateUntilTimeout.constprop.0+0x84>
 8005730:	681a      	ldr	r2, [r3, #0]
 8005732:	f422 5200 	bic.w	r2, r2, #8192	; 0x2000
 8005736:	601a      	str	r2, [r3, #0]
 8005738:	681a      	ldr	r2, [r3, #0]
 800573a:	f442 5200 	orr.w	r2, r2, #8192	; 0x2000
 800573e:	601a      	str	r2, [r3, #0]
 8005740:	2301      	movs	r3, #1
 8005742:	f885 3051 	strb.w	r3, [r5, #81]	; 0x51
 8005746:	2300      	movs	r3, #0
 8005748:	2003      	movs	r0, #3
 800574a:	f885 3050 	strb.w	r3, [r5, #80]	; 0x50
 800574e:	b002      	add	sp, #8
 8005750:	e8bd 81f0 	ldmia.w	sp!, {r4, r5, r6, r7, r8, pc}
 8005754:	9b01      	ldr	r3, [sp, #4]
 8005756:	2b00      	cmp	r3, #0
 8005758:	9b01      	ldr	r3, [sp, #4]
 800575a:	bf08      	it	eq
 800575c:	2400      	moveq	r4, #0
 800575e:	3b01      	subs	r3, #1
 8005760:	e7be      	b.n	80056e0 <SPI_WaitFlagStateUntilTimeout.constprop.0+0x24>
 8005762:	bf00      	nop
 8005764:	20000020 	.word	0x20000020

08005768 <SPI_EndRxTxTransaction>:
 8005768:	b510      	push	{r4, lr}
 800576a:	4613      	mov	r3, r2
 800576c:	460a      	mov	r2, r1
 800576e:	2180      	movs	r1, #128	; 0x80
 8005770:	4604      	mov	r4, r0
 8005772:	f7ff ffa3 	bl	80056bc <SPI_WaitFlagStateUntilTimeout.constprop.0>
 8005776:	b120      	cbz	r0, 8005782 <SPI_EndRxTxTransaction+0x1a>
 8005778:	2003      	movs	r0, #3
 800577a:	6d63      	ldr	r3, [r4, #84]	; 0x54
 800577c:	f043 0320 	orr.w	r3, r3, #32
 8005780:	6563      	str	r3, [r4, #84]	; 0x54
 8005782:	bd10      	pop	{r4, pc}

08005784 <HAL_SPI_Init>:
 8005784:	b510      	push	{r4, lr}
 8005786:	4604      	mov	r4, r0
 8005788:	2800      	cmp	r0, #0
 800578a:	d051      	beq.n	8005830 <HAL_SPI_Init+0xac>
 800578c:	6a43      	ldr	r3, [r0, #36]	; 0x24
 800578e:	2b00      	cmp	r3, #0
 8005790:	d14a      	bne.n	8005828 <HAL_SPI_Init+0xa4>
 8005792:	6842      	ldr	r2, [r0, #4]
 8005794:	f5b2 7f82 	cmp.w	r2, #260	; 0x104
 8005798:	d000      	beq.n	800579c <HAL_SPI_Init+0x18>
 800579a:	61c3      	str	r3, [r0, #28]
 800579c:	2300      	movs	r3, #0
 800579e:	62a3      	str	r3, [r4, #40]	; 0x28
 80057a0:	f894 3051 	ldrb.w	r3, [r4, #81]	; 0x51
 80057a4:	f003 02ff 	and.w	r2, r3, #255	; 0xff
 80057a8:	b923      	cbnz	r3, 80057b4 <HAL_SPI_Init+0x30>
 80057aa:	4620      	mov	r0, r4
 80057ac:	f884 2050 	strb.w	r2, [r4, #80]	; 0x50
 80057b0:	f7fd fb9a 	bl	8002ee8 <HAL_SPI_MspInit>
 80057b4:	2302      	movs	r3, #2
 80057b6:	6822      	ldr	r2, [r4, #0]
 80057b8:	f884 3051 	strb.w	r3, [r4, #81]	; 0x51
 80057bc:	6813      	ldr	r3, [r2, #0]
 80057be:	68a0      	ldr	r0, [r4, #8]
 80057c0:	f023 0340 	bic.w	r3, r3, #64	; 0x40
 80057c4:	6013      	str	r3, [r2, #0]
 80057c6:	6863      	ldr	r3, [r4, #4]
 80057c8:	f400 4004 	and.w	r0, r0, #33792	; 0x8400
 80057cc:	f403 7382 	and.w	r3, r3, #260	; 0x104
 80057d0:	4303      	orrs	r3, r0
 80057d2:	68e0      	ldr	r0, [r4, #12]
 80057d4:	69a1      	ldr	r1, [r4, #24]
 80057d6:	f400 6000 	and.w	r0, r0, #2048	; 0x800
 80057da:	4303      	orrs	r3, r0
 80057dc:	6920      	ldr	r0, [r4, #16]
 80057de:	f000 0002 	and.w	r0, r0, #2
 80057e2:	4303      	orrs	r3, r0
 80057e4:	6960      	ldr	r0, [r4, #20]
 80057e6:	f000 0001 	and.w	r0, r0, #1
 80057ea:	4303      	orrs	r3, r0
 80057ec:	f401 7000 	and.w	r0, r1, #512	; 0x200
 80057f0:	4303      	orrs	r3, r0
 80057f2:	69e0      	ldr	r0, [r4, #28]
 80057f4:	0c09      	lsrs	r1, r1, #16
 80057f6:	f000 0038 	and.w	r0, r0, #56	; 0x38
 80057fa:	4303      	orrs	r3, r0
 80057fc:	6a20      	ldr	r0, [r4, #32]
 80057fe:	f001 0104 	and.w	r1, r1, #4
 8005802:	f000 0080 	and.w	r0, r0, #128	; 0x80
 8005806:	4303      	orrs	r3, r0
 8005808:	6aa0      	ldr	r0, [r4, #40]	; 0x28
 800580a:	f400 5000 	and.w	r0, r0, #8192	; 0x2000
 800580e:	4303      	orrs	r3, r0
 8005810:	6013      	str	r3, [r2, #0]
 8005812:	6051      	str	r1, [r2, #4]
 8005814:	69d3      	ldr	r3, [r2, #28]
 8005816:	2000      	movs	r0, #0
 8005818:	f423 6300 	bic.w	r3, r3, #2048	; 0x800
 800581c:	61d3      	str	r3, [r2, #28]
 800581e:	2301      	movs	r3, #1
 8005820:	6560      	str	r0, [r4, #84]	; 0x54
 8005822:	f884 3051 	strb.w	r3, [r4, #81]	; 0x51
 8005826:	bd10      	pop	{r4, pc}
 8005828:	2300      	movs	r3, #0
 800582a:	e9c0 3304 	strd	r3, r3, [r0, #16]
 800582e:	e7b5      	b.n	800579c <HAL_SPI_Init+0x18>
 8005830:	2001      	movs	r0, #1
 8005832:	e7f8      	b.n	8005826 <HAL_SPI_Init+0xa2>

08005834 <HAL_SPI_Transmit>:
 8005834:	e92d 47f3 	stmdb	sp!, {r0, r1, r4, r5, r6, r7, r8, r9, sl, lr}
 8005838:	461f      	mov	r7, r3
 800583a:	f890 3050 	ldrb.w	r3, [r0, #80]	; 0x50
 800583e:	4604      	mov	r4, r0
 8005840:	2b01      	cmp	r3, #1
 8005842:	460d      	mov	r5, r1
 8005844:	4690      	mov	r8, r2
 8005846:	f000 80a6 	beq.w	8005996 <HAL_SPI_Transmit+0x162>
 800584a:	2301      	movs	r3, #1
 800584c:	f880 3050 	strb.w	r3, [r0, #80]	; 0x50
 8005850:	f7fd fd98 	bl	8003384 <HAL_GetTick>
 8005854:	f894 3051 	ldrb.w	r3, [r4, #81]	; 0x51
 8005858:	4682      	mov	sl, r0
 800585a:	2b01      	cmp	r3, #1
 800585c:	fa5f f983 	uxtb.w	r9, r3
 8005860:	f040 8096 	bne.w	8005990 <HAL_SPI_Transmit+0x15c>
 8005864:	2d00      	cmp	r5, #0
 8005866:	d067      	beq.n	8005938 <HAL_SPI_Transmit+0x104>
 8005868:	f1b8 0f00 	cmp.w	r8, #0
 800586c:	d064      	beq.n	8005938 <HAL_SPI_Transmit+0x104>
 800586e:	2303      	movs	r3, #3
 8005870:	f884 3051 	strb.w	r3, [r4, #81]	; 0x51
 8005874:	2300      	movs	r3, #0
 8005876:	6563      	str	r3, [r4, #84]	; 0x54
 8005878:	e9c4 3310 	strd	r3, r3, [r4, #64]	; 0x40
 800587c:	f8a4 8036 	strh.w	r8, [r4, #54]	; 0x36
 8005880:	63a3      	str	r3, [r4, #56]	; 0x38
 8005882:	87a3      	strh	r3, [r4, #60]	; 0x3c
 8005884:	87e3      	strh	r3, [r4, #62]	; 0x3e
 8005886:	68a3      	ldr	r3, [r4, #8]
 8005888:	6826      	ldr	r6, [r4, #0]
 800588a:	f5b3 4f00 	cmp.w	r3, #32768	; 0x8000
 800588e:	6325      	str	r5, [r4, #48]	; 0x30
 8005890:	f8a4 8034 	strh.w	r8, [r4, #52]	; 0x34
 8005894:	d107      	bne.n	80058a6 <HAL_SPI_Transmit+0x72>
 8005896:	6833      	ldr	r3, [r6, #0]
 8005898:	f023 0340 	bic.w	r3, r3, #64	; 0x40
 800589c:	6033      	str	r3, [r6, #0]
 800589e:	6833      	ldr	r3, [r6, #0]
 80058a0:	f443 4380 	orr.w	r3, r3, #16384	; 0x4000
 80058a4:	6033      	str	r3, [r6, #0]
 80058a6:	6833      	ldr	r3, [r6, #0]
 80058a8:	6862      	ldr	r2, [r4, #4]
 80058aa:	065b      	lsls	r3, r3, #25
 80058ac:	bf5e      	ittt	pl
 80058ae:	6833      	ldrpl	r3, [r6, #0]
 80058b0:	f043 0340 	orrpl.w	r3, r3, #64	; 0x40
 80058b4:	6033      	strpl	r3, [r6, #0]
 80058b6:	68e3      	ldr	r3, [r4, #12]
 80058b8:	f5b3 6f00 	cmp.w	r3, #2048	; 0x800
 80058bc:	d143      	bne.n	8005946 <HAL_SPI_Transmit+0x112>
 80058be:	b112      	cbz	r2, 80058c6 <HAL_SPI_Transmit+0x92>
 80058c0:	f1b8 0f01 	cmp.w	r8, #1
 80058c4:	d107      	bne.n	80058d6 <HAL_SPI_Transmit+0xa2>
 80058c6:	f835 3b02 	ldrh.w	r3, [r5], #2
 80058ca:	60f3      	str	r3, [r6, #12]
 80058cc:	6325      	str	r5, [r4, #48]	; 0x30
 80058ce:	8ee3      	ldrh	r3, [r4, #54]	; 0x36
 80058d0:	3b01      	subs	r3, #1
 80058d2:	b29b      	uxth	r3, r3
 80058d4:	86e3      	strh	r3, [r4, #54]	; 0x36
 80058d6:	8ee3      	ldrh	r3, [r4, #54]	; 0x36
 80058d8:	b29b      	uxth	r3, r3
 80058da:	b9b3      	cbnz	r3, 800590a <HAL_SPI_Transmit+0xd6>
 80058dc:	4652      	mov	r2, sl
 80058de:	4639      	mov	r1, r7
 80058e0:	4620      	mov	r0, r4
 80058e2:	f7ff ff41 	bl	8005768 <SPI_EndRxTxTransaction>
 80058e6:	2800      	cmp	r0, #0
 80058e8:	d14f      	bne.n	800598a <HAL_SPI_Transmit+0x156>
 80058ea:	68a3      	ldr	r3, [r4, #8]
 80058ec:	b933      	cbnz	r3, 80058fc <HAL_SPI_Transmit+0xc8>
 80058ee:	9301      	str	r3, [sp, #4]
 80058f0:	6823      	ldr	r3, [r4, #0]
 80058f2:	68da      	ldr	r2, [r3, #12]
 80058f4:	9201      	str	r2, [sp, #4]
 80058f6:	689b      	ldr	r3, [r3, #8]
 80058f8:	9301      	str	r3, [sp, #4]
 80058fa:	9b01      	ldr	r3, [sp, #4]
 80058fc:	6d63      	ldr	r3, [r4, #84]	; 0x54
 80058fe:	b9db      	cbnz	r3, 8005938 <HAL_SPI_Transmit+0x104>
 8005900:	2201      	movs	r2, #1
 8005902:	4699      	mov	r9, r3
 8005904:	f884 2051 	strb.w	r2, [r4, #81]	; 0x51
 8005908:	e016      	b.n	8005938 <HAL_SPI_Transmit+0x104>
 800590a:	6822      	ldr	r2, [r4, #0]
 800590c:	6893      	ldr	r3, [r2, #8]
 800590e:	0798      	lsls	r0, r3, #30
 8005910:	d505      	bpl.n	800591e <HAL_SPI_Transmit+0xea>
 8005912:	6b23      	ldr	r3, [r4, #48]	; 0x30
 8005914:	f833 1b02 	ldrh.w	r1, [r3], #2
 8005918:	60d1      	str	r1, [r2, #12]
 800591a:	6323      	str	r3, [r4, #48]	; 0x30
 800591c:	e7d7      	b.n	80058ce <HAL_SPI_Transmit+0x9a>
 800591e:	f7fd fd31 	bl	8003384 <HAL_GetTick>
 8005922:	eba0 000a 	sub.w	r0, r0, sl
 8005926:	42b8      	cmp	r0, r7
 8005928:	d3d5      	bcc.n	80058d6 <HAL_SPI_Transmit+0xa2>
 800592a:	1c79      	adds	r1, r7, #1
 800592c:	d0d3      	beq.n	80058d6 <HAL_SPI_Transmit+0xa2>
 800592e:	2301      	movs	r3, #1
 8005930:	f04f 0903 	mov.w	r9, #3
 8005934:	f884 3051 	strb.w	r3, [r4, #81]	; 0x51
 8005938:	2300      	movs	r3, #0
 800593a:	f884 3050 	strb.w	r3, [r4, #80]	; 0x50
 800593e:	4648      	mov	r0, r9
 8005940:	b002      	add	sp, #8
 8005942:	e8bd 87f0 	ldmia.w	sp!, {r4, r5, r6, r7, r8, r9, sl, pc}
 8005946:	b112      	cbz	r2, 800594e <HAL_SPI_Transmit+0x11a>
 8005948:	f1b8 0f01 	cmp.w	r8, #1
 800594c:	d108      	bne.n	8005960 <HAL_SPI_Transmit+0x12c>
 800594e:	782b      	ldrb	r3, [r5, #0]
 8005950:	7333      	strb	r3, [r6, #12]
 8005952:	6b23      	ldr	r3, [r4, #48]	; 0x30
 8005954:	3301      	adds	r3, #1
 8005956:	6323      	str	r3, [r4, #48]	; 0x30
 8005958:	8ee3      	ldrh	r3, [r4, #54]	; 0x36
 800595a:	3b01      	subs	r3, #1
 800595c:	b29b      	uxth	r3, r3
 800595e:	86e3      	strh	r3, [r4, #54]	; 0x36
 8005960:	8ee3      	ldrh	r3, [r4, #54]	; 0x36
 8005962:	b29b      	uxth	r3, r3
 8005964:	2b00      	cmp	r3, #0
 8005966:	d0b9      	beq.n	80058dc <HAL_SPI_Transmit+0xa8>
 8005968:	6823      	ldr	r3, [r4, #0]
 800596a:	689a      	ldr	r2, [r3, #8]
 800596c:	0792      	lsls	r2, r2, #30
 800596e:	d503      	bpl.n	8005978 <HAL_SPI_Transmit+0x144>
 8005970:	6b22      	ldr	r2, [r4, #48]	; 0x30
 8005972:	7812      	ldrb	r2, [r2, #0]
 8005974:	731a      	strb	r2, [r3, #12]
 8005976:	e7ec      	b.n	8005952 <HAL_SPI_Transmit+0x11e>
 8005978:	f7fd fd04 	bl	8003384 <HAL_GetTick>
 800597c:	eba0 000a 	sub.w	r0, r0, sl
 8005980:	42b8      	cmp	r0, r7
 8005982:	d3ed      	bcc.n	8005960 <HAL_SPI_Transmit+0x12c>
 8005984:	1c7b      	adds	r3, r7, #1
 8005986:	d0eb      	beq.n	8005960 <HAL_SPI_Transmit+0x12c>
 8005988:	e7d1      	b.n	800592e <HAL_SPI_Transmit+0xfa>
 800598a:	2320      	movs	r3, #32
 800598c:	6563      	str	r3, [r4, #84]	; 0x54
 800598e:	e7ac      	b.n	80058ea <HAL_SPI_Transmit+0xb6>
 8005990:	f04f 0902 	mov.w	r9, #2
 8005994:	e7d0      	b.n	8005938 <HAL_SPI_Transmit+0x104>
 8005996:	f04f 0902 	mov.w	r9, #2
 800599a:	e7d0      	b.n	800593e <HAL_SPI_Transmit+0x10a>

0800599c <HAL_SPI_TransmitReceive>:
 800599c:	e92d 43f7 	stmdb	sp!, {r0, r1, r2, r4, r5, r6, r7, r8, r9, lr}
 80059a0:	461e      	mov	r6, r3
 80059a2:	f890 3050 	ldrb.w	r3, [r0, #80]	; 0x50
 80059a6:	4604      	mov	r4, r0
 80059a8:	2b01      	cmp	r3, #1
 80059aa:	460d      	mov	r5, r1
 80059ac:	4691      	mov	r9, r2
 80059ae:	f8dd 8028 	ldr.w	r8, [sp, #40]	; 0x28
 80059b2:	f000 80e6 	beq.w	8005b82 <HAL_SPI_TransmitReceive+0x1e6>
 80059b6:	2301      	movs	r3, #1
 80059b8:	f880 3050 	strb.w	r3, [r0, #80]	; 0x50
 80059bc:	f7fd fce2 	bl	8003384 <HAL_GetTick>
 80059c0:	f894 3051 	ldrb.w	r3, [r4, #81]	; 0x51
 80059c4:	4607      	mov	r7, r0
 80059c6:	2b01      	cmp	r3, #1
 80059c8:	6862      	ldr	r2, [r4, #4]
 80059ca:	b2d9      	uxtb	r1, r3
 80059cc:	d00a      	beq.n	80059e4 <HAL_SPI_TransmitReceive+0x48>
 80059ce:	f5b2 7f82 	cmp.w	r2, #260	; 0x104
 80059d2:	f040 80d4 	bne.w	8005b7e <HAL_SPI_TransmitReceive+0x1e2>
 80059d6:	68a3      	ldr	r3, [r4, #8]
 80059d8:	2b00      	cmp	r3, #0
 80059da:	f040 80d0 	bne.w	8005b7e <HAL_SPI_TransmitReceive+0x1e2>
 80059de:	2904      	cmp	r1, #4
 80059e0:	f040 80cd 	bne.w	8005b7e <HAL_SPI_TransmitReceive+0x1e2>
 80059e4:	b90d      	cbnz	r5, 80059ea <HAL_SPI_TransmitReceive+0x4e>
 80059e6:	2001      	movs	r0, #1
 80059e8:	e06f      	b.n	8005aca <HAL_SPI_TransmitReceive+0x12e>
 80059ea:	f1b9 0f00 	cmp.w	r9, #0
 80059ee:	d0fa      	beq.n	80059e6 <HAL_SPI_TransmitReceive+0x4a>
 80059f0:	2e00      	cmp	r6, #0
 80059f2:	d0f8      	beq.n	80059e6 <HAL_SPI_TransmitReceive+0x4a>
 80059f4:	f894 3051 	ldrb.w	r3, [r4, #81]	; 0x51
 80059f8:	f8c4 9038 	str.w	r9, [r4, #56]	; 0x38
 80059fc:	2b04      	cmp	r3, #4
 80059fe:	bf1c      	itt	ne
 8005a00:	2305      	movne	r3, #5
 8005a02:	f884 3051 	strbne.w	r3, [r4, #81]	; 0x51
 8005a06:	2300      	movs	r3, #0
 8005a08:	6563      	str	r3, [r4, #84]	; 0x54
 8005a0a:	e9c4 3310 	strd	r3, r3, [r4, #64]	; 0x40
 8005a0e:	6823      	ldr	r3, [r4, #0]
 8005a10:	87e6      	strh	r6, [r4, #62]	; 0x3e
 8005a12:	86e6      	strh	r6, [r4, #54]	; 0x36
 8005a14:	6819      	ldr	r1, [r3, #0]
 8005a16:	87a6      	strh	r6, [r4, #60]	; 0x3c
 8005a18:	0649      	lsls	r1, r1, #25
 8005a1a:	bf58      	it	pl
 8005a1c:	6819      	ldrpl	r1, [r3, #0]
 8005a1e:	6325      	str	r5, [r4, #48]	; 0x30
 8005a20:	bf58      	it	pl
 8005a22:	f041 0140 	orrpl.w	r1, r1, #64	; 0x40
 8005a26:	86a6      	strh	r6, [r4, #52]	; 0x34
 8005a28:	bf58      	it	pl
 8005a2a:	6019      	strpl	r1, [r3, #0]
 8005a2c:	68e1      	ldr	r1, [r4, #12]
 8005a2e:	f5b1 6f00 	cmp.w	r1, #2048	; 0x800
 8005a32:	d150      	bne.n	8005ad6 <HAL_SPI_TransmitReceive+0x13a>
 8005a34:	b10a      	cbz	r2, 8005a3a <HAL_SPI_TransmitReceive+0x9e>
 8005a36:	2e01      	cmp	r6, #1
 8005a38:	d107      	bne.n	8005a4a <HAL_SPI_TransmitReceive+0xae>
 8005a3a:	f835 2b02 	ldrh.w	r2, [r5], #2
 8005a3e:	60da      	str	r2, [r3, #12]
 8005a40:	8ee3      	ldrh	r3, [r4, #54]	; 0x36
 8005a42:	6325      	str	r5, [r4, #48]	; 0x30
 8005a44:	3b01      	subs	r3, #1
 8005a46:	b29b      	uxth	r3, r3
 8005a48:	86e3      	strh	r3, [r4, #54]	; 0x36
 8005a4a:	2501      	movs	r5, #1
 8005a4c:	8ee3      	ldrh	r3, [r4, #54]	; 0x36
 8005a4e:	b29b      	uxth	r3, r3
 8005a50:	b963      	cbnz	r3, 8005a6c <HAL_SPI_TransmitReceive+0xd0>
 8005a52:	8fe3      	ldrh	r3, [r4, #62]	; 0x3e
 8005a54:	b29b      	uxth	r3, r3
 8005a56:	b94b      	cbnz	r3, 8005a6c <HAL_SPI_TransmitReceive+0xd0>
 8005a58:	463a      	mov	r2, r7
 8005a5a:	4641      	mov	r1, r8
 8005a5c:	4620      	mov	r0, r4
 8005a5e:	f7ff fe83 	bl	8005768 <SPI_EndRxTxTransaction>
 8005a62:	2800      	cmp	r0, #0
 8005a64:	d07a      	beq.n	8005b5c <HAL_SPI_TransmitReceive+0x1c0>
 8005a66:	2320      	movs	r3, #32
 8005a68:	6563      	str	r3, [r4, #84]	; 0x54
 8005a6a:	e7bc      	b.n	80059e6 <HAL_SPI_TransmitReceive+0x4a>
 8005a6c:	6821      	ldr	r1, [r4, #0]
 8005a6e:	688b      	ldr	r3, [r1, #8]
 8005a70:	079a      	lsls	r2, r3, #30
 8005a72:	d50d      	bpl.n	8005a90 <HAL_SPI_TransmitReceive+0xf4>
 8005a74:	8ee3      	ldrh	r3, [r4, #54]	; 0x36
 8005a76:	b29b      	uxth	r3, r3
 8005a78:	b153      	cbz	r3, 8005a90 <HAL_SPI_TransmitReceive+0xf4>
 8005a7a:	b14d      	cbz	r5, 8005a90 <HAL_SPI_TransmitReceive+0xf4>
 8005a7c:	2500      	movs	r5, #0
 8005a7e:	6b23      	ldr	r3, [r4, #48]	; 0x30
 8005a80:	f833 2b02 	ldrh.w	r2, [r3], #2
 8005a84:	60ca      	str	r2, [r1, #12]
 8005a86:	6323      	str	r3, [r4, #48]	; 0x30
 8005a88:	8ee3      	ldrh	r3, [r4, #54]	; 0x36
 8005a8a:	3b01      	subs	r3, #1
 8005a8c:	b29b      	uxth	r3, r3
 8005a8e:	86e3      	strh	r3, [r4, #54]	; 0x36
 8005a90:	688a      	ldr	r2, [r1, #8]
 8005a92:	f012 0201 	ands.w	r2, r2, #1
 8005a96:	d00c      	beq.n	8005ab2 <HAL_SPI_TransmitReceive+0x116>
 8005a98:	8fe3      	ldrh	r3, [r4, #62]	; 0x3e
 8005a9a:	b29b      	uxth	r3, r3
 8005a9c:	b14b      	cbz	r3, 8005ab2 <HAL_SPI_TransmitReceive+0x116>
 8005a9e:	4615      	mov	r5, r2
 8005aa0:	68c9      	ldr	r1, [r1, #12]
 8005aa2:	6ba3      	ldr	r3, [r4, #56]	; 0x38
 8005aa4:	f823 1b02 	strh.w	r1, [r3], #2
 8005aa8:	63a3      	str	r3, [r4, #56]	; 0x38
 8005aaa:	8fe3      	ldrh	r3, [r4, #62]	; 0x3e
 8005aac:	3b01      	subs	r3, #1
 8005aae:	b29b      	uxth	r3, r3
 8005ab0:	87e3      	strh	r3, [r4, #62]	; 0x3e
 8005ab2:	f7fd fc67 	bl	8003384 <HAL_GetTick>
 8005ab6:	1bc0      	subs	r0, r0, r7
 8005ab8:	4540      	cmp	r0, r8
 8005aba:	d3c7      	bcc.n	8005a4c <HAL_SPI_TransmitReceive+0xb0>
 8005abc:	f1b8 3fff 	cmp.w	r8, #4294967295
 8005ac0:	d0c4      	beq.n	8005a4c <HAL_SPI_TransmitReceive+0xb0>
 8005ac2:	2301      	movs	r3, #1
 8005ac4:	2003      	movs	r0, #3
 8005ac6:	f884 3051 	strb.w	r3, [r4, #81]	; 0x51
 8005aca:	2300      	movs	r3, #0
 8005acc:	f884 3050 	strb.w	r3, [r4, #80]	; 0x50
 8005ad0:	b003      	add	sp, #12
 8005ad2:	e8bd 83f0 	ldmia.w	sp!, {r4, r5, r6, r7, r8, r9, pc}
 8005ad6:	b10a      	cbz	r2, 8005adc <HAL_SPI_TransmitReceive+0x140>
 8005ad8:	2e01      	cmp	r6, #1
 8005ada:	d108      	bne.n	8005aee <HAL_SPI_TransmitReceive+0x152>
 8005adc:	782a      	ldrb	r2, [r5, #0]
 8005ade:	731a      	strb	r2, [r3, #12]
 8005ae0:	6b23      	ldr	r3, [r4, #48]	; 0x30
 8005ae2:	3301      	adds	r3, #1
 8005ae4:	6323      	str	r3, [r4, #48]	; 0x30
 8005ae6:	8ee3      	ldrh	r3, [r4, #54]	; 0x36
 8005ae8:	3b01      	subs	r3, #1
 8005aea:	b29b      	uxth	r3, r3
 8005aec:	86e3      	strh	r3, [r4, #54]	; 0x36
 8005aee:	2501      	movs	r5, #1
 8005af0:	8ee3      	ldrh	r3, [r4, #54]	; 0x36
 8005af2:	b29b      	uxth	r3, r3
 8005af4:	b91b      	cbnz	r3, 8005afe <HAL_SPI_TransmitReceive+0x162>
 8005af6:	8fe3      	ldrh	r3, [r4, #62]	; 0x3e
 8005af8:	b29b      	uxth	r3, r3
 8005afa:	2b00      	cmp	r3, #0
 8005afc:	d0ac      	beq.n	8005a58 <HAL_SPI_TransmitReceive+0xbc>
 8005afe:	6822      	ldr	r2, [r4, #0]
 8005b00:	6893      	ldr	r3, [r2, #8]
 8005b02:	079b      	lsls	r3, r3, #30
 8005b04:	d50e      	bpl.n	8005b24 <HAL_SPI_TransmitReceive+0x188>
 8005b06:	8ee3      	ldrh	r3, [r4, #54]	; 0x36
 8005b08:	b29b      	uxth	r3, r3
 8005b0a:	b15b      	cbz	r3, 8005b24 <HAL_SPI_TransmitReceive+0x188>
 8005b0c:	b155      	cbz	r5, 8005b24 <HAL_SPI_TransmitReceive+0x188>
 8005b0e:	2500      	movs	r5, #0
 8005b10:	6b23      	ldr	r3, [r4, #48]	; 0x30
 8005b12:	781b      	ldrb	r3, [r3, #0]
 8005b14:	7313      	strb	r3, [r2, #12]
 8005b16:	6b23      	ldr	r3, [r4, #48]	; 0x30
 8005b18:	3301      	adds	r3, #1
 8005b1a:	6323      	str	r3, [r4, #48]	; 0x30
 8005b1c:	8ee3      	ldrh	r3, [r4, #54]	; 0x36
 8005b1e:	3b01      	subs	r3, #1
 8005b20:	b29b      	uxth	r3, r3
 8005b22:	86e3      	strh	r3, [r4, #54]	; 0x36
 8005b24:	6822      	ldr	r2, [r4, #0]
 8005b26:	6891      	ldr	r1, [r2, #8]
 8005b28:	f011 0101 	ands.w	r1, r1, #1
 8005b2c:	d00d      	beq.n	8005b4a <HAL_SPI_TransmitReceive+0x1ae>
 8005b2e:	8fe3      	ldrh	r3, [r4, #62]	; 0x3e
 8005b30:	b29b      	uxth	r3, r3
 8005b32:	b153      	cbz	r3, 8005b4a <HAL_SPI_TransmitReceive+0x1ae>
 8005b34:	460d      	mov	r5, r1
 8005b36:	68d2      	ldr	r2, [r2, #12]
 8005b38:	6ba3      	ldr	r3, [r4, #56]	; 0x38
 8005b3a:	701a      	strb	r2, [r3, #0]
 8005b3c:	6ba3      	ldr	r3, [r4, #56]	; 0x38
 8005b3e:	3301      	adds	r3, #1
 8005b40:	63a3      	str	r3, [r4, #56]	; 0x38
 8005b42:	8fe3      	ldrh	r3, [r4, #62]	; 0x3e
 8005b44:	3b01      	subs	r3, #1
 8005b46:	b29b      	uxth	r3, r3
 8005b48:	87e3      	strh	r3, [r4, #62]	; 0x3e
 8005b4a:	f7fd fc1b 	bl	8003384 <HAL_GetTick>
 8005b4e:	1bc0      	subs	r0, r0, r7
 8005b50:	4540      	cmp	r0, r8
 8005b52:	d3cd      	bcc.n	8005af0 <HAL_SPI_TransmitReceive+0x154>
 8005b54:	f1b8 3fff 	cmp.w	r8, #4294967295
 8005b58:	d0ca      	beq.n	8005af0 <HAL_SPI_TransmitReceive+0x154>
 8005b5a:	e7b2      	b.n	8005ac2 <HAL_SPI_TransmitReceive+0x126>
 8005b5c:	68a3      	ldr	r3, [r4, #8]
 8005b5e:	b933      	cbnz	r3, 8005b6e <HAL_SPI_TransmitReceive+0x1d2>
 8005b60:	6823      	ldr	r3, [r4, #0]
 8005b62:	9001      	str	r0, [sp, #4]
 8005b64:	68da      	ldr	r2, [r3, #12]
 8005b66:	9201      	str	r2, [sp, #4]
 8005b68:	689b      	ldr	r3, [r3, #8]
 8005b6a:	9301      	str	r3, [sp, #4]
 8005b6c:	9b01      	ldr	r3, [sp, #4]
 8005b6e:	6d63      	ldr	r3, [r4, #84]	; 0x54
 8005b70:	2b00      	cmp	r3, #0
 8005b72:	f47f af38 	bne.w	80059e6 <HAL_SPI_TransmitReceive+0x4a>
 8005b76:	2301      	movs	r3, #1
 8005b78:	f884 3051 	strb.w	r3, [r4, #81]	; 0x51
 8005b7c:	e7a5      	b.n	8005aca <HAL_SPI_TransmitReceive+0x12e>
 8005b7e:	2002      	movs	r0, #2
 8005b80:	e7a3      	b.n	8005aca <HAL_SPI_TransmitReceive+0x12e>
 8005b82:	2002      	movs	r0, #2
 8005b84:	e7a4      	b.n	8005ad0 <HAL_SPI_TransmitReceive+0x134>
	...

08005b88 <TIM_OC1_SetConfig>:
 8005b88:	6a03      	ldr	r3, [r0, #32]
 8005b8a:	6a02      	ldr	r2, [r0, #32]
 8005b8c:	b570      	push	{r4, r5, r6, lr}
 8005b8e:	f022 0201 	bic.w	r2, r2, #1
 8005b92:	6202      	str	r2, [r0, #32]
 8005b94:	6844      	ldr	r4, [r0, #4]
 8005b96:	6982      	ldr	r2, [r0, #24]
 8005b98:	680d      	ldr	r5, [r1, #0]
 8005b9a:	f022 0273 	bic.w	r2, r2, #115	; 0x73
 8005b9e:	432a      	orrs	r2, r5
 8005ba0:	688d      	ldr	r5, [r1, #8]
 8005ba2:	f023 0302 	bic.w	r3, r3, #2
 8005ba6:	432b      	orrs	r3, r5
 8005ba8:	4d0a      	ldr	r5, [pc, #40]	; (8005bd4 <TIM_OC1_SetConfig+0x4c>)
 8005baa:	42a8      	cmp	r0, r5
 8005bac:	d10b      	bne.n	8005bc6 <TIM_OC1_SetConfig+0x3e>
 8005bae:	68cd      	ldr	r5, [r1, #12]
 8005bb0:	f023 0308 	bic.w	r3, r3, #8
 8005bb4:	432b      	orrs	r3, r5
 8005bb6:	f424 7440 	bic.w	r4, r4, #768	; 0x300
 8005bba:	e9d1 5605 	ldrd	r5, r6, [r1, #20]
 8005bbe:	4335      	orrs	r5, r6
 8005bc0:	f023 0304 	bic.w	r3, r3, #4
 8005bc4:	432c      	orrs	r4, r5
 8005bc6:	6044      	str	r4, [r0, #4]
 8005bc8:	6182      	str	r2, [r0, #24]
 8005bca:	684a      	ldr	r2, [r1, #4]
 8005bcc:	6342      	str	r2, [r0, #52]	; 0x34
 8005bce:	6203      	str	r3, [r0, #32]
 8005bd0:	bd70      	pop	{r4, r5, r6, pc}
 8005bd2:	bf00      	nop
 8005bd4:	40012c00 	.word	0x40012c00

08005bd8 <TIM_OC3_SetConfig>:
 8005bd8:	6a03      	ldr	r3, [r0, #32]
 8005bda:	6a02      	ldr	r2, [r0, #32]
 8005bdc:	b570      	push	{r4, r5, r6, lr}
 8005bde:	f422 7280 	bic.w	r2, r2, #256	; 0x100
 8005be2:	6202      	str	r2, [r0, #32]
 8005be4:	6844      	ldr	r4, [r0, #4]
 8005be6:	69c2      	ldr	r2, [r0, #28]
 8005be8:	680d      	ldr	r5, [r1, #0]
 8005bea:	f022 0273 	bic.w	r2, r2, #115	; 0x73
 8005bee:	432a      	orrs	r2, r5
 8005bf0:	688d      	ldr	r5, [r1, #8]
 8005bf2:	f423 7300 	bic.w	r3, r3, #512	; 0x200
 8005bf6:	ea43 2305 	orr.w	r3, r3, r5, lsl #8
 8005bfa:	4d0b      	ldr	r5, [pc, #44]	; (8005c28 <TIM_OC3_SetConfig+0x50>)
 8005bfc:	42a8      	cmp	r0, r5
 8005bfe:	d10d      	bne.n	8005c1c <TIM_OC3_SetConfig+0x44>
 8005c00:	68cd      	ldr	r5, [r1, #12]
 8005c02:	f423 6300 	bic.w	r3, r3, #2048	; 0x800
 8005c06:	ea43 2305 	orr.w	r3, r3, r5, lsl #8
 8005c0a:	f424 5440 	bic.w	r4, r4, #12288	; 0x3000
 8005c0e:	e9d1 5605 	ldrd	r5, r6, [r1, #20]
 8005c12:	4335      	orrs	r5, r6
 8005c14:	f423 6380 	bic.w	r3, r3, #1024	; 0x400
 8005c18:	ea44 1405 	orr.w	r4, r4, r5, lsl #4
 8005c1c:	6044      	str	r4, [r0, #4]
 8005c1e:	61c2      	str	r2, [r0, #28]
 8005c20:	684a      	ldr	r2, [r1, #4]
 8005c22:	63c2      	str	r2, [r0, #60]	; 0x3c
 8005c24:	6203      	str	r3, [r0, #32]
 8005c26:	bd70      	pop	{r4, r5, r6, pc}
 8005c28:	40012c00 	.word	0x40012c00

08005c2c <TIM_OC4_SetConfig>:
 8005c2c:	6a03      	ldr	r3, [r0, #32]
 8005c2e:	6a02      	ldr	r2, [r0, #32]
 8005c30:	b530      	push	{r4, r5, lr}
 8005c32:	f422 5280 	bic.w	r2, r2, #4096	; 0x1000
 8005c36:	6202      	str	r2, [r0, #32]
 8005c38:	6844      	ldr	r4, [r0, #4]
 8005c3a:	69c2      	ldr	r2, [r0, #28]
 8005c3c:	680d      	ldr	r5, [r1, #0]
 8005c3e:	f422 42e6 	bic.w	r2, r2, #29440	; 0x7300
 8005c42:	ea42 2205 	orr.w	r2, r2, r5, lsl #8
 8005c46:	688d      	ldr	r5, [r1, #8]
 8005c48:	f423 5300 	bic.w	r3, r3, #8192	; 0x2000
 8005c4c:	ea43 3305 	orr.w	r3, r3, r5, lsl #12
 8005c50:	4d06      	ldr	r5, [pc, #24]	; (8005c6c <TIM_OC4_SetConfig+0x40>)
 8005c52:	42a8      	cmp	r0, r5
 8005c54:	bf02      	ittt	eq
 8005c56:	694d      	ldreq	r5, [r1, #20]
 8005c58:	f424 4480 	biceq.w	r4, r4, #16384	; 0x4000
 8005c5c:	ea44 1485 	orreq.w	r4, r4, r5, lsl #6
 8005c60:	6044      	str	r4, [r0, #4]
 8005c62:	61c2      	str	r2, [r0, #28]
 8005c64:	684a      	ldr	r2, [r1, #4]
 8005c66:	6402      	str	r2, [r0, #64]	; 0x40
 8005c68:	6203      	str	r3, [r0, #32]
 8005c6a:	bd30      	pop	{r4, r5, pc}
 8005c6c:	40012c00 	.word	0x40012c00

08005c70 <HAL_TIM_Base_Start>:
 8005c70:	f890 303d 	ldrb.w	r3, [r0, #61]	; 0x3d
 8005c74:	2b01      	cmp	r3, #1
 8005c76:	d11c      	bne.n	8005cb2 <HAL_TIM_Base_Start+0x42>
 8005c78:	2302      	movs	r3, #2
 8005c7a:	4a0f      	ldr	r2, [pc, #60]	; (8005cb8 <HAL_TIM_Base_Start+0x48>)
 8005c7c:	f880 303d 	strb.w	r3, [r0, #61]	; 0x3d
 8005c80:	6803      	ldr	r3, [r0, #0]
 8005c82:	4293      	cmp	r3, r2
 8005c84:	d00a      	beq.n	8005c9c <HAL_TIM_Base_Start+0x2c>
 8005c86:	f1b3 4f80 	cmp.w	r3, #1073741824	; 0x40000000
 8005c8a:	d007      	beq.n	8005c9c <HAL_TIM_Base_Start+0x2c>
 8005c8c:	f5a2 3294 	sub.w	r2, r2, #75776	; 0x12800
 8005c90:	4293      	cmp	r3, r2
 8005c92:	d003      	beq.n	8005c9c <HAL_TIM_Base_Start+0x2c>
 8005c94:	f502 6280 	add.w	r2, r2, #1024	; 0x400
 8005c98:	4293      	cmp	r3, r2
 8005c9a:	d104      	bne.n	8005ca6 <HAL_TIM_Base_Start+0x36>
 8005c9c:	689a      	ldr	r2, [r3, #8]
 8005c9e:	f002 0207 	and.w	r2, r2, #7
 8005ca2:	2a06      	cmp	r2, #6
 8005ca4:	d003      	beq.n	8005cae <HAL_TIM_Base_Start+0x3e>
 8005ca6:	681a      	ldr	r2, [r3, #0]
 8005ca8:	f042 0201 	orr.w	r2, r2, #1
 8005cac:	601a      	str	r2, [r3, #0]
 8005cae:	2000      	movs	r0, #0
 8005cb0:	4770      	bx	lr
 8005cb2:	2001      	movs	r0, #1
 8005cb4:	4770      	bx	lr
 8005cb6:	bf00      	nop
 8005cb8:	40012c00 	.word	0x40012c00

08005cbc <HAL_TIM_Base_Start_IT>:
 8005cbc:	f890 303d 	ldrb.w	r3, [r0, #61]	; 0x3d
 8005cc0:	2b01      	cmp	r3, #1
 8005cc2:	d120      	bne.n	8005d06 <HAL_TIM_Base_Start_IT+0x4a>
 8005cc4:	2302      	movs	r3, #2
 8005cc6:	f880 303d 	strb.w	r3, [r0, #61]	; 0x3d
 8005cca:	6803      	ldr	r3, [r0, #0]
 8005ccc:	68da      	ldr	r2, [r3, #12]
 8005cce:	f042 0201 	orr.w	r2, r2, #1
 8005cd2:	60da      	str	r2, [r3, #12]
 8005cd4:	4a0d      	ldr	r2, [pc, #52]	; (8005d0c <HAL_TIM_Base_Start_IT+0x50>)
 8005cd6:	4293      	cmp	r3, r2
 8005cd8:	d00a      	beq.n	8005cf0 <HAL_TIM_Base_Start_IT+0x34>
 8005cda:	f1b3 4f80 	cmp.w	r3, #1073741824	; 0x40000000
 8005cde:	d007      	beq.n	8005cf0 <HAL_TIM_Base_Start_IT+0x34>
 8005ce0:	f5a2 3294 	sub.w	r2, r2, #75776	; 0x12800
 8005ce4:	4293      	cmp	r3, r2
 8005ce6:	d003      	beq.n	8005cf0 <HAL_TIM_Base_Start_IT+0x34>
 8005ce8:	f502 6280 	add.w	r2, r2, #1024	; 0x400
 8005cec:	4293      	cmp	r3, r2
 8005cee:	d104      	bne.n	8005cfa <HAL_TIM_Base_Start_IT+0x3e>
 8005cf0:	689a      	ldr	r2, [r3, #8]
 8005cf2:	f002 0207 	and.w	r2, r2, #7
 8005cf6:	2a06      	cmp	r2, #6
 8005cf8:	d003      	beq.n	8005d02 <HAL_TIM_Base_Start_IT+0x46>
 8005cfa:	681a      	ldr	r2, [r3, #0]
 8005cfc:	f042 0201 	orr.w	r2, r2, #1
 8005d00:	601a      	str	r2, [r3, #0]
 8005d02:	2000      	movs	r0, #0
 8005d04:	4770      	bx	lr
 8005d06:	2001      	movs	r0, #1
 8005d08:	4770      	bx	lr
 8005d0a:	bf00      	nop
 8005d0c:	40012c00 	.word	0x40012c00

08005d10 <HAL_TIM_OC_MspInit>:
 8005d10:	4770      	bx	lr

08005d12 <HAL_TIM_PWM_MspInit>:
 8005d12:	4770      	bx	lr

08005d14 <HAL_TIM_OC_DelayElapsedCallback>:
 8005d14:	4770      	bx	lr

08005d16 <HAL_TIM_IC_CaptureCallback>:
 8005d16:	4770      	bx	lr

08005d18 <HAL_TIM_PWM_PulseFinishedCallback>:
 8005d18:	4770      	bx	lr

08005d1a <HAL_TIM_TriggerCallback>:
 8005d1a:	4770      	bx	lr

08005d1c <HAL_TIM_IRQHandler>:
 8005d1c:	6803      	ldr	r3, [r0, #0]
 8005d1e:	b510      	push	{r4, lr}
 8005d20:	691a      	ldr	r2, [r3, #16]
 8005d22:	4604      	mov	r4, r0
 8005d24:	0791      	lsls	r1, r2, #30
 8005d26:	d50e      	bpl.n	8005d46 <HAL_TIM_IRQHandler+0x2a>
 8005d28:	68da      	ldr	r2, [r3, #12]
 8005d2a:	0792      	lsls	r2, r2, #30
 8005d2c:	d50b      	bpl.n	8005d46 <HAL_TIM_IRQHandler+0x2a>
 8005d2e:	f06f 0202 	mvn.w	r2, #2
 8005d32:	611a      	str	r2, [r3, #16]
 8005d34:	2201      	movs	r2, #1
 8005d36:	7702      	strb	r2, [r0, #28]
 8005d38:	699b      	ldr	r3, [r3, #24]
 8005d3a:	079b      	lsls	r3, r3, #30
 8005d3c:	d077      	beq.n	8005e2e <HAL_TIM_IRQHandler+0x112>
 8005d3e:	f7ff ffea 	bl	8005d16 <HAL_TIM_IC_CaptureCallback>
 8005d42:	2300      	movs	r3, #0
 8005d44:	7723      	strb	r3, [r4, #28]
 8005d46:	6823      	ldr	r3, [r4, #0]
 8005d48:	691a      	ldr	r2, [r3, #16]
 8005d4a:	0750      	lsls	r0, r2, #29
 8005d4c:	d510      	bpl.n	8005d70 <HAL_TIM_IRQHandler+0x54>
 8005d4e:	68da      	ldr	r2, [r3, #12]
 8005d50:	0751      	lsls	r1, r2, #29
 8005d52:	d50d      	bpl.n	8005d70 <HAL_TIM_IRQHandler+0x54>
 8005d54:	f06f 0204 	mvn.w	r2, #4
 8005d58:	611a      	str	r2, [r3, #16]
 8005d5a:	2202      	movs	r2, #2
 8005d5c:	7722      	strb	r2, [r4, #28]
 8005d5e:	699b      	ldr	r3, [r3, #24]
 8005d60:	4620      	mov	r0, r4
 8005d62:	f413 7f40 	tst.w	r3, #768	; 0x300
 8005d66:	d068      	beq.n	8005e3a <HAL_TIM_IRQHandler+0x11e>
 8005d68:	f7ff ffd5 	bl	8005d16 <HAL_TIM_IC_CaptureCallback>
 8005d6c:	2300      	movs	r3, #0
 8005d6e:	7723      	strb	r3, [r4, #28]
 8005d70:	6823      	ldr	r3, [r4, #0]
 8005d72:	691a      	ldr	r2, [r3, #16]
 8005d74:	0712      	lsls	r2, r2, #28
 8005d76:	d50f      	bpl.n	8005d98 <HAL_TIM_IRQHandler+0x7c>
 8005d78:	68da      	ldr	r2, [r3, #12]
 8005d7a:	0710      	lsls	r0, r2, #28
 8005d7c:	d50c      	bpl.n	8005d98 <HAL_TIM_IRQHandler+0x7c>
 8005d7e:	f06f 0208 	mvn.w	r2, #8
 8005d82:	611a      	str	r2, [r3, #16]
 8005d84:	2204      	movs	r2, #4
 8005d86:	7722      	strb	r2, [r4, #28]
 8005d88:	69db      	ldr	r3, [r3, #28]
 8005d8a:	4620      	mov	r0, r4
 8005d8c:	0799      	lsls	r1, r3, #30
 8005d8e:	d05a      	beq.n	8005e46 <HAL_TIM_IRQHandler+0x12a>
 8005d90:	f7ff ffc1 	bl	8005d16 <HAL_TIM_IC_CaptureCallback>
 8005d94:	2300      	movs	r3, #0
 8005d96:	7723      	strb	r3, [r4, #28]
 8005d98:	6823      	ldr	r3, [r4, #0]
 8005d9a:	691a      	ldr	r2, [r3, #16]
 8005d9c:	06d2      	lsls	r2, r2, #27
 8005d9e:	d510      	bpl.n	8005dc2 <HAL_TIM_IRQHandler+0xa6>
 8005da0:	68da      	ldr	r2, [r3, #12]
 8005da2:	06d0      	lsls	r0, r2, #27
 8005da4:	d50d      	bpl.n	8005dc2 <HAL_TIM_IRQHandler+0xa6>
 8005da6:	f06f 0210 	mvn.w	r2, #16
 8005daa:	611a      	str	r2, [r3, #16]
 8005dac:	2208      	movs	r2, #8
 8005dae:	7722      	strb	r2, [r4, #28]
 8005db0:	69db      	ldr	r3, [r3, #28]
 8005db2:	4620      	mov	r0, r4
 8005db4:	f413 7f40 	tst.w	r3, #768	; 0x300
 8005db8:	d04b      	beq.n	8005e52 <HAL_TIM_IRQHandler+0x136>
 8005dba:	f7ff ffac 	bl	8005d16 <HAL_TIM_IC_CaptureCallback>
 8005dbe:	2300      	movs	r3, #0
 8005dc0:	7723      	strb	r3, [r4, #28]
 8005dc2:	6823      	ldr	r3, [r4, #0]
 8005dc4:	691a      	ldr	r2, [r3, #16]
 8005dc6:	07d1      	lsls	r1, r2, #31
 8005dc8:	d508      	bpl.n	8005ddc <HAL_TIM_IRQHandler+0xc0>
 8005dca:	68da      	ldr	r2, [r3, #12]
 8005dcc:	07d2      	lsls	r2, r2, #31
 8005dce:	d505      	bpl.n	8005ddc <HAL_TIM_IRQHandler+0xc0>
 8005dd0:	f06f 0201 	mvn.w	r2, #1
 8005dd4:	4620      	mov	r0, r4
 8005dd6:	611a      	str	r2, [r3, #16]
 8005dd8:	f7fb ff66 	bl	8001ca8 <HAL_TIM_PeriodElapsedCallback>
 8005ddc:	6823      	ldr	r3, [r4, #0]
 8005dde:	691a      	ldr	r2, [r3, #16]
 8005de0:	0610      	lsls	r0, r2, #24
 8005de2:	d508      	bpl.n	8005df6 <HAL_TIM_IRQHandler+0xda>
 8005de4:	68da      	ldr	r2, [r3, #12]
 8005de6:	0611      	lsls	r1, r2, #24
 8005de8:	d505      	bpl.n	8005df6 <HAL_TIM_IRQHandler+0xda>
 8005dea:	f06f 0280 	mvn.w	r2, #128	; 0x80
 8005dee:	4620      	mov	r0, r4
 8005df0:	611a      	str	r2, [r3, #16]
 8005df2:	f000 face 	bl	8006392 <HAL_TIMEx_BreakCallback>
 8005df6:	6823      	ldr	r3, [r4, #0]
 8005df8:	691a      	ldr	r2, [r3, #16]
 8005dfa:	0652      	lsls	r2, r2, #25
 8005dfc:	d508      	bpl.n	8005e10 <HAL_TIM_IRQHandler+0xf4>
 8005dfe:	68da      	ldr	r2, [r3, #12]
 8005e00:	0650      	lsls	r0, r2, #25
 8005e02:	d505      	bpl.n	8005e10 <HAL_TIM_IRQHandler+0xf4>
 8005e04:	f06f 0240 	mvn.w	r2, #64	; 0x40
 8005e08:	4620      	mov	r0, r4
 8005e0a:	611a      	str	r2, [r3, #16]
 8005e0c:	f7ff ff85 	bl	8005d1a <HAL_TIM_TriggerCallback>
 8005e10:	6823      	ldr	r3, [r4, #0]
 8005e12:	691a      	ldr	r2, [r3, #16]
 8005e14:	0691      	lsls	r1, r2, #26
 8005e16:	d522      	bpl.n	8005e5e <HAL_TIM_IRQHandler+0x142>
 8005e18:	68da      	ldr	r2, [r3, #12]
 8005e1a:	0692      	lsls	r2, r2, #26
 8005e1c:	d51f      	bpl.n	8005e5e <HAL_TIM_IRQHandler+0x142>
 8005e1e:	f06f 0220 	mvn.w	r2, #32
 8005e22:	4620      	mov	r0, r4
 8005e24:	e8bd 4010 	ldmia.w	sp!, {r4, lr}
 8005e28:	611a      	str	r2, [r3, #16]
 8005e2a:	f000 bab1 	b.w	8006390 <HAL_TIMEx_CommutCallback>
 8005e2e:	f7ff ff71 	bl	8005d14 <HAL_TIM_OC_DelayElapsedCallback>
 8005e32:	4620      	mov	r0, r4
 8005e34:	f7ff ff70 	bl	8005d18 <HAL_TIM_PWM_PulseFinishedCallback>
 8005e38:	e783      	b.n	8005d42 <HAL_TIM_IRQHandler+0x26>
 8005e3a:	f7ff ff6b 	bl	8005d14 <HAL_TIM_OC_DelayElapsedCallback>
 8005e3e:	4620      	mov	r0, r4
 8005e40:	f7ff ff6a 	bl	8005d18 <HAL_TIM_PWM_PulseFinishedCallback>
 8005e44:	e792      	b.n	8005d6c <HAL_TIM_IRQHandler+0x50>
 8005e46:	f7ff ff65 	bl	8005d14 <HAL_TIM_OC_DelayElapsedCallback>
 8005e4a:	4620      	mov	r0, r4
 8005e4c:	f7ff ff64 	bl	8005d18 <HAL_TIM_PWM_PulseFinishedCallback>
 8005e50:	e7a0      	b.n	8005d94 <HAL_TIM_IRQHandler+0x78>
 8005e52:	f7ff ff5f 	bl	8005d14 <HAL_TIM_OC_DelayElapsedCallback>
 8005e56:	4620      	mov	r0, r4
 8005e58:	f7ff ff5e 	bl	8005d18 <HAL_TIM_PWM_PulseFinishedCallback>
 8005e5c:	e7af      	b.n	8005dbe <HAL_TIM_IRQHandler+0xa2>
 8005e5e:	bd10      	pop	{r4, pc}

08005e60 <TIM_Base_SetConfig>:
 8005e60:	4a1a      	ldr	r2, [pc, #104]	; (8005ecc <TIM_Base_SetConfig+0x6c>)
 8005e62:	6803      	ldr	r3, [r0, #0]
 8005e64:	4290      	cmp	r0, r2
 8005e66:	d00a      	beq.n	8005e7e <TIM_Base_SetConfig+0x1e>
 8005e68:	f1b0 4f80 	cmp.w	r0, #1073741824	; 0x40000000
 8005e6c:	d007      	beq.n	8005e7e <TIM_Base_SetConfig+0x1e>
 8005e6e:	f5a2 3294 	sub.w	r2, r2, #75776	; 0x12800
 8005e72:	4290      	cmp	r0, r2
 8005e74:	d003      	beq.n	8005e7e <TIM_Base_SetConfig+0x1e>
 8005e76:	f502 6280 	add.w	r2, r2, #1024	; 0x400
 8005e7a:	4290      	cmp	r0, r2
 8005e7c:	d115      	bne.n	8005eaa <TIM_Base_SetConfig+0x4a>
 8005e7e:	684a      	ldr	r2, [r1, #4]
 8005e80:	f023 0370 	bic.w	r3, r3, #112	; 0x70
 8005e84:	4313      	orrs	r3, r2
 8005e86:	4a11      	ldr	r2, [pc, #68]	; (8005ecc <TIM_Base_SetConfig+0x6c>)
 8005e88:	4290      	cmp	r0, r2
 8005e8a:	d00a      	beq.n	8005ea2 <TIM_Base_SetConfig+0x42>
 8005e8c:	f1b0 4f80 	cmp.w	r0, #1073741824	; 0x40000000
 8005e90:	d007      	beq.n	8005ea2 <TIM_Base_SetConfig+0x42>
 8005e92:	f5a2 3294 	sub.w	r2, r2, #75776	; 0x12800
 8005e96:	4290      	cmp	r0, r2
 8005e98:	d003      	beq.n	8005ea2 <TIM_Base_SetConfig+0x42>
 8005e9a:	f502 6280 	add.w	r2, r2, #1024	; 0x400
 8005e9e:	4290      	cmp	r0, r2
 8005ea0:	d103      	bne.n	8005eaa <TIM_Base_SetConfig+0x4a>
 8005ea2:	68ca      	ldr	r2, [r1, #12]
 8005ea4:	f423 7340 	bic.w	r3, r3, #768	; 0x300
 8005ea8:	4313      	orrs	r3, r2
 8005eaa:	694a      	ldr	r2, [r1, #20]
 8005eac:	f023 0380 	bic.w	r3, r3, #128	; 0x80
 8005eb0:	4313      	orrs	r3, r2
 8005eb2:	6003      	str	r3, [r0, #0]
 8005eb4:	688b      	ldr	r3, [r1, #8]
 8005eb6:	62c3      	str	r3, [r0, #44]	; 0x2c
 8005eb8:	680b      	ldr	r3, [r1, #0]
 8005eba:	6283      	str	r3, [r0, #40]	; 0x28
 8005ebc:	4b03      	ldr	r3, [pc, #12]	; (8005ecc <TIM_Base_SetConfig+0x6c>)
 8005ebe:	4298      	cmp	r0, r3
 8005ec0:	bf04      	itt	eq
 8005ec2:	690b      	ldreq	r3, [r1, #16]
 8005ec4:	6303      	streq	r3, [r0, #48]	; 0x30
 8005ec6:	2301      	movs	r3, #1
 8005ec8:	6143      	str	r3, [r0, #20]
 8005eca:	4770      	bx	lr
 8005ecc:	40012c00 	.word	0x40012c00

08005ed0 <HAL_TIM_Base_Init>:
 8005ed0:	b510      	push	{r4, lr}
 8005ed2:	4604      	mov	r4, r0
 8005ed4:	b330      	cbz	r0, 8005f24 <HAL_TIM_Base_Init+0x54>
 8005ed6:	f890 303d 	ldrb.w	r3, [r0, #61]	; 0x3d
 8005eda:	f003 02ff 	and.w	r2, r3, #255	; 0xff
 8005ede:	b91b      	cbnz	r3, 8005ee8 <HAL_TIM_Base_Init+0x18>
 8005ee0:	f880 203c 	strb.w	r2, [r0, #60]	; 0x3c
 8005ee4:	f7fd f83a 	bl	8002f5c <HAL_TIM_Base_MspInit>
 8005ee8:	2302      	movs	r3, #2
 8005eea:	6820      	ldr	r0, [r4, #0]
 8005eec:	f884 303d 	strb.w	r3, [r4, #61]	; 0x3d
 8005ef0:	1d21      	adds	r1, r4, #4
 8005ef2:	f7ff ffb5 	bl	8005e60 <TIM_Base_SetConfig>
 8005ef6:	2301      	movs	r3, #1
 8005ef8:	2000      	movs	r0, #0
 8005efa:	f884 3046 	strb.w	r3, [r4, #70]	; 0x46
 8005efe:	f884 303e 	strb.w	r3, [r4, #62]	; 0x3e
 8005f02:	f884 303f 	strb.w	r3, [r4, #63]	; 0x3f
 8005f06:	f884 3040 	strb.w	r3, [r4, #64]	; 0x40
 8005f0a:	f884 3041 	strb.w	r3, [r4, #65]	; 0x41
 8005f0e:	f884 3042 	strb.w	r3, [r4, #66]	; 0x42
 8005f12:	f884 3043 	strb.w	r3, [r4, #67]	; 0x43
 8005f16:	f884 3044 	strb.w	r3, [r4, #68]	; 0x44
 8005f1a:	f884 3045 	strb.w	r3, [r4, #69]	; 0x45
 8005f1e:	f884 303d 	strb.w	r3, [r4, #61]	; 0x3d
 8005f22:	bd10      	pop	{r4, pc}
 8005f24:	2001      	movs	r0, #1
 8005f26:	e7fc      	b.n	8005f22 <HAL_TIM_Base_Init+0x52>

08005f28 <HAL_TIM_OC_Init>:
 8005f28:	b510      	push	{r4, lr}
 8005f2a:	4604      	mov	r4, r0
 8005f2c:	b330      	cbz	r0, 8005f7c <HAL_TIM_OC_Init+0x54>
 8005f2e:	f890 303d 	ldrb.w	r3, [r0, #61]	; 0x3d
 8005f32:	f003 02ff 	and.w	r2, r3, #255	; 0xff
 8005f36:	b91b      	cbnz	r3, 8005f40 <HAL_TIM_OC_Init+0x18>
 8005f38:	f880 203c 	strb.w	r2, [r0, #60]	; 0x3c
 8005f3c:	f7ff fee8 	bl	8005d10 <HAL_TIM_OC_MspInit>
 8005f40:	2302      	movs	r3, #2
 8005f42:	6820      	ldr	r0, [r4, #0]
 8005f44:	f884 303d 	strb.w	r3, [r4, #61]	; 0x3d
 8005f48:	1d21      	adds	r1, r4, #4
 8005f4a:	f7ff ff89 	bl	8005e60 <TIM_Base_SetConfig>
 8005f4e:	2301      	movs	r3, #1
 8005f50:	2000      	movs	r0, #0
 8005f52:	f884 3046 	strb.w	r3, [r4, #70]	; 0x46
 8005f56:	f884 303e 	strb.w	r3, [r4, #62]	; 0x3e
 8005f5a:	f884 303f 	strb.w	r3, [r4, #63]	; 0x3f
 8005f5e:	f884 3040 	strb.w	r3, [r4, #64]	; 0x40
 8005f62:	f884 3041 	strb.w	r3, [r4, #65]	; 0x41
 8005f66:	f884 3042 	strb.w	r3, [r4, #66]	; 0x42
 8005f6a:	f884 3043 	strb.w	r3, [r4, #67]	; 0x43
 8005f6e:	f884 3044 	strb.w	r3, [r4, #68]	; 0x44
 8005f72:	f884 3045 	strb.w	r3, [r4, #69]	; 0x45
 8005f76:	f884 303d 	strb.w	r3, [r4, #61]	; 0x3d
 8005f7a:	bd10      	pop	{r4, pc}
 8005f7c:	2001      	movs	r0, #1
 8005f7e:	e7fc      	b.n	8005f7a <HAL_TIM_OC_Init+0x52>

08005f80 <HAL_TIM_PWM_Init>:
 8005f80:	b510      	push	{r4, lr}
 8005f82:	4604      	mov	r4, r0
 8005f84:	b330      	cbz	r0, 8005fd4 <HAL_TIM_PWM_Init+0x54>
 8005f86:	f890 303d 	ldrb.w	r3, [r0, #61]	; 0x3d
 8005f8a:	f003 02ff 	and.w	r2, r3, #255	; 0xff
 8005f8e:	b91b      	cbnz	r3, 8005f98 <HAL_TIM_PWM_Init+0x18>
 8005f90:	f880 203c 	strb.w	r2, [r0, #60]	; 0x3c
 8005f94:	f7ff febd 	bl	8005d12 <HAL_TIM_PWM_MspInit>
 8005f98:	2302      	movs	r3, #2
 8005f9a:	6820      	ldr	r0, [r4, #0]
 8005f9c:	f884 303d 	strb.w	r3, [r4, #61]	; 0x3d
 8005fa0:	1d21      	adds	r1, r4, #4
 8005fa2:	f7ff ff5d 	bl	8005e60 <TIM_Base_SetConfig>
 8005fa6:	2301      	movs	r3, #1
 8005fa8:	2000      	movs	r0, #0
 8005faa:	f884 3046 	strb.w	r3, [r4, #70]	; 0x46
 8005fae:	f884 303e 	strb.w	r3, [r4, #62]	; 0x3e
 8005fb2:	f884 303f 	strb.w	r3, [r4, #63]	; 0x3f
 8005fb6:	f884 3040 	strb.w	r3, [r4, #64]	; 0x40
 8005fba:	f884 3041 	strb.w	r3, [r4, #65]	; 0x41
 8005fbe:	f884 3042 	strb.w	r3, [r4, #66]	; 0x42
 8005fc2:	f884 3043 	strb.w	r3, [r4, #67]	; 0x43
 8005fc6:	f884 3044 	strb.w	r3, [r4, #68]	; 0x44
 8005fca:	f884 3045 	strb.w	r3, [r4, #69]	; 0x45
 8005fce:	f884 303d 	strb.w	r3, [r4, #61]	; 0x3d
 8005fd2:	bd10      	pop	{r4, pc}
 8005fd4:	2001      	movs	r0, #1
 8005fd6:	e7fc      	b.n	8005fd2 <HAL_TIM_PWM_Init+0x52>

08005fd8 <TIM_OC2_SetConfig>:
 8005fd8:	6a03      	ldr	r3, [r0, #32]
 8005fda:	6a02      	ldr	r2, [r0, #32]
 8005fdc:	b570      	push	{r4, r5, r6, lr}
 8005fde:	f022 0210 	bic.w	r2, r2, #16
 8005fe2:	6202      	str	r2, [r0, #32]
 8005fe4:	6844      	ldr	r4, [r0, #4]
 8005fe6:	6982      	ldr	r2, [r0, #24]
 8005fe8:	680d      	ldr	r5, [r1, #0]
 8005fea:	f422 42e6 	bic.w	r2, r2, #29440	; 0x7300
 8005fee:	ea42 2205 	orr.w	r2, r2, r5, lsl #8
 8005ff2:	688d      	ldr	r5, [r1, #8]
 8005ff4:	f023 0320 	bic.w	r3, r3, #32
 8005ff8:	ea43 1305 	orr.w	r3, r3, r5, lsl #4
 8005ffc:	4d0b      	ldr	r5, [pc, #44]	; (800602c <TIM_OC2_SetConfig+0x54>)
 8005ffe:	42a8      	cmp	r0, r5
 8006000:	d10d      	bne.n	800601e <TIM_OC2_SetConfig+0x46>
 8006002:	68cd      	ldr	r5, [r1, #12]
 8006004:	f023 0380 	bic.w	r3, r3, #128	; 0x80
 8006008:	ea43 1305 	orr.w	r3, r3, r5, lsl #4
 800600c:	f424 6440 	bic.w	r4, r4, #3072	; 0xc00
 8006010:	e9d1 5605 	ldrd	r5, r6, [r1, #20]
 8006014:	4335      	orrs	r5, r6
 8006016:	f023 0340 	bic.w	r3, r3, #64	; 0x40
 800601a:	ea44 0485 	orr.w	r4, r4, r5, lsl #2
 800601e:	6044      	str	r4, [r0, #4]
 8006020:	6182      	str	r2, [r0, #24]
 8006022:	684a      	ldr	r2, [r1, #4]
 8006024:	6382      	str	r2, [r0, #56]	; 0x38
 8006026:	6203      	str	r3, [r0, #32]
 8006028:	bd70      	pop	{r4, r5, r6, pc}
 800602a:	bf00      	nop
 800602c:	40012c00 	.word	0x40012c00

08006030 <HAL_TIM_OC_ConfigChannel>:
 8006030:	b538      	push	{r3, r4, r5, lr}
 8006032:	f890 303c 	ldrb.w	r3, [r0, #60]	; 0x3c
 8006036:	4605      	mov	r5, r0
 8006038:	2b01      	cmp	r3, #1
 800603a:	d01d      	beq.n	8006078 <HAL_TIM_OC_ConfigChannel+0x48>
 800603c:	2a08      	cmp	r2, #8
 800603e:	d017      	beq.n	8006070 <HAL_TIM_OC_ConfigChannel+0x40>
 8006040:	d807      	bhi.n	8006052 <HAL_TIM_OC_ConfigChannel+0x22>
 8006042:	b162      	cbz	r2, 800605e <HAL_TIM_OC_ConfigChannel+0x2e>
 8006044:	2a04      	cmp	r2, #4
 8006046:	d00f      	beq.n	8006068 <HAL_TIM_OC_ConfigChannel+0x38>
 8006048:	2001      	movs	r0, #1
 800604a:	2300      	movs	r3, #0
 800604c:	f885 303c 	strb.w	r3, [r5, #60]	; 0x3c
 8006050:	bd38      	pop	{r3, r4, r5, pc}
 8006052:	2a0c      	cmp	r2, #12
 8006054:	d1f8      	bne.n	8006048 <HAL_TIM_OC_ConfigChannel+0x18>
 8006056:	6800      	ldr	r0, [r0, #0]
 8006058:	f7ff fde8 	bl	8005c2c <TIM_OC4_SetConfig>
 800605c:	e002      	b.n	8006064 <HAL_TIM_OC_ConfigChannel+0x34>
 800605e:	6800      	ldr	r0, [r0, #0]
 8006060:	f7ff fd92 	bl	8005b88 <TIM_OC1_SetConfig>
 8006064:	2000      	movs	r0, #0
 8006066:	e7f0      	b.n	800604a <HAL_TIM_OC_ConfigChannel+0x1a>
 8006068:	6800      	ldr	r0, [r0, #0]
 800606a:	f7ff ffb5 	bl	8005fd8 <TIM_OC2_SetConfig>
 800606e:	e7f9      	b.n	8006064 <HAL_TIM_OC_ConfigChannel+0x34>
 8006070:	6800      	ldr	r0, [r0, #0]
 8006072:	f7ff fdb1 	bl	8005bd8 <TIM_OC3_SetConfig>
 8006076:	e7f5      	b.n	8006064 <HAL_TIM_OC_ConfigChannel+0x34>
 8006078:	2002      	movs	r0, #2
 800607a:	e7e9      	b.n	8006050 <HAL_TIM_OC_ConfigChannel+0x20>

0800607c <HAL_TIM_PWM_ConfigChannel>:
 800607c:	b570      	push	{r4, r5, r6, lr}
 800607e:	f890 303c 	ldrb.w	r3, [r0, #60]	; 0x3c
 8006082:	4605      	mov	r5, r0
 8006084:	2b01      	cmp	r3, #1
 8006086:	d050      	beq.n	800612a <HAL_TIM_PWM_ConfigChannel+0xae>
 8006088:	2301      	movs	r3, #1
 800608a:	2a08      	cmp	r2, #8
 800608c:	f880 303c 	strb.w	r3, [r0, #60]	; 0x3c
 8006090:	d03b      	beq.n	800610a <HAL_TIM_PWM_ConfigChannel+0x8e>
 8006092:	d807      	bhi.n	80060a4 <HAL_TIM_PWM_ConfigChannel+0x28>
 8006094:	b1c2      	cbz	r2, 80060c8 <HAL_TIM_PWM_ConfigChannel+0x4c>
 8006096:	2a04      	cmp	r2, #4
 8006098:	d027      	beq.n	80060ea <HAL_TIM_PWM_ConfigChannel+0x6e>
 800609a:	4618      	mov	r0, r3
 800609c:	2300      	movs	r3, #0
 800609e:	f885 303c 	strb.w	r3, [r5, #60]	; 0x3c
 80060a2:	bd70      	pop	{r4, r5, r6, pc}
 80060a4:	2a0c      	cmp	r2, #12
 80060a6:	d1f8      	bne.n	800609a <HAL_TIM_PWM_ConfigChannel+0x1e>
 80060a8:	6800      	ldr	r0, [r0, #0]
 80060aa:	f7ff fdbf 	bl	8005c2c <TIM_OC4_SetConfig>
 80060ae:	69c3      	ldr	r3, [r0, #28]
 80060b0:	690a      	ldr	r2, [r1, #16]
 80060b2:	f443 6300 	orr.w	r3, r3, #2048	; 0x800
 80060b6:	61c3      	str	r3, [r0, #28]
 80060b8:	69c3      	ldr	r3, [r0, #28]
 80060ba:	f423 6380 	bic.w	r3, r3, #1024	; 0x400
 80060be:	61c3      	str	r3, [r0, #28]
 80060c0:	69c3      	ldr	r3, [r0, #28]
 80060c2:	ea43 2302 	orr.w	r3, r3, r2, lsl #8
 80060c6:	e02e      	b.n	8006126 <HAL_TIM_PWM_ConfigChannel+0xaa>
 80060c8:	6800      	ldr	r0, [r0, #0]
 80060ca:	f7ff fd5d 	bl	8005b88 <TIM_OC1_SetConfig>
 80060ce:	6983      	ldr	r3, [r0, #24]
 80060d0:	690a      	ldr	r2, [r1, #16]
 80060d2:	f043 0308 	orr.w	r3, r3, #8
 80060d6:	6183      	str	r3, [r0, #24]
 80060d8:	6983      	ldr	r3, [r0, #24]
 80060da:	f023 0304 	bic.w	r3, r3, #4
 80060de:	6183      	str	r3, [r0, #24]
 80060e0:	6983      	ldr	r3, [r0, #24]
 80060e2:	4313      	orrs	r3, r2
 80060e4:	6183      	str	r3, [r0, #24]
 80060e6:	2000      	movs	r0, #0
 80060e8:	e7d8      	b.n	800609c <HAL_TIM_PWM_ConfigChannel+0x20>
 80060ea:	6800      	ldr	r0, [r0, #0]
 80060ec:	f7ff ff74 	bl	8005fd8 <TIM_OC2_SetConfig>
 80060f0:	6983      	ldr	r3, [r0, #24]
 80060f2:	690a      	ldr	r2, [r1, #16]
 80060f4:	f443 6300 	orr.w	r3, r3, #2048	; 0x800
 80060f8:	6183      	str	r3, [r0, #24]
 80060fa:	6983      	ldr	r3, [r0, #24]
 80060fc:	f423 6380 	bic.w	r3, r3, #1024	; 0x400
 8006100:	6183      	str	r3, [r0, #24]
 8006102:	6983      	ldr	r3, [r0, #24]
 8006104:	ea43 2302 	orr.w	r3, r3, r2, lsl #8
 8006108:	e7ec      	b.n	80060e4 <HAL_TIM_PWM_ConfigChannel+0x68>
 800610a:	6800      	ldr	r0, [r0, #0]
 800610c:	f7ff fd64 	bl	8005bd8 <TIM_OC3_SetConfig>
 8006110:	69c3      	ldr	r3, [r0, #28]
 8006112:	690a      	ldr	r2, [r1, #16]
 8006114:	f043 0308 	orr.w	r3, r3, #8
 8006118:	61c3      	str	r3, [r0, #28]
 800611a:	69c3      	ldr	r3, [r0, #28]
 800611c:	f023 0304 	bic.w	r3, r3, #4
 8006120:	61c3      	str	r3, [r0, #28]
 8006122:	69c3      	ldr	r3, [r0, #28]
 8006124:	4313      	orrs	r3, r2
 8006126:	61c3      	str	r3, [r0, #28]
 8006128:	e7dd      	b.n	80060e6 <HAL_TIM_PWM_ConfigChannel+0x6a>
 800612a:	2002      	movs	r0, #2
 800612c:	e7b9      	b.n	80060a2 <HAL_TIM_PWM_ConfigChannel+0x26>

0800612e <TIM_ETR_SetConfig>:
 800612e:	b510      	push	{r4, lr}
 8006130:	6884      	ldr	r4, [r0, #8]
 8006132:	430a      	orrs	r2, r1
 8006134:	f424 447f 	bic.w	r4, r4, #65280	; 0xff00
 8006138:	ea42 2203 	orr.w	r2, r2, r3, lsl #8
 800613c:	4322      	orrs	r2, r4
 800613e:	6082      	str	r2, [r0, #8]
 8006140:	bd10      	pop	{r4, pc}

08006142 <HAL_TIM_ConfigClockSource>:
 8006142:	b538      	push	{r3, r4, r5, lr}
 8006144:	f890 303c 	ldrb.w	r3, [r0, #60]	; 0x3c
 8006148:	4604      	mov	r4, r0
 800614a:	2b01      	cmp	r3, #1
 800614c:	f04f 0002 	mov.w	r0, #2
 8006150:	f000 808e 	beq.w	8006270 <HAL_TIM_ConfigClockSource+0x12e>
 8006154:	2201      	movs	r2, #1
 8006156:	f884 003d 	strb.w	r0, [r4, #61]	; 0x3d
 800615a:	6820      	ldr	r0, [r4, #0]
 800615c:	f884 203c 	strb.w	r2, [r4, #60]	; 0x3c
 8006160:	6883      	ldr	r3, [r0, #8]
 8006162:	f423 437f 	bic.w	r3, r3, #65280	; 0xff00
 8006166:	f023 0377 	bic.w	r3, r3, #119	; 0x77
 800616a:	6083      	str	r3, [r0, #8]
 800616c:	680b      	ldr	r3, [r1, #0]
 800616e:	2b60      	cmp	r3, #96	; 0x60
 8006170:	d04f      	beq.n	8006212 <HAL_TIM_ConfigClockSource+0xd0>
 8006172:	d832      	bhi.n	80061da <HAL_TIM_ConfigClockSource+0x98>
 8006174:	2b40      	cmp	r3, #64	; 0x40
 8006176:	d064      	beq.n	8006242 <HAL_TIM_ConfigClockSource+0x100>
 8006178:	d816      	bhi.n	80061a8 <HAL_TIM_ConfigClockSource+0x66>
 800617a:	2b20      	cmp	r3, #32
 800617c:	d00d      	beq.n	800619a <HAL_TIM_ConfigClockSource+0x58>
 800617e:	d80a      	bhi.n	8006196 <HAL_TIM_ConfigClockSource+0x54>
 8006180:	f033 0110 	bics.w	r1, r3, #16
 8006184:	d009      	beq.n	800619a <HAL_TIM_ConfigClockSource+0x58>
 8006186:	2301      	movs	r3, #1
 8006188:	f884 303d 	strb.w	r3, [r4, #61]	; 0x3d
 800618c:	2300      	movs	r3, #0
 800618e:	f884 303c 	strb.w	r3, [r4, #60]	; 0x3c
 8006192:	4610      	mov	r0, r2
 8006194:	bd38      	pop	{r3, r4, r5, pc}
 8006196:	2b30      	cmp	r3, #48	; 0x30
 8006198:	d1f5      	bne.n	8006186 <HAL_TIM_ConfigClockSource+0x44>
 800619a:	6882      	ldr	r2, [r0, #8]
 800619c:	f022 0270 	bic.w	r2, r2, #112	; 0x70
 80061a0:	4313      	orrs	r3, r2
 80061a2:	f043 0307 	orr.w	r3, r3, #7
 80061a6:	e028      	b.n	80061fa <HAL_TIM_ConfigClockSource+0xb8>
 80061a8:	2b50      	cmp	r3, #80	; 0x50
 80061aa:	d1ec      	bne.n	8006186 <HAL_TIM_ConfigClockSource+0x44>
 80061ac:	684a      	ldr	r2, [r1, #4]
 80061ae:	68cd      	ldr	r5, [r1, #12]
 80061b0:	6a01      	ldr	r1, [r0, #32]
 80061b2:	6a03      	ldr	r3, [r0, #32]
 80061b4:	f021 010a 	bic.w	r1, r1, #10
 80061b8:	f023 0301 	bic.w	r3, r3, #1
 80061bc:	6203      	str	r3, [r0, #32]
 80061be:	6983      	ldr	r3, [r0, #24]
 80061c0:	430a      	orrs	r2, r1
 80061c2:	f023 03f0 	bic.w	r3, r3, #240	; 0xf0
 80061c6:	ea43 1305 	orr.w	r3, r3, r5, lsl #4
 80061ca:	6183      	str	r3, [r0, #24]
 80061cc:	6202      	str	r2, [r0, #32]
 80061ce:	6883      	ldr	r3, [r0, #8]
 80061d0:	f023 0370 	bic.w	r3, r3, #112	; 0x70
 80061d4:	f043 0357 	orr.w	r3, r3, #87	; 0x57
 80061d8:	e00f      	b.n	80061fa <HAL_TIM_ConfigClockSource+0xb8>
 80061da:	f5b3 5f80 	cmp.w	r3, #4096	; 0x1000
 80061de:	d00d      	beq.n	80061fc <HAL_TIM_ConfigClockSource+0xba>
 80061e0:	f5b3 5f00 	cmp.w	r3, #8192	; 0x2000
 80061e4:	d00c      	beq.n	8006200 <HAL_TIM_ConfigClockSource+0xbe>
 80061e6:	2b70      	cmp	r3, #112	; 0x70
 80061e8:	d1cd      	bne.n	8006186 <HAL_TIM_ConfigClockSource+0x44>
 80061ea:	68cb      	ldr	r3, [r1, #12]
 80061ec:	e9d1 2101 	ldrd	r2, r1, [r1, #4]
 80061f0:	f7ff ff9d 	bl	800612e <TIM_ETR_SetConfig>
 80061f4:	6883      	ldr	r3, [r0, #8]
 80061f6:	f043 0377 	orr.w	r3, r3, #119	; 0x77
 80061fa:	6083      	str	r3, [r0, #8]
 80061fc:	2200      	movs	r2, #0
 80061fe:	e7c2      	b.n	8006186 <HAL_TIM_ConfigClockSource+0x44>
 8006200:	68cb      	ldr	r3, [r1, #12]
 8006202:	e9d1 2101 	ldrd	r2, r1, [r1, #4]
 8006206:	f7ff ff92 	bl	800612e <TIM_ETR_SetConfig>
 800620a:	6883      	ldr	r3, [r0, #8]
 800620c:	f443 4380 	orr.w	r3, r3, #16384	; 0x4000
 8006210:	e7f3      	b.n	80061fa <HAL_TIM_ConfigClockSource+0xb8>
 8006212:	6a03      	ldr	r3, [r0, #32]
 8006214:	6a02      	ldr	r2, [r0, #32]
 8006216:	684d      	ldr	r5, [r1, #4]
 8006218:	f022 0210 	bic.w	r2, r2, #16
 800621c:	68c9      	ldr	r1, [r1, #12]
 800621e:	6202      	str	r2, [r0, #32]
 8006220:	6982      	ldr	r2, [r0, #24]
 8006222:	f023 03a0 	bic.w	r3, r3, #160	; 0xa0
 8006226:	f422 4270 	bic.w	r2, r2, #61440	; 0xf000
 800622a:	ea43 1305 	orr.w	r3, r3, r5, lsl #4
 800622e:	ea42 3201 	orr.w	r2, r2, r1, lsl #12
 8006232:	6182      	str	r2, [r0, #24]
 8006234:	6203      	str	r3, [r0, #32]
 8006236:	6883      	ldr	r3, [r0, #8]
 8006238:	f023 0370 	bic.w	r3, r3, #112	; 0x70
 800623c:	f043 0367 	orr.w	r3, r3, #103	; 0x67
 8006240:	e7db      	b.n	80061fa <HAL_TIM_ConfigClockSource+0xb8>
 8006242:	684a      	ldr	r2, [r1, #4]
 8006244:	68cd      	ldr	r5, [r1, #12]
 8006246:	6a01      	ldr	r1, [r0, #32]
 8006248:	6a03      	ldr	r3, [r0, #32]
 800624a:	f021 010a 	bic.w	r1, r1, #10
 800624e:	f023 0301 	bic.w	r3, r3, #1
 8006252:	6203      	str	r3, [r0, #32]
 8006254:	6983      	ldr	r3, [r0, #24]
 8006256:	430a      	orrs	r2, r1
 8006258:	f023 03f0 	bic.w	r3, r3, #240	; 0xf0
 800625c:	ea43 1305 	orr.w	r3, r3, r5, lsl #4
 8006260:	6183      	str	r3, [r0, #24]
 8006262:	6202      	str	r2, [r0, #32]
 8006264:	6883      	ldr	r3, [r0, #8]
 8006266:	f023 0370 	bic.w	r3, r3, #112	; 0x70
 800626a:	f043 0347 	orr.w	r3, r3, #71	; 0x47
 800626e:	e7c4      	b.n	80061fa <HAL_TIM_ConfigClockSource+0xb8>
 8006270:	4602      	mov	r2, r0
 8006272:	e78e      	b.n	8006192 <HAL_TIM_ConfigClockSource+0x50>

08006274 <TIM_CCxChannelCmd>:
 8006274:	b510      	push	{r4, lr}
 8006276:	2401      	movs	r4, #1
 8006278:	6a03      	ldr	r3, [r0, #32]
 800627a:	f001 011f 	and.w	r1, r1, #31
 800627e:	408c      	lsls	r4, r1
 8006280:	ea23 0304 	bic.w	r3, r3, r4
 8006284:	6203      	str	r3, [r0, #32]
 8006286:	6a03      	ldr	r3, [r0, #32]
 8006288:	408a      	lsls	r2, r1
 800628a:	431a      	orrs	r2, r3
 800628c:	6202      	str	r2, [r0, #32]
 800628e:	bd10      	pop	{r4, pc}

08006290 <HAL_TIM_OC_Start>:
 8006290:	b508      	push	{r3, lr}
 8006292:	b929      	cbnz	r1, 80062a0 <HAL_TIM_OC_Start+0x10>
 8006294:	f890 303e 	ldrb.w	r3, [r0, #62]	; 0x3e
 8006298:	2b01      	cmp	r3, #1
 800629a:	d021      	beq.n	80062e0 <HAL_TIM_OC_Start+0x50>
 800629c:	2001      	movs	r0, #1
 800629e:	bd08      	pop	{r3, pc}
 80062a0:	2904      	cmp	r1, #4
 80062a2:	d107      	bne.n	80062b4 <HAL_TIM_OC_Start+0x24>
 80062a4:	f890 303f 	ldrb.w	r3, [r0, #63]	; 0x3f
 80062a8:	2b01      	cmp	r3, #1
 80062aa:	d1f7      	bne.n	800629c <HAL_TIM_OC_Start+0xc>
 80062ac:	2302      	movs	r3, #2
 80062ae:	f880 303f 	strb.w	r3, [r0, #63]	; 0x3f
 80062b2:	e018      	b.n	80062e6 <HAL_TIM_OC_Start+0x56>
 80062b4:	2908      	cmp	r1, #8
 80062b6:	d107      	bne.n	80062c8 <HAL_TIM_OC_Start+0x38>
 80062b8:	f890 3040 	ldrb.w	r3, [r0, #64]	; 0x40
 80062bc:	2b01      	cmp	r3, #1
 80062be:	d1ed      	bne.n	800629c <HAL_TIM_OC_Start+0xc>
 80062c0:	2302      	movs	r3, #2
 80062c2:	f880 3040 	strb.w	r3, [r0, #64]	; 0x40
 80062c6:	e00e      	b.n	80062e6 <HAL_TIM_OC_Start+0x56>
 80062c8:	f890 3041 	ldrb.w	r3, [r0, #65]	; 0x41
 80062cc:	2b01      	cmp	r3, #1
 80062ce:	d1e5      	bne.n	800629c <HAL_TIM_OC_Start+0xc>
 80062d0:	2904      	cmp	r1, #4
 80062d2:	d0eb      	beq.n	80062ac <HAL_TIM_OC_Start+0x1c>
 80062d4:	2908      	cmp	r1, #8
 80062d6:	d0f3      	beq.n	80062c0 <HAL_TIM_OC_Start+0x30>
 80062d8:	2302      	movs	r3, #2
 80062da:	f880 3041 	strb.w	r3, [r0, #65]	; 0x41
 80062de:	e002      	b.n	80062e6 <HAL_TIM_OC_Start+0x56>
 80062e0:	2302      	movs	r3, #2
 80062e2:	f880 303e 	strb.w	r3, [r0, #62]	; 0x3e
 80062e6:	6800      	ldr	r0, [r0, #0]
 80062e8:	2201      	movs	r2, #1
 80062ea:	f7ff ffc3 	bl	8006274 <TIM_CCxChannelCmd>
 80062ee:	4b0e      	ldr	r3, [pc, #56]	; (8006328 <HAL_TIM_OC_Start+0x98>)
 80062f0:	4298      	cmp	r0, r3
 80062f2:	d10a      	bne.n	800630a <HAL_TIM_OC_Start+0x7a>
 80062f4:	6c43      	ldr	r3, [r0, #68]	; 0x44
 80062f6:	f443 4300 	orr.w	r3, r3, #32768	; 0x8000
 80062fa:	6443      	str	r3, [r0, #68]	; 0x44
 80062fc:	6883      	ldr	r3, [r0, #8]
 80062fe:	f003 0307 	and.w	r3, r3, #7
 8006302:	2b06      	cmp	r3, #6
 8006304:	d10b      	bne.n	800631e <HAL_TIM_OC_Start+0x8e>
 8006306:	2000      	movs	r0, #0
 8006308:	e7c9      	b.n	800629e <HAL_TIM_OC_Start+0xe>
 800630a:	f1b0 4f80 	cmp.w	r0, #1073741824	; 0x40000000
 800630e:	d0f5      	beq.n	80062fc <HAL_TIM_OC_Start+0x6c>
 8006310:	4b06      	ldr	r3, [pc, #24]	; (800632c <HAL_TIM_OC_Start+0x9c>)
 8006312:	4298      	cmp	r0, r3
 8006314:	d0f2      	beq.n	80062fc <HAL_TIM_OC_Start+0x6c>
 8006316:	f503 6380 	add.w	r3, r3, #1024	; 0x400
 800631a:	4298      	cmp	r0, r3
 800631c:	d0ee      	beq.n	80062fc <HAL_TIM_OC_Start+0x6c>
 800631e:	6803      	ldr	r3, [r0, #0]
 8006320:	f043 0301 	orr.w	r3, r3, #1
 8006324:	6003      	str	r3, [r0, #0]
 8006326:	e7ee      	b.n	8006306 <HAL_TIM_OC_Start+0x76>
 8006328:	40012c00 	.word	0x40012c00
 800632c:	40000400 	.word	0x40000400

08006330 <HAL_TIM_PWM_Start>:
 8006330:	f7ff bfae 	b.w	8006290 <HAL_TIM_OC_Start>

08006334 <HAL_TIMEx_MasterConfigSynchronization>:
 8006334:	b530      	push	{r4, r5, lr}
 8006336:	f890 303c 	ldrb.w	r3, [r0, #60]	; 0x3c
 800633a:	4602      	mov	r2, r0
 800633c:	2b01      	cmp	r3, #1
 800633e:	f04f 0002 	mov.w	r0, #2
 8006342:	d022      	beq.n	800638a <HAL_TIMEx_MasterConfigSynchronization+0x56>
 8006344:	6813      	ldr	r3, [r2, #0]
 8006346:	f882 003d 	strb.w	r0, [r2, #61]	; 0x3d
 800634a:	685c      	ldr	r4, [r3, #4]
 800634c:	680d      	ldr	r5, [r1, #0]
 800634e:	f024 0470 	bic.w	r4, r4, #112	; 0x70
 8006352:	432c      	orrs	r4, r5
 8006354:	6898      	ldr	r0, [r3, #8]
 8006356:	605c      	str	r4, [r3, #4]
 8006358:	4c0c      	ldr	r4, [pc, #48]	; (800638c <HAL_TIMEx_MasterConfigSynchronization+0x58>)
 800635a:	42a3      	cmp	r3, r4
 800635c:	d00a      	beq.n	8006374 <HAL_TIMEx_MasterConfigSynchronization+0x40>
 800635e:	f1b3 4f80 	cmp.w	r3, #1073741824	; 0x40000000
 8006362:	d007      	beq.n	8006374 <HAL_TIMEx_MasterConfigSynchronization+0x40>
 8006364:	f5a4 3494 	sub.w	r4, r4, #75776	; 0x12800
 8006368:	42a3      	cmp	r3, r4
 800636a:	d003      	beq.n	8006374 <HAL_TIMEx_MasterConfigSynchronization+0x40>
 800636c:	f504 6480 	add.w	r4, r4, #1024	; 0x400
 8006370:	42a3      	cmp	r3, r4
 8006372:	d104      	bne.n	800637e <HAL_TIMEx_MasterConfigSynchronization+0x4a>
 8006374:	6849      	ldr	r1, [r1, #4]
 8006376:	f020 0080 	bic.w	r0, r0, #128	; 0x80
 800637a:	4301      	orrs	r1, r0
 800637c:	6099      	str	r1, [r3, #8]
 800637e:	2301      	movs	r3, #1
 8006380:	2000      	movs	r0, #0
 8006382:	f882 303d 	strb.w	r3, [r2, #61]	; 0x3d
 8006386:	f882 003c 	strb.w	r0, [r2, #60]	; 0x3c
 800638a:	bd30      	pop	{r4, r5, pc}
 800638c:	40012c00 	.word	0x40012c00

08006390 <HAL_TIMEx_CommutCallback>:
 8006390:	4770      	bx	lr

08006392 <HAL_TIMEx_BreakCallback>:
 8006392:	4770      	bx	lr

08006394 <UART_EndRxTransfer>:
 8006394:	6802      	ldr	r2, [r0, #0]
 8006396:	f102 030c 	add.w	r3, r2, #12
 800639a:	e853 3f00 	ldrex	r3, [r3]
 800639e:	f423 7390 	bic.w	r3, r3, #288	; 0x120
 80063a2:	320c      	adds	r2, #12
 80063a4:	e842 3100 	strex	r1, r3, [r2]
 80063a8:	6802      	ldr	r2, [r0, #0]
 80063aa:	2900      	cmp	r1, #0
 80063ac:	d1f2      	bne.n	8006394 <UART_EndRxTransfer>
 80063ae:	f102 0314 	add.w	r3, r2, #20
 80063b2:	e853 3f00 	ldrex	r3, [r3]
 80063b6:	f023 0301 	bic.w	r3, r3, #1
 80063ba:	f102 0c14 	add.w	ip, r2, #20
 80063be:	e84c 3100 	strex	r1, r3, [ip]
 80063c2:	2900      	cmp	r1, #0
 80063c4:	d1f3      	bne.n	80063ae <UART_EndRxTransfer+0x1a>
 80063c6:	6b03      	ldr	r3, [r0, #48]	; 0x30
 80063c8:	2b01      	cmp	r3, #1
 80063ca:	d10b      	bne.n	80063e4 <UART_EndRxTransfer+0x50>
 80063cc:	f102 030c 	add.w	r3, r2, #12
 80063d0:	e853 3f00 	ldrex	r3, [r3]
 80063d4:	f023 0310 	bic.w	r3, r3, #16
 80063d8:	f102 0c0c 	add.w	ip, r2, #12
 80063dc:	e84c 3100 	strex	r1, r3, [ip]
 80063e0:	2900      	cmp	r1, #0
 80063e2:	d1f3      	bne.n	80063cc <UART_EndRxTransfer+0x38>
 80063e4:	2320      	movs	r3, #32
 80063e6:	f880 3042 	strb.w	r3, [r0, #66]	; 0x42
 80063ea:	2300      	movs	r3, #0
 80063ec:	6303      	str	r3, [r0, #48]	; 0x30
 80063ee:	4770      	bx	lr

080063f0 <UART_SetConfig>:
 80063f0:	b510      	push	{r4, lr}
 80063f2:	4604      	mov	r4, r0
 80063f4:	6803      	ldr	r3, [r0, #0]
 80063f6:	68c1      	ldr	r1, [r0, #12]
 80063f8:	691a      	ldr	r2, [r3, #16]
 80063fa:	f422 5240 	bic.w	r2, r2, #12288	; 0x3000
 80063fe:	430a      	orrs	r2, r1
 8006400:	611a      	str	r2, [r3, #16]
 8006402:	6882      	ldr	r2, [r0, #8]
 8006404:	6900      	ldr	r0, [r0, #16]
 8006406:	68d9      	ldr	r1, [r3, #12]
 8006408:	4302      	orrs	r2, r0
 800640a:	6960      	ldr	r0, [r4, #20]
 800640c:	f421 51b0 	bic.w	r1, r1, #5632	; 0x1600
 8006410:	f021 010c 	bic.w	r1, r1, #12
 8006414:	4302      	orrs	r2, r0
 8006416:	430a      	orrs	r2, r1
 8006418:	60da      	str	r2, [r3, #12]
 800641a:	695a      	ldr	r2, [r3, #20]
 800641c:	69a1      	ldr	r1, [r4, #24]
 800641e:	f422 7240 	bic.w	r2, r2, #768	; 0x300
 8006422:	430a      	orrs	r2, r1
 8006424:	615a      	str	r2, [r3, #20]
 8006426:	4a0e      	ldr	r2, [pc, #56]	; (8006460 <UART_SetConfig+0x70>)
 8006428:	4293      	cmp	r3, r2
 800642a:	d115      	bne.n	8006458 <UART_SetConfig+0x68>
 800642c:	f7ff f936 	bl	800569c <HAL_RCC_GetPCLK2Freq>
 8006430:	2319      	movs	r3, #25
 8006432:	4343      	muls	r3, r0
 8006434:	6862      	ldr	r2, [r4, #4]
 8006436:	6820      	ldr	r0, [r4, #0]
 8006438:	0092      	lsls	r2, r2, #2
 800643a:	fbb3 f3f2 	udiv	r3, r3, r2
 800643e:	2264      	movs	r2, #100	; 0x64
 8006440:	fbb3 f1f2 	udiv	r1, r3, r2
 8006444:	fb02 3311 	mls	r3, r2, r1, r3
 8006448:	011b      	lsls	r3, r3, #4
 800644a:	3332      	adds	r3, #50	; 0x32
 800644c:	fbb3 f3f2 	udiv	r3, r3, r2
 8006450:	eb03 1301 	add.w	r3, r3, r1, lsl #4
 8006454:	6083      	str	r3, [r0, #8]
 8006456:	bd10      	pop	{r4, pc}
 8006458:	f7ff f910 	bl	800567c <HAL_RCC_GetPCLK1Freq>
 800645c:	e7e8      	b.n	8006430 <UART_SetConfig+0x40>
 800645e:	bf00      	nop
 8006460:	40013800 	.word	0x40013800

08006464 <UART_WaitOnFlagUntilTimeout.constprop.0>:
 8006464:	b5f8      	push	{r3, r4, r5, r6, r7, lr}
 8006466:	4604      	mov	r4, r0
 8006468:	460e      	mov	r6, r1
 800646a:	4617      	mov	r7, r2
 800646c:	461d      	mov	r5, r3
 800646e:	6822      	ldr	r2, [r4, #0]
 8006470:	6813      	ldr	r3, [r2, #0]
 8006472:	ea36 0303 	bics.w	r3, r6, r3
 8006476:	d101      	bne.n	800647c <UART_WaitOnFlagUntilTimeout.constprop.0+0x18>
 8006478:	2000      	movs	r0, #0
 800647a:	e028      	b.n	80064ce <UART_WaitOnFlagUntilTimeout.constprop.0+0x6a>
 800647c:	1c6b      	adds	r3, r5, #1
 800647e:	d0f7      	beq.n	8006470 <UART_WaitOnFlagUntilTimeout.constprop.0+0xc>
 8006480:	b125      	cbz	r5, 800648c <UART_WaitOnFlagUntilTimeout.constprop.0+0x28>
 8006482:	f7fc ff7f 	bl	8003384 <HAL_GetTick>
 8006486:	1bc0      	subs	r0, r0, r7
 8006488:	4285      	cmp	r5, r0
 800648a:	d2f0      	bcs.n	800646e <UART_WaitOnFlagUntilTimeout.constprop.0+0xa>
 800648c:	6822      	ldr	r2, [r4, #0]
 800648e:	f102 030c 	add.w	r3, r2, #12
 8006492:	e853 3f00 	ldrex	r3, [r3]
 8006496:	f423 73d0 	bic.w	r3, r3, #416	; 0x1a0
 800649a:	320c      	adds	r2, #12
 800649c:	e842 3000 	strex	r0, r3, [r2]
 80064a0:	6821      	ldr	r1, [r4, #0]
 80064a2:	2800      	cmp	r0, #0
 80064a4:	d1f2      	bne.n	800648c <UART_WaitOnFlagUntilTimeout.constprop.0+0x28>
 80064a6:	f101 0314 	add.w	r3, r1, #20
 80064aa:	e853 3f00 	ldrex	r3, [r3]
 80064ae:	f023 0301 	bic.w	r3, r3, #1
 80064b2:	f101 0014 	add.w	r0, r1, #20
 80064b6:	e840 3200 	strex	r2, r3, [r0]
 80064ba:	2a00      	cmp	r2, #0
 80064bc:	d1f3      	bne.n	80064a6 <UART_WaitOnFlagUntilTimeout.constprop.0+0x42>
 80064be:	2320      	movs	r3, #32
 80064c0:	2003      	movs	r0, #3
 80064c2:	f884 3041 	strb.w	r3, [r4, #65]	; 0x41
 80064c6:	f884 2040 	strb.w	r2, [r4, #64]	; 0x40
 80064ca:	f884 3042 	strb.w	r3, [r4, #66]	; 0x42
 80064ce:	bdf8      	pop	{r3, r4, r5, r6, r7, pc}

080064d0 <HAL_UART_Init>:
 80064d0:	b510      	push	{r4, lr}
 80064d2:	4604      	mov	r4, r0
 80064d4:	b348      	cbz	r0, 800652a <HAL_UART_Init+0x5a>
 80064d6:	f890 3041 	ldrb.w	r3, [r0, #65]	; 0x41
 80064da:	f003 02ff 	and.w	r2, r3, #255	; 0xff
 80064de:	b91b      	cbnz	r3, 80064e8 <HAL_UART_Init+0x18>
 80064e0:	f880 2040 	strb.w	r2, [r0, #64]	; 0x40
 80064e4:	f7fc fdba 	bl	800305c <HAL_UART_MspInit>
 80064e8:	2324      	movs	r3, #36	; 0x24
 80064ea:	6822      	ldr	r2, [r4, #0]
 80064ec:	f884 3041 	strb.w	r3, [r4, #65]	; 0x41
 80064f0:	68d3      	ldr	r3, [r2, #12]
 80064f2:	4620      	mov	r0, r4
 80064f4:	f423 5300 	bic.w	r3, r3, #8192	; 0x2000
 80064f8:	60d3      	str	r3, [r2, #12]
 80064fa:	f7ff ff79 	bl	80063f0 <UART_SetConfig>
 80064fe:	6823      	ldr	r3, [r4, #0]
 8006500:	2000      	movs	r0, #0
 8006502:	691a      	ldr	r2, [r3, #16]
 8006504:	f422 4290 	bic.w	r2, r2, #18432	; 0x4800
 8006508:	611a      	str	r2, [r3, #16]
 800650a:	695a      	ldr	r2, [r3, #20]
 800650c:	f022 022a 	bic.w	r2, r2, #42	; 0x2a
 8006510:	615a      	str	r2, [r3, #20]
 8006512:	68da      	ldr	r2, [r3, #12]
 8006514:	f442 5200 	orr.w	r2, r2, #8192	; 0x2000
 8006518:	60da      	str	r2, [r3, #12]
 800651a:	2320      	movs	r3, #32
 800651c:	6460      	str	r0, [r4, #68]	; 0x44
 800651e:	f884 3041 	strb.w	r3, [r4, #65]	; 0x41
 8006522:	f884 3042 	strb.w	r3, [r4, #66]	; 0x42
 8006526:	6360      	str	r0, [r4, #52]	; 0x34
 8006528:	bd10      	pop	{r4, pc}
 800652a:	2001      	movs	r0, #1
 800652c:	e7fc      	b.n	8006528 <HAL_UART_Init+0x58>

0800652e <HAL_UART_Transmit>:
 800652e:	e92d 43f8 	stmdb	sp!, {r3, r4, r5, r6, r7, r8, r9, lr}
 8006532:	4699      	mov	r9, r3
 8006534:	f890 3041 	ldrb.w	r3, [r0, #65]	; 0x41
 8006538:	4604      	mov	r4, r0
 800653a:	2b20      	cmp	r3, #32
 800653c:	460e      	mov	r6, r1
 800653e:	4617      	mov	r7, r2
 8006540:	d13c      	bne.n	80065bc <HAL_UART_Transmit+0x8e>
 8006542:	2900      	cmp	r1, #0
 8006544:	d03c      	beq.n	80065c0 <HAL_UART_Transmit+0x92>
 8006546:	2a00      	cmp	r2, #0
 8006548:	d03a      	beq.n	80065c0 <HAL_UART_Transmit+0x92>
 800654a:	2321      	movs	r3, #33	; 0x21
 800654c:	2500      	movs	r5, #0
 800654e:	6445      	str	r5, [r0, #68]	; 0x44
 8006550:	f880 3041 	strb.w	r3, [r0, #65]	; 0x41
 8006554:	f7fc ff16 	bl	8003384 <HAL_GetTick>
 8006558:	68a3      	ldr	r3, [r4, #8]
 800655a:	4680      	mov	r8, r0
 800655c:	f5b3 5f80 	cmp.w	r3, #4096	; 0x1000
 8006560:	84a7      	strh	r7, [r4, #36]	; 0x24
 8006562:	84e7      	strh	r7, [r4, #38]	; 0x26
 8006564:	d103      	bne.n	800656e <HAL_UART_Transmit+0x40>
 8006566:	6923      	ldr	r3, [r4, #16]
 8006568:	b90b      	cbnz	r3, 800656e <HAL_UART_Transmit+0x40>
 800656a:	4635      	mov	r5, r6
 800656c:	461e      	mov	r6, r3
 800656e:	8ce3      	ldrh	r3, [r4, #38]	; 0x26
 8006570:	b29b      	uxth	r3, r3
 8006572:	b953      	cbnz	r3, 800658a <HAL_UART_Transmit+0x5c>
 8006574:	464b      	mov	r3, r9
 8006576:	4642      	mov	r2, r8
 8006578:	2140      	movs	r1, #64	; 0x40
 800657a:	4620      	mov	r0, r4
 800657c:	f7ff ff72 	bl	8006464 <UART_WaitOnFlagUntilTimeout.constprop.0>
 8006580:	b950      	cbnz	r0, 8006598 <HAL_UART_Transmit+0x6a>
 8006582:	2320      	movs	r3, #32
 8006584:	f884 3041 	strb.w	r3, [r4, #65]	; 0x41
 8006588:	e007      	b.n	800659a <HAL_UART_Transmit+0x6c>
 800658a:	464b      	mov	r3, r9
 800658c:	4642      	mov	r2, r8
 800658e:	2180      	movs	r1, #128	; 0x80
 8006590:	4620      	mov	r0, r4
 8006592:	f7ff ff67 	bl	8006464 <UART_WaitOnFlagUntilTimeout.constprop.0>
 8006596:	b110      	cbz	r0, 800659e <HAL_UART_Transmit+0x70>
 8006598:	2003      	movs	r0, #3
 800659a:	e8bd 83f8 	ldmia.w	sp!, {r3, r4, r5, r6, r7, r8, r9, pc}
 800659e:	6822      	ldr	r2, [r4, #0]
 80065a0:	b94e      	cbnz	r6, 80065b6 <HAL_UART_Transmit+0x88>
 80065a2:	f835 3b02 	ldrh.w	r3, [r5], #2
 80065a6:	f3c3 0308 	ubfx	r3, r3, #0, #9
 80065aa:	6053      	str	r3, [r2, #4]
 80065ac:	8ce1      	ldrh	r1, [r4, #38]	; 0x26
 80065ae:	3901      	subs	r1, #1
 80065b0:	b289      	uxth	r1, r1
 80065b2:	84e1      	strh	r1, [r4, #38]	; 0x26
 80065b4:	e7db      	b.n	800656e <HAL_UART_Transmit+0x40>
 80065b6:	f816 3b01 	ldrb.w	r3, [r6], #1
 80065ba:	e7f6      	b.n	80065aa <HAL_UART_Transmit+0x7c>
 80065bc:	2002      	movs	r0, #2
 80065be:	e7ec      	b.n	800659a <HAL_UART_Transmit+0x6c>
 80065c0:	2001      	movs	r0, #1
 80065c2:	e7ea      	b.n	800659a <HAL_UART_Transmit+0x6c>

080065c4 <HAL_UART_TxCpltCallback>:
 80065c4:	4770      	bx	lr

080065c6 <HAL_UART_RxCpltCallback>:
 80065c6:	4770      	bx	lr

080065c8 <HAL_UART_ErrorCallback>:
 80065c8:	4770      	bx	lr

080065ca <UART_DMAAbortOnError>:
 80065ca:	b508      	push	{r3, lr}
 80065cc:	2300      	movs	r3, #0
 80065ce:	6a40      	ldr	r0, [r0, #36]	; 0x24
 80065d0:	85c3      	strh	r3, [r0, #46]	; 0x2e
 80065d2:	84c3      	strh	r3, [r0, #38]	; 0x26
 80065d4:	f7ff fff8 	bl	80065c8 <HAL_UART_ErrorCallback>
 80065d8:	bd08      	pop	{r3, pc}

080065da <HAL_UARTEx_RxEventCallback>:
 80065da:	4770      	bx	lr

080065dc <UART_Receive_IT.isra.0>:
 80065dc:	f890 3042 	ldrb.w	r3, [r0, #66]	; 0x42
 80065e0:	b507      	push	{r0, r1, r2, lr}
 80065e2:	2b22      	cmp	r3, #34	; 0x22
 80065e4:	d142      	bne.n	800666c <UART_Receive_IT.isra.0+0x90>
 80065e6:	6881      	ldr	r1, [r0, #8]
 80065e8:	6a83      	ldr	r3, [r0, #40]	; 0x28
 80065ea:	f5b1 5f80 	cmp.w	r1, #4096	; 0x1000
 80065ee:	6802      	ldr	r2, [r0, #0]
 80065f0:	d13f      	bne.n	8006672 <UART_Receive_IT.isra.0+0x96>
 80065f2:	6901      	ldr	r1, [r0, #16]
 80065f4:	2900      	cmp	r1, #0
 80065f6:	d13f      	bne.n	8006678 <UART_Receive_IT.isra.0+0x9c>
 80065f8:	6852      	ldr	r2, [r2, #4]
 80065fa:	f3c2 0208 	ubfx	r2, r2, #0, #9
 80065fe:	f823 2b02 	strh.w	r2, [r3], #2
 8006602:	6283      	str	r3, [r0, #40]	; 0x28
 8006604:	8dc3      	ldrh	r3, [r0, #46]	; 0x2e
 8006606:	3b01      	subs	r3, #1
 8006608:	b29b      	uxth	r3, r3
 800660a:	85c3      	strh	r3, [r0, #46]	; 0x2e
 800660c:	2b00      	cmp	r3, #0
 800660e:	d12d      	bne.n	800666c <UART_Receive_IT.isra.0+0x90>
 8006610:	6802      	ldr	r2, [r0, #0]
 8006612:	68d1      	ldr	r1, [r2, #12]
 8006614:	f021 0120 	bic.w	r1, r1, #32
 8006618:	60d1      	str	r1, [r2, #12]
 800661a:	68d1      	ldr	r1, [r2, #12]
 800661c:	f421 7180 	bic.w	r1, r1, #256	; 0x100
 8006620:	60d1      	str	r1, [r2, #12]
 8006622:	6951      	ldr	r1, [r2, #20]
 8006624:	f021 0101 	bic.w	r1, r1, #1
 8006628:	6151      	str	r1, [r2, #20]
 800662a:	2220      	movs	r2, #32
 800662c:	f880 2042 	strb.w	r2, [r0, #66]	; 0x42
 8006630:	6343      	str	r3, [r0, #52]	; 0x34
 8006632:	6b02      	ldr	r2, [r0, #48]	; 0x30
 8006634:	2a01      	cmp	r2, #1
 8006636:	6802      	ldr	r2, [r0, #0]
 8006638:	d128      	bne.n	800668c <UART_Receive_IT.isra.0+0xb0>
 800663a:	6303      	str	r3, [r0, #48]	; 0x30
 800663c:	f102 030c 	add.w	r3, r2, #12
 8006640:	e853 3f00 	ldrex	r3, [r3]
 8006644:	f023 0310 	bic.w	r3, r3, #16
 8006648:	f102 0c0c 	add.w	ip, r2, #12
 800664c:	e84c 3100 	strex	r1, r3, [ip]
 8006650:	2900      	cmp	r1, #0
 8006652:	d1f3      	bne.n	800663c <UART_Receive_IT.isra.0+0x60>
 8006654:	6813      	ldr	r3, [r2, #0]
 8006656:	06db      	lsls	r3, r3, #27
 8006658:	d505      	bpl.n	8006666 <UART_Receive_IT.isra.0+0x8a>
 800665a:	9101      	str	r1, [sp, #4]
 800665c:	6813      	ldr	r3, [r2, #0]
 800665e:	9301      	str	r3, [sp, #4]
 8006660:	6853      	ldr	r3, [r2, #4]
 8006662:	9301      	str	r3, [sp, #4]
 8006664:	9b01      	ldr	r3, [sp, #4]
 8006666:	8d81      	ldrh	r1, [r0, #44]	; 0x2c
 8006668:	f7ff ffb7 	bl	80065da <HAL_UARTEx_RxEventCallback>
 800666c:	b003      	add	sp, #12
 800666e:	f85d fb04 	ldr.w	pc, [sp], #4
 8006672:	b939      	cbnz	r1, 8006684 <UART_Receive_IT.isra.0+0xa8>
 8006674:	6901      	ldr	r1, [r0, #16]
 8006676:	b929      	cbnz	r1, 8006684 <UART_Receive_IT.isra.0+0xa8>
 8006678:	6852      	ldr	r2, [r2, #4]
 800667a:	b2d2      	uxtb	r2, r2
 800667c:	701a      	strb	r2, [r3, #0]
 800667e:	6a83      	ldr	r3, [r0, #40]	; 0x28
 8006680:	3301      	adds	r3, #1
 8006682:	e7be      	b.n	8006602 <UART_Receive_IT.isra.0+0x26>
 8006684:	6852      	ldr	r2, [r2, #4]
 8006686:	f002 027f 	and.w	r2, r2, #127	; 0x7f
 800668a:	e7f7      	b.n	800667c <UART_Receive_IT.isra.0+0xa0>
 800668c:	f7ff ff9b 	bl	80065c6 <HAL_UART_RxCpltCallback>
 8006690:	e7ec      	b.n	800666c <UART_Receive_IT.isra.0+0x90>
	...

08006694 <HAL_UART_IRQHandler>:
 8006694:	6803      	ldr	r3, [r0, #0]
 8006696:	b573      	push	{r0, r1, r4, r5, r6, lr}
 8006698:	681a      	ldr	r2, [r3, #0]
 800669a:	4604      	mov	r4, r0
 800669c:	0716      	lsls	r6, r2, #28
 800669e:	68d9      	ldr	r1, [r3, #12]
 80066a0:	695d      	ldr	r5, [r3, #20]
 80066a2:	d108      	bne.n	80066b6 <HAL_UART_IRQHandler+0x22>
 80066a4:	0696      	lsls	r6, r2, #26
 80066a6:	d568      	bpl.n	800677a <HAL_UART_IRQHandler+0xe6>
 80066a8:	068d      	lsls	r5, r1, #26
 80066aa:	d566      	bpl.n	800677a <HAL_UART_IRQHandler+0xe6>
 80066ac:	b002      	add	sp, #8
 80066ae:	e8bd 4070 	ldmia.w	sp!, {r4, r5, r6, lr}
 80066b2:	f7ff bf93 	b.w	80065dc <UART_Receive_IT.isra.0>
 80066b6:	f005 0001 	and.w	r0, r5, #1
 80066ba:	f401 7590 	and.w	r5, r1, #288	; 0x120
 80066be:	4305      	orrs	r5, r0
 80066c0:	d05b      	beq.n	800677a <HAL_UART_IRQHandler+0xe6>
 80066c2:	07d6      	lsls	r6, r2, #31
 80066c4:	d505      	bpl.n	80066d2 <HAL_UART_IRQHandler+0x3e>
 80066c6:	05cd      	lsls	r5, r1, #23
 80066c8:	bf42      	ittt	mi
 80066ca:	6c63      	ldrmi	r3, [r4, #68]	; 0x44
 80066cc:	f043 0301 	orrmi.w	r3, r3, #1
 80066d0:	6463      	strmi	r3, [r4, #68]	; 0x44
 80066d2:	0753      	lsls	r3, r2, #29
 80066d4:	d504      	bpl.n	80066e0 <HAL_UART_IRQHandler+0x4c>
 80066d6:	b118      	cbz	r0, 80066e0 <HAL_UART_IRQHandler+0x4c>
 80066d8:	6c63      	ldr	r3, [r4, #68]	; 0x44
 80066da:	f043 0302 	orr.w	r3, r3, #2
 80066de:	6463      	str	r3, [r4, #68]	; 0x44
 80066e0:	0796      	lsls	r6, r2, #30
 80066e2:	d504      	bpl.n	80066ee <HAL_UART_IRQHandler+0x5a>
 80066e4:	b118      	cbz	r0, 80066ee <HAL_UART_IRQHandler+0x5a>
 80066e6:	6c63      	ldr	r3, [r4, #68]	; 0x44
 80066e8:	f043 0304 	orr.w	r3, r3, #4
 80066ec:	6463      	str	r3, [r4, #68]	; 0x44
 80066ee:	0715      	lsls	r5, r2, #28
 80066f0:	d507      	bpl.n	8006702 <HAL_UART_IRQHandler+0x6e>
 80066f2:	f001 0320 	and.w	r3, r1, #32
 80066f6:	4303      	orrs	r3, r0
 80066f8:	bf1e      	ittt	ne
 80066fa:	6c63      	ldrne	r3, [r4, #68]	; 0x44
 80066fc:	f043 0308 	orrne.w	r3, r3, #8
 8006700:	6463      	strne	r3, [r4, #68]	; 0x44
 8006702:	6c63      	ldr	r3, [r4, #68]	; 0x44
 8006704:	2b00      	cmp	r3, #0
 8006706:	d032      	beq.n	800676e <HAL_UART_IRQHandler+0xda>
 8006708:	0692      	lsls	r2, r2, #26
 800670a:	d504      	bpl.n	8006716 <HAL_UART_IRQHandler+0x82>
 800670c:	068b      	lsls	r3, r1, #26
 800670e:	d502      	bpl.n	8006716 <HAL_UART_IRQHandler+0x82>
 8006710:	4620      	mov	r0, r4
 8006712:	f7ff ff63 	bl	80065dc <UART_Receive_IT.isra.0>
 8006716:	6826      	ldr	r6, [r4, #0]
 8006718:	4620      	mov	r0, r4
 800671a:	6973      	ldr	r3, [r6, #20]
 800671c:	6c62      	ldr	r2, [r4, #68]	; 0x44
 800671e:	f003 0340 	and.w	r3, r3, #64	; 0x40
 8006722:	f002 0208 	and.w	r2, r2, #8
 8006726:	ea53 0502 	orrs.w	r5, r3, r2
 800672a:	d022      	beq.n	8006772 <HAL_UART_IRQHandler+0xde>
 800672c:	f7ff fe32 	bl	8006394 <UART_EndRxTransfer>
 8006730:	6973      	ldr	r3, [r6, #20]
 8006732:	065e      	lsls	r6, r3, #25
 8006734:	d518      	bpl.n	8006768 <HAL_UART_IRQHandler+0xd4>
 8006736:	6822      	ldr	r2, [r4, #0]
 8006738:	f102 0314 	add.w	r3, r2, #20
 800673c:	e853 3f00 	ldrex	r3, [r3]
 8006740:	f023 0340 	bic.w	r3, r3, #64	; 0x40
 8006744:	3214      	adds	r2, #20
 8006746:	e842 3100 	strex	r1, r3, [r2]
 800674a:	2900      	cmp	r1, #0
 800674c:	d1f3      	bne.n	8006736 <HAL_UART_IRQHandler+0xa2>
 800674e:	6be0      	ldr	r0, [r4, #60]	; 0x3c
 8006750:	b150      	cbz	r0, 8006768 <HAL_UART_IRQHandler+0xd4>
 8006752:	4b74      	ldr	r3, [pc, #464]	; (8006924 <HAL_UART_IRQHandler+0x290>)
 8006754:	6343      	str	r3, [r0, #52]	; 0x34
 8006756:	f7fc feb1 	bl	80034bc <HAL_DMA_Abort_IT>
 800675a:	b140      	cbz	r0, 800676e <HAL_UART_IRQHandler+0xda>
 800675c:	6be0      	ldr	r0, [r4, #60]	; 0x3c
 800675e:	6b43      	ldr	r3, [r0, #52]	; 0x34
 8006760:	b002      	add	sp, #8
 8006762:	e8bd 4070 	ldmia.w	sp!, {r4, r5, r6, lr}
 8006766:	4718      	bx	r3
 8006768:	4620      	mov	r0, r4
 800676a:	f7ff ff2d 	bl	80065c8 <HAL_UART_ErrorCallback>
 800676e:	b002      	add	sp, #8
 8006770:	bd70      	pop	{r4, r5, r6, pc}
 8006772:	f7ff ff29 	bl	80065c8 <HAL_UART_ErrorCallback>
 8006776:	6465      	str	r5, [r4, #68]	; 0x44
 8006778:	e7f9      	b.n	800676e <HAL_UART_IRQHandler+0xda>
 800677a:	6b20      	ldr	r0, [r4, #48]	; 0x30
 800677c:	2801      	cmp	r0, #1
 800677e:	f040 8094 	bne.w	80068aa <HAL_UART_IRQHandler+0x216>
 8006782:	06d5      	lsls	r5, r2, #27
 8006784:	f140 8091 	bpl.w	80068aa <HAL_UART_IRQHandler+0x216>
 8006788:	06c8      	lsls	r0, r1, #27
 800678a:	f140 808e 	bpl.w	80068aa <HAL_UART_IRQHandler+0x216>
 800678e:	2200      	movs	r2, #0
 8006790:	9201      	str	r2, [sp, #4]
 8006792:	681a      	ldr	r2, [r3, #0]
 8006794:	9201      	str	r2, [sp, #4]
 8006796:	685a      	ldr	r2, [r3, #4]
 8006798:	9201      	str	r2, [sp, #4]
 800679a:	9a01      	ldr	r2, [sp, #4]
 800679c:	695a      	ldr	r2, [r3, #20]
 800679e:	0652      	lsls	r2, r2, #25
 80067a0:	d54d      	bpl.n	800683e <HAL_UART_IRQHandler+0x1aa>
 80067a2:	6be1      	ldr	r1, [r4, #60]	; 0x3c
 80067a4:	680a      	ldr	r2, [r1, #0]
 80067a6:	6852      	ldr	r2, [r2, #4]
 80067a8:	b292      	uxth	r2, r2
 80067aa:	2a00      	cmp	r2, #0
 80067ac:	d0df      	beq.n	800676e <HAL_UART_IRQHandler+0xda>
 80067ae:	8da0      	ldrh	r0, [r4, #44]	; 0x2c
 80067b0:	4290      	cmp	r0, r2
 80067b2:	d9dc      	bls.n	800676e <HAL_UART_IRQHandler+0xda>
 80067b4:	85e2      	strh	r2, [r4, #46]	; 0x2e
 80067b6:	698a      	ldr	r2, [r1, #24]
 80067b8:	2a20      	cmp	r2, #32
 80067ba:	d036      	beq.n	800682a <HAL_UART_IRQHandler+0x196>
 80067bc:	f103 020c 	add.w	r2, r3, #12
 80067c0:	e852 2f00 	ldrex	r2, [r2]
 80067c4:	f422 7280 	bic.w	r2, r2, #256	; 0x100
 80067c8:	f103 000c 	add.w	r0, r3, #12
 80067cc:	e840 2100 	strex	r1, r2, [r0]
 80067d0:	2900      	cmp	r1, #0
 80067d2:	d1f3      	bne.n	80067bc <HAL_UART_IRQHandler+0x128>
 80067d4:	f103 0214 	add.w	r2, r3, #20
 80067d8:	e852 2f00 	ldrex	r2, [r2]
 80067dc:	f022 0201 	bic.w	r2, r2, #1
 80067e0:	f103 0014 	add.w	r0, r3, #20
 80067e4:	e840 2100 	strex	r1, r2, [r0]
 80067e8:	2900      	cmp	r1, #0
 80067ea:	d1f3      	bne.n	80067d4 <HAL_UART_IRQHandler+0x140>
 80067ec:	f103 0214 	add.w	r2, r3, #20
 80067f0:	e852 2f00 	ldrex	r2, [r2]
 80067f4:	f022 0240 	bic.w	r2, r2, #64	; 0x40
 80067f8:	f103 0014 	add.w	r0, r3, #20
 80067fc:	e840 2100 	strex	r1, r2, [r0]
 8006800:	2900      	cmp	r1, #0
 8006802:	d1f3      	bne.n	80067ec <HAL_UART_IRQHandler+0x158>
 8006804:	2220      	movs	r2, #32
 8006806:	f884 2042 	strb.w	r2, [r4, #66]	; 0x42
 800680a:	6321      	str	r1, [r4, #48]	; 0x30
 800680c:	f103 020c 	add.w	r2, r3, #12
 8006810:	e852 2f00 	ldrex	r2, [r2]
 8006814:	f022 0210 	bic.w	r2, r2, #16
 8006818:	f103 000c 	add.w	r0, r3, #12
 800681c:	e840 2100 	strex	r1, r2, [r0]
 8006820:	2900      	cmp	r1, #0
 8006822:	d1f3      	bne.n	800680c <HAL_UART_IRQHandler+0x178>
 8006824:	6be0      	ldr	r0, [r4, #60]	; 0x3c
 8006826:	f7fc fe29 	bl	800347c <HAL_DMA_Abort>
 800682a:	2302      	movs	r3, #2
 800682c:	6363      	str	r3, [r4, #52]	; 0x34
 800682e:	8de3      	ldrh	r3, [r4, #46]	; 0x2e
 8006830:	8da1      	ldrh	r1, [r4, #44]	; 0x2c
 8006832:	1ac9      	subs	r1, r1, r3
 8006834:	b289      	uxth	r1, r1
 8006836:	4620      	mov	r0, r4
 8006838:	f7ff fecf 	bl	80065da <HAL_UARTEx_RxEventCallback>
 800683c:	e797      	b.n	800676e <HAL_UART_IRQHandler+0xda>
 800683e:	8de2      	ldrh	r2, [r4, #46]	; 0x2e
 8006840:	8de0      	ldrh	r0, [r4, #46]	; 0x2e
 8006842:	8da1      	ldrh	r1, [r4, #44]	; 0x2c
 8006844:	b280      	uxth	r0, r0
 8006846:	b292      	uxth	r2, r2
 8006848:	2800      	cmp	r0, #0
 800684a:	d090      	beq.n	800676e <HAL_UART_IRQHandler+0xda>
 800684c:	1a89      	subs	r1, r1, r2
 800684e:	b289      	uxth	r1, r1
 8006850:	2900      	cmp	r1, #0
 8006852:	d08c      	beq.n	800676e <HAL_UART_IRQHandler+0xda>
 8006854:	f103 020c 	add.w	r2, r3, #12
 8006858:	e852 2f00 	ldrex	r2, [r2]
 800685c:	f422 7290 	bic.w	r2, r2, #288	; 0x120
 8006860:	f103 050c 	add.w	r5, r3, #12
 8006864:	e845 2000 	strex	r0, r2, [r5]
 8006868:	2800      	cmp	r0, #0
 800686a:	d1f3      	bne.n	8006854 <HAL_UART_IRQHandler+0x1c0>
 800686c:	f103 0214 	add.w	r2, r3, #20
 8006870:	e852 2f00 	ldrex	r2, [r2]
 8006874:	f022 0201 	bic.w	r2, r2, #1
 8006878:	f103 0514 	add.w	r5, r3, #20
 800687c:	e845 2000 	strex	r0, r2, [r5]
 8006880:	2800      	cmp	r0, #0
 8006882:	d1f3      	bne.n	800686c <HAL_UART_IRQHandler+0x1d8>
 8006884:	2220      	movs	r2, #32
 8006886:	f884 2042 	strb.w	r2, [r4, #66]	; 0x42
 800688a:	6320      	str	r0, [r4, #48]	; 0x30
 800688c:	f103 020c 	add.w	r2, r3, #12
 8006890:	e852 2f00 	ldrex	r2, [r2]
 8006894:	f022 0210 	bic.w	r2, r2, #16
 8006898:	f103 050c 	add.w	r5, r3, #12
 800689c:	e845 2000 	strex	r0, r2, [r5]
 80068a0:	2800      	cmp	r0, #0
 80068a2:	d1f3      	bne.n	800688c <HAL_UART_IRQHandler+0x1f8>
 80068a4:	2302      	movs	r3, #2
 80068a6:	6363      	str	r3, [r4, #52]	; 0x34
 80068a8:	e7c5      	b.n	8006836 <HAL_UART_IRQHandler+0x1a2>
 80068aa:	0616      	lsls	r6, r2, #24
 80068ac:	d528      	bpl.n	8006900 <HAL_UART_IRQHandler+0x26c>
 80068ae:	060d      	lsls	r5, r1, #24
 80068b0:	d526      	bpl.n	8006900 <HAL_UART_IRQHandler+0x26c>
 80068b2:	f894 2041 	ldrb.w	r2, [r4, #65]	; 0x41
 80068b6:	2a21      	cmp	r2, #33	; 0x21
 80068b8:	f47f af59 	bne.w	800676e <HAL_UART_IRQHandler+0xda>
 80068bc:	68a1      	ldr	r1, [r4, #8]
 80068be:	6a22      	ldr	r2, [r4, #32]
 80068c0:	f5b1 5f80 	cmp.w	r1, #4096	; 0x1000
 80068c4:	d117      	bne.n	80068f6 <HAL_UART_IRQHandler+0x262>
 80068c6:	6921      	ldr	r1, [r4, #16]
 80068c8:	b9a9      	cbnz	r1, 80068f6 <HAL_UART_IRQHandler+0x262>
 80068ca:	f832 1b02 	ldrh.w	r1, [r2], #2
 80068ce:	f3c1 0108 	ubfx	r1, r1, #0, #9
 80068d2:	6059      	str	r1, [r3, #4]
 80068d4:	6222      	str	r2, [r4, #32]
 80068d6:	8ce2      	ldrh	r2, [r4, #38]	; 0x26
 80068d8:	3a01      	subs	r2, #1
 80068da:	b292      	uxth	r2, r2
 80068dc:	84e2      	strh	r2, [r4, #38]	; 0x26
 80068de:	2a00      	cmp	r2, #0
 80068e0:	f47f af45 	bne.w	800676e <HAL_UART_IRQHandler+0xda>
 80068e4:	68da      	ldr	r2, [r3, #12]
 80068e6:	f022 0280 	bic.w	r2, r2, #128	; 0x80
 80068ea:	60da      	str	r2, [r3, #12]
 80068ec:	68da      	ldr	r2, [r3, #12]
 80068ee:	f042 0240 	orr.w	r2, r2, #64	; 0x40
 80068f2:	60da      	str	r2, [r3, #12]
 80068f4:	e73b      	b.n	800676e <HAL_UART_IRQHandler+0xda>
 80068f6:	1c51      	adds	r1, r2, #1
 80068f8:	6221      	str	r1, [r4, #32]
 80068fa:	7812      	ldrb	r2, [r2, #0]
 80068fc:	605a      	str	r2, [r3, #4]
 80068fe:	e7ea      	b.n	80068d6 <HAL_UART_IRQHandler+0x242>
 8006900:	0650      	lsls	r0, r2, #25
 8006902:	f57f af34 	bpl.w	800676e <HAL_UART_IRQHandler+0xda>
 8006906:	064a      	lsls	r2, r1, #25
 8006908:	f57f af31 	bpl.w	800676e <HAL_UART_IRQHandler+0xda>
 800690c:	68da      	ldr	r2, [r3, #12]
 800690e:	4620      	mov	r0, r4
 8006910:	f022 0240 	bic.w	r2, r2, #64	; 0x40
 8006914:	60da      	str	r2, [r3, #12]
 8006916:	2320      	movs	r3, #32
 8006918:	f884 3041 	strb.w	r3, [r4, #65]	; 0x41
 800691c:	f7ff fe52 	bl	80065c4 <HAL_UART_TxCpltCallback>
 8006920:	e725      	b.n	800676e <HAL_UART_IRQHandler+0xda>
 8006922:	bf00      	nop
 8006924:	080065cb 	.word	0x080065cb

08006928 <MX_FATFS_Init>:
 8006928:	b508      	push	{r3, lr}
 800692a:	4903      	ldr	r1, [pc, #12]	; (8006938 <MX_FATFS_Init+0x10>)
 800692c:	4803      	ldr	r0, [pc, #12]	; (800693c <MX_FATFS_Init+0x14>)
 800692e:	f001 fb55 	bl	8007fdc <FATFS_LinkDriver>
 8006932:	4b03      	ldr	r3, [pc, #12]	; (8006940 <MX_FATFS_Init+0x18>)
 8006934:	7018      	strb	r0, [r3, #0]
 8006936:	bd08      	pop	{r3, pc}
 8006938:	20002600 	.word	0x20002600
 800693c:	2000002c 	.word	0x2000002c
 8006940:	20002604 	.word	0x20002604

08006944 <get_fattime>:
 8006944:	2000      	movs	r0, #0
 8006946:	4770      	bx	lr

08006948 <USER_initialize>:
 8006948:	f7fa bf7a 	b.w	8001840 <SD_disk_initialize>

0800694c <USER_status>:
 800694c:	f7fb b826 	b.w	800199c <SD_disk_status>

08006950 <USER_read>:
 8006950:	f7fb b82e 	b.w	80019b0 <SD_disk_read>

08006954 <USER_write>:
 8006954:	f7fb b872 	b.w	8001a3c <SD_disk_write>

08006958 <USER_ioctl>:
 8006958:	f7fb b8c8 	b.w	8001aec <SD_disk_ioctl>

0800695c <disk_status>:
 800695c:	4b03      	ldr	r3, [pc, #12]	; (800696c <disk_status+0x10>)
 800695e:	181a      	adds	r2, r3, r0
 8006960:	eb03 0380 	add.w	r3, r3, r0, lsl #2
 8006964:	685b      	ldr	r3, [r3, #4]
 8006966:	7a10      	ldrb	r0, [r2, #8]
 8006968:	685b      	ldr	r3, [r3, #4]
 800696a:	4718      	bx	r3
 800696c:	20002828 	.word	0x20002828

08006970 <disk_initialize>:
 8006970:	4b06      	ldr	r3, [pc, #24]	; (800698c <disk_initialize+0x1c>)
 8006972:	5c1a      	ldrb	r2, [r3, r0]
 8006974:	b942      	cbnz	r2, 8006988 <disk_initialize+0x18>
 8006976:	2201      	movs	r2, #1
 8006978:	541a      	strb	r2, [r3, r0]
 800697a:	181a      	adds	r2, r3, r0
 800697c:	eb03 0380 	add.w	r3, r3, r0, lsl #2
 8006980:	685b      	ldr	r3, [r3, #4]
 8006982:	7a10      	ldrb	r0, [r2, #8]
 8006984:	681b      	ldr	r3, [r3, #0]
 8006986:	4718      	bx	r3
 8006988:	2000      	movs	r0, #0
 800698a:	4770      	bx	lr
 800698c:	20002828 	.word	0x20002828

08006990 <disk_read>:
 8006990:	b430      	push	{r4, r5}
 8006992:	4c05      	ldr	r4, [pc, #20]	; (80069a8 <disk_read+0x18>)
 8006994:	1825      	adds	r5, r4, r0
 8006996:	eb04 0480 	add.w	r4, r4, r0, lsl #2
 800699a:	6860      	ldr	r0, [r4, #4]
 800699c:	6884      	ldr	r4, [r0, #8]
 800699e:	7a28      	ldrb	r0, [r5, #8]
 80069a0:	46a4      	mov	ip, r4
 80069a2:	bc30      	pop	{r4, r5}
 80069a4:	4760      	bx	ip
 80069a6:	bf00      	nop
 80069a8:	20002828 	.word	0x20002828

080069ac <disk_write>:
 80069ac:	b430      	push	{r4, r5}
 80069ae:	4c05      	ldr	r4, [pc, #20]	; (80069c4 <disk_write+0x18>)
 80069b0:	1825      	adds	r5, r4, r0
 80069b2:	eb04 0480 	add.w	r4, r4, r0, lsl #2
 80069b6:	6860      	ldr	r0, [r4, #4]
 80069b8:	68c4      	ldr	r4, [r0, #12]
 80069ba:	7a28      	ldrb	r0, [r5, #8]
 80069bc:	46a4      	mov	ip, r4
 80069be:	bc30      	pop	{r4, r5}
 80069c0:	4760      	bx	ip
 80069c2:	bf00      	nop
 80069c4:	20002828 	.word	0x20002828

080069c8 <disk_ioctl>:
 80069c8:	b410      	push	{r4}
 80069ca:	4b04      	ldr	r3, [pc, #16]	; (80069dc <disk_ioctl+0x14>)
 80069cc:	181c      	adds	r4, r3, r0
 80069ce:	eb03 0380 	add.w	r3, r3, r0, lsl #2
 80069d2:	685b      	ldr	r3, [r3, #4]
 80069d4:	7a20      	ldrb	r0, [r4, #8]
 80069d6:	691b      	ldr	r3, [r3, #16]
 80069d8:	bc10      	pop	{r4}
 80069da:	4718      	bx	r3
 80069dc:	20002828 	.word	0x20002828

080069e0 <mem_cpy>:
 80069e0:	3801      	subs	r0, #1
 80069e2:	440a      	add	r2, r1
 80069e4:	4291      	cmp	r1, r2
 80069e6:	d100      	bne.n	80069ea <mem_cpy+0xa>
 80069e8:	4770      	bx	lr
 80069ea:	f811 3b01 	ldrb.w	r3, [r1], #1
 80069ee:	f800 3f01 	strb.w	r3, [r0, #1]!
 80069f2:	e7f7      	b.n	80069e4 <mem_cpy+0x4>

080069f4 <mem_set>:
 80069f4:	4402      	add	r2, r0
 80069f6:	4290      	cmp	r0, r2
 80069f8:	d100      	bne.n	80069fc <mem_set+0x8>
 80069fa:	4770      	bx	lr
 80069fc:	f800 1b01 	strb.w	r1, [r0], #1
 8006a00:	e7f9      	b.n	80069f6 <mem_set+0x2>
	...

08006a04 <chk_lock>:
 8006a04:	4a1e      	ldr	r2, [pc, #120]	; (8006a80 <chk_lock+0x7c>)
 8006a06:	b530      	push	{r4, r5, lr}
 8006a08:	6814      	ldr	r4, [r2, #0]
 8006a0a:	4603      	mov	r3, r0
 8006a0c:	b174      	cbz	r4, 8006a2c <chk_lock+0x28>
 8006a0e:	f500 5080 	add.w	r0, r0, #4096	; 0x1000
 8006a12:	6805      	ldr	r5, [r0, #0]
 8006a14:	42ac      	cmp	r4, r5
 8006a16:	d107      	bne.n	8006a28 <chk_lock+0x24>
 8006a18:	6885      	ldr	r5, [r0, #8]
 8006a1a:	6854      	ldr	r4, [r2, #4]
 8006a1c:	42a5      	cmp	r5, r4
 8006a1e:	d103      	bne.n	8006a28 <chk_lock+0x24>
 8006a20:	8914      	ldrh	r4, [r2, #8]
 8006a22:	88c0      	ldrh	r0, [r0, #6]
 8006a24:	4284      	cmp	r4, r0
 8006a26:	d023      	beq.n	8006a70 <chk_lock+0x6c>
 8006a28:	2400      	movs	r4, #0
 8006a2a:	e000      	b.n	8006a2e <chk_lock+0x2a>
 8006a2c:	2401      	movs	r4, #1
 8006a2e:	68d0      	ldr	r0, [r2, #12]
 8006a30:	b188      	cbz	r0, 8006a56 <chk_lock+0x52>
 8006a32:	f503 5380 	add.w	r3, r3, #4096	; 0x1000
 8006a36:	681d      	ldr	r5, [r3, #0]
 8006a38:	42a8      	cmp	r0, r5
 8006a3a:	d107      	bne.n	8006a4c <chk_lock+0x48>
 8006a3c:	6915      	ldr	r5, [r2, #16]
 8006a3e:	6898      	ldr	r0, [r3, #8]
 8006a40:	4285      	cmp	r5, r0
 8006a42:	d103      	bne.n	8006a4c <chk_lock+0x48>
 8006a44:	8a90      	ldrh	r0, [r2, #20]
 8006a46:	88db      	ldrh	r3, [r3, #6]
 8006a48:	4298      	cmp	r0, r3
 8006a4a:	d016      	beq.n	8006a7a <chk_lock+0x76>
 8006a4c:	b974      	cbnz	r4, 8006a6c <chk_lock+0x68>
 8006a4e:	2902      	cmp	r1, #2
 8006a50:	bf0c      	ite	eq
 8006a52:	2000      	moveq	r0, #0
 8006a54:	2012      	movne	r0, #18
 8006a56:	bd30      	pop	{r4, r5, pc}
 8006a58:	210c      	movs	r1, #12
 8006a5a:	fb01 2303 	mla	r3, r1, r3, r2
 8006a5e:	8958      	ldrh	r0, [r3, #10]
 8006a60:	f5a0 7380 	sub.w	r3, r0, #256	; 0x100
 8006a64:	4258      	negs	r0, r3
 8006a66:	4158      	adcs	r0, r3
 8006a68:	0100      	lsls	r0, r0, #4
 8006a6a:	e7f4      	b.n	8006a56 <chk_lock+0x52>
 8006a6c:	2000      	movs	r0, #0
 8006a6e:	e7f2      	b.n	8006a56 <chk_lock+0x52>
 8006a70:	2300      	movs	r3, #0
 8006a72:	2900      	cmp	r1, #0
 8006a74:	d0f0      	beq.n	8006a58 <chk_lock+0x54>
 8006a76:	2010      	movs	r0, #16
 8006a78:	e7ed      	b.n	8006a56 <chk_lock+0x52>
 8006a7a:	2301      	movs	r3, #1
 8006a7c:	e7f9      	b.n	8006a72 <chk_lock+0x6e>
 8006a7e:	bf00      	nop
 8006a80:	2000260c 	.word	0x2000260c

08006a84 <inc_lock>:
 8006a84:	4b21      	ldr	r3, [pc, #132]	; (8006b0c <inc_lock+0x88>)
 8006a86:	f500 5280 	add.w	r2, r0, #4096	; 0x1000
 8006a8a:	b5f0      	push	{r4, r5, r6, r7, lr}
 8006a8c:	6818      	ldr	r0, [r3, #0]
 8006a8e:	6816      	ldr	r6, [r2, #0]
 8006a90:	4286      	cmp	r6, r0
 8006a92:	d107      	bne.n	8006aa4 <inc_lock+0x20>
 8006a94:	6895      	ldr	r5, [r2, #8]
 8006a96:	685c      	ldr	r4, [r3, #4]
 8006a98:	42a5      	cmp	r5, r4
 8006a9a:	d103      	bne.n	8006aa4 <inc_lock+0x20>
 8006a9c:	891d      	ldrh	r5, [r3, #8]
 8006a9e:	88d4      	ldrh	r4, [r2, #6]
 8006aa0:	42a5      	cmp	r5, r4
 8006aa2:	d024      	beq.n	8006aee <inc_lock+0x6a>
 8006aa4:	68dc      	ldr	r4, [r3, #12]
 8006aa6:	42b4      	cmp	r4, r6
 8006aa8:	d107      	bne.n	8006aba <inc_lock+0x36>
 8006aaa:	691f      	ldr	r7, [r3, #16]
 8006aac:	6895      	ldr	r5, [r2, #8]
 8006aae:	42af      	cmp	r7, r5
 8006ab0:	d103      	bne.n	8006aba <inc_lock+0x36>
 8006ab2:	8a9f      	ldrh	r7, [r3, #20]
 8006ab4:	88d5      	ldrh	r5, [r2, #6]
 8006ab6:	42af      	cmp	r7, r5
 8006ab8:	d024      	beq.n	8006b04 <inc_lock+0x80>
 8006aba:	b108      	cbz	r0, 8006ac0 <inc_lock+0x3c>
 8006abc:	bb24      	cbnz	r4, 8006b08 <inc_lock+0x84>
 8006abe:	2001      	movs	r0, #1
 8006ac0:	240c      	movs	r4, #12
 8006ac2:	4344      	muls	r4, r0
 8006ac4:	191d      	adds	r5, r3, r4
 8006ac6:	511e      	str	r6, [r3, r4]
 8006ac8:	6894      	ldr	r4, [r2, #8]
 8006aca:	88d2      	ldrh	r2, [r2, #6]
 8006acc:	606c      	str	r4, [r5, #4]
 8006ace:	812a      	strh	r2, [r5, #8]
 8006ad0:	2200      	movs	r2, #0
 8006ad2:	816a      	strh	r2, [r5, #10]
 8006ad4:	b999      	cbnz	r1, 8006afe <inc_lock+0x7a>
 8006ad6:	220c      	movs	r2, #12
 8006ad8:	fb02 3200 	mla	r2, r2, r0, r3
 8006adc:	8952      	ldrh	r2, [r2, #10]
 8006ade:	3201      	adds	r2, #1
 8006ae0:	b292      	uxth	r2, r2
 8006ae2:	210c      	movs	r1, #12
 8006ae4:	fb01 3300 	mla	r3, r1, r0, r3
 8006ae8:	3001      	adds	r0, #1
 8006aea:	815a      	strh	r2, [r3, #10]
 8006aec:	bdf0      	pop	{r4, r5, r6, r7, pc}
 8006aee:	2000      	movs	r0, #0
 8006af0:	220c      	movs	r2, #12
 8006af2:	fb02 3200 	mla	r2, r2, r0, r3
 8006af6:	8952      	ldrh	r2, [r2, #10]
 8006af8:	2900      	cmp	r1, #0
 8006afa:	d0ec      	beq.n	8006ad6 <inc_lock+0x52>
 8006afc:	b922      	cbnz	r2, 8006b08 <inc_lock+0x84>
 8006afe:	f44f 7280 	mov.w	r2, #256	; 0x100
 8006b02:	e7ee      	b.n	8006ae2 <inc_lock+0x5e>
 8006b04:	2001      	movs	r0, #1
 8006b06:	e7f3      	b.n	8006af0 <inc_lock+0x6c>
 8006b08:	2000      	movs	r0, #0
 8006b0a:	e7ef      	b.n	8006aec <inc_lock+0x68>
 8006b0c:	2000260c 	.word	0x2000260c

08006b10 <clear_lock>:
 8006b10:	4b05      	ldr	r3, [pc, #20]	; (8006b28 <clear_lock+0x18>)
 8006b12:	681a      	ldr	r2, [r3, #0]
 8006b14:	4290      	cmp	r0, r2
 8006b16:	bf04      	itt	eq
 8006b18:	2200      	moveq	r2, #0
 8006b1a:	601a      	streq	r2, [r3, #0]
 8006b1c:	68da      	ldr	r2, [r3, #12]
 8006b1e:	4290      	cmp	r0, r2
 8006b20:	bf04      	itt	eq
 8006b22:	2200      	moveq	r2, #0
 8006b24:	60da      	streq	r2, [r3, #12]
 8006b26:	4770      	bx	lr
 8006b28:	2000260c 	.word	0x2000260c

08006b2c <clmt_clust>:
 8006b2c:	f500 5080 	add.w	r0, r0, #4096	; 0x1000
 8006b30:	6802      	ldr	r2, [r0, #0]
 8006b32:	6a43      	ldr	r3, [r0, #36]	; 0x24
 8006b34:	f502 5280 	add.w	r2, r2, #4096	; 0x1000
 8006b38:	8950      	ldrh	r0, [r2, #10]
 8006b3a:	7892      	ldrb	r2, [r2, #2]
 8006b3c:	fbb1 f1f0 	udiv	r1, r1, r0
 8006b40:	fbb1 f1f2 	udiv	r1, r1, r2
 8006b44:	3304      	adds	r3, #4
 8006b46:	6818      	ldr	r0, [r3, #0]
 8006b48:	b130      	cbz	r0, 8006b58 <clmt_clust+0x2c>
 8006b4a:	4281      	cmp	r1, r0
 8006b4c:	d302      	bcc.n	8006b54 <clmt_clust+0x28>
 8006b4e:	1a09      	subs	r1, r1, r0
 8006b50:	3308      	adds	r3, #8
 8006b52:	e7f8      	b.n	8006b46 <clmt_clust+0x1a>
 8006b54:	6858      	ldr	r0, [r3, #4]
 8006b56:	4408      	add	r0, r1
 8006b58:	4770      	bx	lr

08006b5a <sum_sfn>:
 8006b5a:	4603      	mov	r3, r0
 8006b5c:	f100 010b 	add.w	r1, r0, #11
 8006b60:	2000      	movs	r0, #0
 8006b62:	01c2      	lsls	r2, r0, #7
 8006b64:	ea42 0250 	orr.w	r2, r2, r0, lsr #1
 8006b68:	f813 0b01 	ldrb.w	r0, [r3], #1
 8006b6c:	4402      	add	r2, r0
 8006b6e:	428b      	cmp	r3, r1
 8006b70:	f002 00ff 	and.w	r0, r2, #255	; 0xff
 8006b74:	d1f5      	bne.n	8006b62 <sum_sfn+0x8>
 8006b76:	4770      	bx	lr

08006b78 <get_ldnumber>:
 8006b78:	6802      	ldr	r2, [r0, #0]
 8006b7a:	b510      	push	{r4, lr}
 8006b7c:	b152      	cbz	r2, 8006b94 <get_ldnumber+0x1c>
 8006b7e:	4611      	mov	r1, r2
 8006b80:	460b      	mov	r3, r1
 8006b82:	f811 4b01 	ldrb.w	r4, [r1], #1
 8006b86:	2c1f      	cmp	r4, #31
 8006b88:	d90c      	bls.n	8006ba4 <get_ldnumber+0x2c>
 8006b8a:	2c3a      	cmp	r4, #58	; 0x3a
 8006b8c:	d1f8      	bne.n	8006b80 <get_ldnumber+0x8>
 8006b8e:	1c51      	adds	r1, r2, #1
 8006b90:	428b      	cmp	r3, r1
 8006b92:	d002      	beq.n	8006b9a <get_ldnumber+0x22>
 8006b94:	f04f 30ff 	mov.w	r0, #4294967295
 8006b98:	e005      	b.n	8006ba6 <get_ldnumber+0x2e>
 8006b9a:	7812      	ldrb	r2, [r2, #0]
 8006b9c:	2a30      	cmp	r2, #48	; 0x30
 8006b9e:	d1f9      	bne.n	8006b94 <get_ldnumber+0x1c>
 8006ba0:	3301      	adds	r3, #1
 8006ba2:	6003      	str	r3, [r0, #0]
 8006ba4:	2000      	movs	r0, #0
 8006ba6:	bd10      	pop	{r4, pc}

08006ba8 <validate>:
 8006ba8:	b508      	push	{r3, lr}
 8006baa:	b188      	cbz	r0, 8006bd0 <validate+0x28>
 8006bac:	f500 5080 	add.w	r0, r0, #4096	; 0x1000
 8006bb0:	6803      	ldr	r3, [r0, #0]
 8006bb2:	b16b      	cbz	r3, 8006bd0 <validate+0x28>
 8006bb4:	f503 5380 	add.w	r3, r3, #4096	; 0x1000
 8006bb8:	781a      	ldrb	r2, [r3, #0]
 8006bba:	b14a      	cbz	r2, 8006bd0 <validate+0x28>
 8006bbc:	88d9      	ldrh	r1, [r3, #6]
 8006bbe:	8882      	ldrh	r2, [r0, #4]
 8006bc0:	4291      	cmp	r1, r2
 8006bc2:	d105      	bne.n	8006bd0 <validate+0x28>
 8006bc4:	7858      	ldrb	r0, [r3, #1]
 8006bc6:	f7ff fec9 	bl	800695c <disk_status>
 8006bca:	f010 0001 	ands.w	r0, r0, #1
 8006bce:	d000      	beq.n	8006bd2 <validate+0x2a>
 8006bd0:	2009      	movs	r0, #9
 8006bd2:	bd08      	pop	{r3, pc}

08006bd4 <sync_window.part.0>:
 8006bd4:	e92d 41f0 	stmdb	sp!, {r4, r5, r6, r7, r8, lr}
 8006bd8:	f500 5480 	add.w	r4, r0, #4096	; 0x1000
 8006bdc:	6ae6      	ldr	r6, [r4, #44]	; 0x2c
 8006bde:	4601      	mov	r1, r0
 8006be0:	4607      	mov	r7, r0
 8006be2:	2301      	movs	r3, #1
 8006be4:	4632      	mov	r2, r6
 8006be6:	7860      	ldrb	r0, [r4, #1]
 8006be8:	f7ff fee0 	bl	80069ac <disk_write>
 8006bec:	4605      	mov	r5, r0
 8006bee:	b9c0      	cbnz	r0, 8006c22 <sync_window.part.0+0x4e>
 8006bf0:	6a23      	ldr	r3, [r4, #32]
 8006bf2:	69a2      	ldr	r2, [r4, #24]
 8006bf4:	1af3      	subs	r3, r6, r3
 8006bf6:	4293      	cmp	r3, r2
 8006bf8:	7120      	strb	r0, [r4, #4]
 8006bfa:	d204      	bcs.n	8006c06 <sync_window.part.0+0x32>
 8006bfc:	f894 8003 	ldrb.w	r8, [r4, #3]
 8006c00:	f1b8 0f01 	cmp.w	r8, #1
 8006c04:	d802      	bhi.n	8006c0c <sync_window.part.0+0x38>
 8006c06:	4628      	mov	r0, r5
 8006c08:	e8bd 81f0 	ldmia.w	sp!, {r4, r5, r6, r7, r8, pc}
 8006c0c:	69a3      	ldr	r3, [r4, #24]
 8006c0e:	4639      	mov	r1, r7
 8006c10:	441e      	add	r6, r3
 8006c12:	4632      	mov	r2, r6
 8006c14:	2301      	movs	r3, #1
 8006c16:	7860      	ldrb	r0, [r4, #1]
 8006c18:	f7ff fec8 	bl	80069ac <disk_write>
 8006c1c:	f108 38ff 	add.w	r8, r8, #4294967295
 8006c20:	e7ee      	b.n	8006c00 <sync_window.part.0+0x2c>
 8006c22:	2501      	movs	r5, #1
 8006c24:	e7ef      	b.n	8006c06 <sync_window.part.0+0x32>

08006c26 <sync_window>:
 8006c26:	f500 5380 	add.w	r3, r0, #4096	; 0x1000
 8006c2a:	791b      	ldrb	r3, [r3, #4]
 8006c2c:	b10b      	cbz	r3, 8006c32 <sync_window+0xc>
 8006c2e:	f7ff bfd1 	b.w	8006bd4 <sync_window.part.0>
 8006c32:	4618      	mov	r0, r3
 8006c34:	4770      	bx	lr

08006c36 <move_window>:
 8006c36:	b570      	push	{r4, r5, r6, lr}
 8006c38:	f500 5680 	add.w	r6, r0, #4096	; 0x1000
 8006c3c:	6af3      	ldr	r3, [r6, #44]	; 0x2c
 8006c3e:	4605      	mov	r5, r0
 8006c40:	428b      	cmp	r3, r1
 8006c42:	460c      	mov	r4, r1
 8006c44:	d00f      	beq.n	8006c66 <move_window+0x30>
 8006c46:	f7ff ffee 	bl	8006c26 <sync_window>
 8006c4a:	b958      	cbnz	r0, 8006c64 <move_window+0x2e>
 8006c4c:	4622      	mov	r2, r4
 8006c4e:	2301      	movs	r3, #1
 8006c50:	4629      	mov	r1, r5
 8006c52:	7870      	ldrb	r0, [r6, #1]
 8006c54:	f7ff fe9c 	bl	8006990 <disk_read>
 8006c58:	2800      	cmp	r0, #0
 8006c5a:	bf1c      	itt	ne
 8006c5c:	f04f 34ff 	movne.w	r4, #4294967295
 8006c60:	2001      	movne	r0, #1
 8006c62:	62f4      	str	r4, [r6, #44]	; 0x2c
 8006c64:	bd70      	pop	{r4, r5, r6, pc}
 8006c66:	2000      	movs	r0, #0
 8006c68:	e7fc      	b.n	8006c64 <move_window+0x2e>
	...

08006c6c <check_fs>:
 8006c6c:	2200      	movs	r2, #0
 8006c6e:	f500 5380 	add.w	r3, r0, #4096	; 0x1000
 8006c72:	b510      	push	{r4, lr}
 8006c74:	711a      	strb	r2, [r3, #4]
 8006c76:	f04f 32ff 	mov.w	r2, #4294967295
 8006c7a:	62da      	str	r2, [r3, #44]	; 0x2c
 8006c7c:	4604      	mov	r4, r0
 8006c7e:	f7ff ffda 	bl	8006c36 <move_window>
 8006c82:	b9a0      	cbnz	r0, 8006cae <check_fs+0x42>
 8006c84:	f64a 2355 	movw	r3, #43605	; 0xaa55
 8006c88:	f8b4 21fe 	ldrh.w	r2, [r4, #510]	; 0x1fe
 8006c8c:	429a      	cmp	r2, r3
 8006c8e:	d110      	bne.n	8006cb2 <check_fs+0x46>
 8006c90:	f8d4 3036 	ldr.w	r3, [r4, #54]	; 0x36
 8006c94:	4a08      	ldr	r2, [pc, #32]	; (8006cb8 <check_fs+0x4c>)
 8006c96:	f023 437f 	bic.w	r3, r3, #4278190080	; 0xff000000
 8006c9a:	4293      	cmp	r3, r2
 8006c9c:	d006      	beq.n	8006cac <check_fs+0x40>
 8006c9e:	f8d4 0052 	ldr.w	r0, [r4, #82]	; 0x52
 8006ca2:	f020 407f 	bic.w	r0, r0, #4278190080	; 0xff000000
 8006ca6:	1a80      	subs	r0, r0, r2
 8006ca8:	bf18      	it	ne
 8006caa:	2001      	movne	r0, #1
 8006cac:	bd10      	pop	{r4, pc}
 8006cae:	2003      	movs	r0, #3
 8006cb0:	e7fc      	b.n	8006cac <check_fs+0x40>
 8006cb2:	2002      	movs	r0, #2
 8006cb4:	e7fa      	b.n	8006cac <check_fs+0x40>
 8006cb6:	bf00      	nop
 8006cb8:	00544146 	.word	0x00544146

08006cbc <find_volume>:
 8006cbc:	e92d 47ff 	stmdb	sp!, {r0, r1, r2, r3, r4, r5, r6, r7, r8, r9, sl, lr}
 8006cc0:	2300      	movs	r3, #0
 8006cc2:	4605      	mov	r5, r0
 8006cc4:	6003      	str	r3, [r0, #0]
 8006cc6:	4608      	mov	r0, r1
 8006cc8:	4616      	mov	r6, r2
 8006cca:	f7ff ff55 	bl	8006b78 <get_ldnumber>
 8006cce:	1e07      	subs	r7, r0, #0
 8006cd0:	f2c0 8113 	blt.w	8006efa <find_volume+0x23e>
 8006cd4:	4b8c      	ldr	r3, [pc, #560]	; (8006f08 <find_volume+0x24c>)
 8006cd6:	f853 4027 	ldr.w	r4, [r3, r7, lsl #2]
 8006cda:	2c00      	cmp	r4, #0
 8006cdc:	f000 810f 	beq.w	8006efe <find_volume+0x242>
 8006ce0:	602c      	str	r4, [r5, #0]
 8006ce2:	f504 5580 	add.w	r5, r4, #4096	; 0x1000
 8006ce6:	782b      	ldrb	r3, [r5, #0]
 8006ce8:	b16b      	cbz	r3, 8006d06 <find_volume+0x4a>
 8006cea:	7868      	ldrb	r0, [r5, #1]
 8006cec:	f7ff fe36 	bl	800695c <disk_status>
 8006cf0:	07c1      	lsls	r1, r0, #31
 8006cf2:	d408      	bmi.n	8006d06 <find_volume+0x4a>
 8006cf4:	b11e      	cbz	r6, 8006cfe <find_volume+0x42>
 8006cf6:	f010 0604 	ands.w	r6, r0, #4
 8006cfa:	d000      	beq.n	8006cfe <find_volume+0x42>
 8006cfc:	260a      	movs	r6, #10
 8006cfe:	4630      	mov	r0, r6
 8006d00:	b004      	add	sp, #16
 8006d02:	e8bd 87f0 	ldmia.w	sp!, {r4, r5, r6, r7, r8, r9, sl, pc}
 8006d06:	2300      	movs	r3, #0
 8006d08:	b2f8      	uxtb	r0, r7
 8006d0a:	702b      	strb	r3, [r5, #0]
 8006d0c:	7068      	strb	r0, [r5, #1]
 8006d0e:	f7ff fe2f 	bl	8006970 <disk_initialize>
 8006d12:	07c2      	lsls	r2, r0, #31
 8006d14:	f100 80f5 	bmi.w	8006f02 <find_volume+0x246>
 8006d18:	b10e      	cbz	r6, 8006d1e <find_volume+0x62>
 8006d1a:	0743      	lsls	r3, r0, #29
 8006d1c:	d4ee      	bmi.n	8006cfc <find_volume+0x40>
 8006d1e:	f504 5280 	add.w	r2, r4, #4096	; 0x1000
 8006d22:	2102      	movs	r1, #2
 8006d24:	7868      	ldrb	r0, [r5, #1]
 8006d26:	320a      	adds	r2, #10
 8006d28:	f7ff fe4e 	bl	80069c8 <disk_ioctl>
 8006d2c:	4606      	mov	r6, r0
 8006d2e:	b108      	cbz	r0, 8006d34 <find_volume+0x78>
 8006d30:	2601      	movs	r6, #1
 8006d32:	e7e4      	b.n	8006cfe <find_volume+0x42>
 8006d34:	896b      	ldrh	r3, [r5, #10]
 8006d36:	f5a3 7300 	sub.w	r3, r3, #512	; 0x200
 8006d3a:	b29b      	uxth	r3, r3
 8006d3c:	f5b3 6f60 	cmp.w	r3, #3584	; 0xe00
 8006d40:	d8f6      	bhi.n	8006d30 <find_volume+0x74>
 8006d42:	4601      	mov	r1, r0
 8006d44:	4620      	mov	r0, r4
 8006d46:	f7ff ff91 	bl	8006c6c <check_fs>
 8006d4a:	2801      	cmp	r0, #1
 8006d4c:	f040 80bb 	bne.w	8006ec6 <find_volume+0x20a>
 8006d50:	466f      	mov	r7, sp
 8006d52:	4639      	mov	r1, r7
 8006d54:	f504 73df 	add.w	r3, r4, #446	; 0x1be
 8006d58:	f504 70ff 	add.w	r0, r4, #510	; 0x1fe
 8006d5c:	791a      	ldrb	r2, [r3, #4]
 8006d5e:	b102      	cbz	r2, 8006d62 <find_volume+0xa6>
 8006d60:	689a      	ldr	r2, [r3, #8]
 8006d62:	3310      	adds	r3, #16
 8006d64:	4283      	cmp	r3, r0
 8006d66:	f841 2b04 	str.w	r2, [r1], #4
 8006d6a:	d1f7      	bne.n	8006d5c <find_volume+0xa0>
 8006d6c:	f04f 0900 	mov.w	r9, #0
 8006d70:	f857 8b04 	ldr.w	r8, [r7], #4
 8006d74:	f1b8 0f00 	cmp.w	r8, #0
 8006d78:	f000 809b 	beq.w	8006eb2 <find_volume+0x1f6>
 8006d7c:	4641      	mov	r1, r8
 8006d7e:	4620      	mov	r0, r4
 8006d80:	f7ff ff74 	bl	8006c6c <check_fs>
 8006d84:	2800      	cmp	r0, #0
 8006d86:	f040 8095 	bne.w	8006eb4 <find_volume+0x1f8>
 8006d8a:	f8b5 c00a 	ldrh.w	ip, [r5, #10]
 8006d8e:	f8b4 300b 	ldrh.w	r3, [r4, #11]
 8006d92:	4563      	cmp	r3, ip
 8006d94:	f040 809b 	bne.w	8006ece <find_volume+0x212>
 8006d98:	8ae1      	ldrh	r1, [r4, #22]
 8006d9a:	b901      	cbnz	r1, 8006d9e <find_volume+0xe2>
 8006d9c:	6a61      	ldr	r1, [r4, #36]	; 0x24
 8006d9e:	f894 e010 	ldrb.w	lr, [r4, #16]
 8006da2:	61a9      	str	r1, [r5, #24]
 8006da4:	f10e 33ff 	add.w	r3, lr, #4294967295
 8006da8:	2b01      	cmp	r3, #1
 8006daa:	f885 e003 	strb.w	lr, [r5, #3]
 8006dae:	f200 808e 	bhi.w	8006ece <find_volume+0x212>
 8006db2:	7b67      	ldrb	r7, [r4, #13]
 8006db4:	70af      	strb	r7, [r5, #2]
 8006db6:	2f00      	cmp	r7, #0
 8006db8:	f000 8089 	beq.w	8006ece <find_volume+0x212>
 8006dbc:	1e7b      	subs	r3, r7, #1
 8006dbe:	423b      	tst	r3, r7
 8006dc0:	f040 8085 	bne.w	8006ece <find_volume+0x212>
 8006dc4:	f8b4 9011 	ldrh.w	r9, [r4, #17]
 8006dc8:	ea4f 135c 	mov.w	r3, ip, lsr #5
 8006dcc:	fbb9 f2f3 	udiv	r2, r9, r3
 8006dd0:	fb03 9312 	mls	r3, r3, r2, r9
 8006dd4:	b29b      	uxth	r3, r3
 8006dd6:	f8a5 9008 	strh.w	r9, [r5, #8]
 8006dda:	2b00      	cmp	r3, #0
 8006ddc:	d177      	bne.n	8006ece <find_volume+0x212>
 8006dde:	f8b4 3013 	ldrh.w	r3, [r4, #19]
 8006de2:	b903      	cbnz	r3, 8006de6 <find_volume+0x12a>
 8006de4:	6a23      	ldr	r3, [r4, #32]
 8006de6:	89e0      	ldrh	r0, [r4, #14]
 8006de8:	2800      	cmp	r0, #0
 8006dea:	d070      	beq.n	8006ece <find_volume+0x212>
 8006dec:	fb01 fe0e 	mul.w	lr, r1, lr
 8006df0:	4402      	add	r2, r0
 8006df2:	4472      	add	r2, lr
 8006df4:	4293      	cmp	r3, r2
 8006df6:	d36a      	bcc.n	8006ece <find_volume+0x212>
 8006df8:	1a9b      	subs	r3, r3, r2
 8006dfa:	42bb      	cmp	r3, r7
 8006dfc:	fbb3 faf7 	udiv	sl, r3, r7
 8006e00:	d365      	bcc.n	8006ece <find_volume+0x212>
 8006e02:	f640 73f5 	movw	r3, #4085	; 0xff5
 8006e06:	459a      	cmp	sl, r3
 8006e08:	d965      	bls.n	8006ed6 <find_volume+0x21a>
 8006e0a:	f64f 77f5 	movw	r7, #65525	; 0xfff5
 8006e0e:	45ba      	cmp	sl, r7
 8006e10:	bf94      	ite	ls
 8006e12:	2702      	movls	r7, #2
 8006e14:	2703      	movhi	r7, #3
 8006e16:	f10a 0302 	add.w	r3, sl, #2
 8006e1a:	4440      	add	r0, r8
 8006e1c:	4442      	add	r2, r8
 8006e1e:	2f03      	cmp	r7, #3
 8006e20:	616b      	str	r3, [r5, #20]
 8006e22:	f8c5 801c 	str.w	r8, [r5, #28]
 8006e26:	6228      	str	r0, [r5, #32]
 8006e28:	62aa      	str	r2, [r5, #40]	; 0x28
 8006e2a:	d156      	bne.n	8006eda <find_volume+0x21e>
 8006e2c:	f1b9 0f00 	cmp.w	r9, #0
 8006e30:	d14d      	bne.n	8006ece <find_volume+0x212>
 8006e32:	6ae0      	ldr	r0, [r4, #44]	; 0x2c
 8006e34:	009b      	lsls	r3, r3, #2
 8006e36:	f10c 32ff 	add.w	r2, ip, #4294967295
 8006e3a:	4413      	add	r3, r2
 8006e3c:	fbb3 f3fc 	udiv	r3, r3, ip
 8006e40:	428b      	cmp	r3, r1
 8006e42:	6268      	str	r0, [r5, #36]	; 0x24
 8006e44:	d843      	bhi.n	8006ece <find_volume+0x212>
 8006e46:	f04f 33ff 	mov.w	r3, #4294967295
 8006e4a:	e9c5 3303 	strd	r3, r3, [r5, #12]
 8006e4e:	2380      	movs	r3, #128	; 0x80
 8006e50:	2f03      	cmp	r7, #3
 8006e52:	716b      	strb	r3, [r5, #5]
 8006e54:	d122      	bne.n	8006e9c <find_volume+0x1e0>
 8006e56:	8e23      	ldrh	r3, [r4, #48]	; 0x30
 8006e58:	2b01      	cmp	r3, #1
 8006e5a:	d11f      	bne.n	8006e9c <find_volume+0x1e0>
 8006e5c:	4620      	mov	r0, r4
 8006e5e:	f108 0101 	add.w	r1, r8, #1
 8006e62:	f7ff fee8 	bl	8006c36 <move_window>
 8006e66:	b9c8      	cbnz	r0, 8006e9c <find_volume+0x1e0>
 8006e68:	f64a 2355 	movw	r3, #43605	; 0xaa55
 8006e6c:	7168      	strb	r0, [r5, #5]
 8006e6e:	f8b4 21fe 	ldrh.w	r2, [r4, #510]	; 0x1fe
 8006e72:	429a      	cmp	r2, r3
 8006e74:	d112      	bne.n	8006e9c <find_volume+0x1e0>
 8006e76:	6822      	ldr	r2, [r4, #0]
 8006e78:	4b24      	ldr	r3, [pc, #144]	; (8006f0c <find_volume+0x250>)
 8006e7a:	429a      	cmp	r2, r3
 8006e7c:	d10e      	bne.n	8006e9c <find_volume+0x1e0>
 8006e7e:	f103 53ff 	add.w	r3, r3, #534773760	; 0x1fe00000
 8006e82:	f8d4 21e4 	ldr.w	r2, [r4, #484]	; 0x1e4
 8006e86:	f503 5300 	add.w	r3, r3, #8192	; 0x2000
 8006e8a:	3320      	adds	r3, #32
 8006e8c:	429a      	cmp	r2, r3
 8006e8e:	bf01      	itttt	eq
 8006e90:	f8d4 31e8 	ldreq.w	r3, [r4, #488]	; 0x1e8
 8006e94:	612b      	streq	r3, [r5, #16]
 8006e96:	f8d4 31ec 	ldreq.w	r3, [r4, #492]	; 0x1ec
 8006e9a:	60eb      	streq	r3, [r5, #12]
 8006e9c:	4a1c      	ldr	r2, [pc, #112]	; (8006f10 <find_volume+0x254>)
 8006e9e:	4620      	mov	r0, r4
 8006ea0:	8813      	ldrh	r3, [r2, #0]
 8006ea2:	702f      	strb	r7, [r5, #0]
 8006ea4:	3301      	adds	r3, #1
 8006ea6:	b29b      	uxth	r3, r3
 8006ea8:	80eb      	strh	r3, [r5, #6]
 8006eaa:	8013      	strh	r3, [r2, #0]
 8006eac:	f7ff fe30 	bl	8006b10 <clear_lock>
 8006eb0:	e725      	b.n	8006cfe <find_volume+0x42>
 8006eb2:	2002      	movs	r0, #2
 8006eb4:	f109 0901 	add.w	r9, r9, #1
 8006eb8:	f1b9 0f04 	cmp.w	r9, #4
 8006ebc:	f47f af58 	bne.w	8006d70 <find_volume+0xb4>
 8006ec0:	2803      	cmp	r0, #3
 8006ec2:	d104      	bne.n	8006ece <find_volume+0x212>
 8006ec4:	e734      	b.n	8006d30 <find_volume+0x74>
 8006ec6:	2803      	cmp	r0, #3
 8006ec8:	f43f af32 	beq.w	8006d30 <find_volume+0x74>
 8006ecc:	b108      	cbz	r0, 8006ed2 <find_volume+0x216>
 8006ece:	260d      	movs	r6, #13
 8006ed0:	e715      	b.n	8006cfe <find_volume+0x42>
 8006ed2:	46b0      	mov	r8, r6
 8006ed4:	e759      	b.n	8006d8a <find_volume+0xce>
 8006ed6:	2701      	movs	r7, #1
 8006ed8:	e79d      	b.n	8006e16 <find_volume+0x15a>
 8006eda:	f1b9 0f00 	cmp.w	r9, #0
 8006ede:	d0f6      	beq.n	8006ece <find_volume+0x212>
 8006ee0:	2f02      	cmp	r7, #2
 8006ee2:	ea4f 0243 	mov.w	r2, r3, lsl #1
 8006ee6:	bf1a      	itte	ne
 8006ee8:	18d2      	addne	r2, r2, r3
 8006eea:	f003 0301 	andne.w	r3, r3, #1
 8006eee:	4613      	moveq	r3, r2
 8006ef0:	4470      	add	r0, lr
 8006ef2:	bf18      	it	ne
 8006ef4:	eb03 0352 	addne.w	r3, r3, r2, lsr #1
 8006ef8:	e79d      	b.n	8006e36 <find_volume+0x17a>
 8006efa:	260b      	movs	r6, #11
 8006efc:	e6ff      	b.n	8006cfe <find_volume+0x42>
 8006efe:	260c      	movs	r6, #12
 8006f00:	e6fd      	b.n	8006cfe <find_volume+0x42>
 8006f02:	2603      	movs	r6, #3
 8006f04:	e6fb      	b.n	8006cfe <find_volume+0x42>
 8006f06:	bf00      	nop
 8006f08:	20002608 	.word	0x20002608
 8006f0c:	41615252 	.word	0x41615252
 8006f10:	20002624 	.word	0x20002624

08006f14 <sync_fs>:
 8006f14:	b570      	push	{r4, r5, r6, lr}
 8006f16:	4605      	mov	r5, r0
 8006f18:	f7ff fe85 	bl	8006c26 <sync_window>
 8006f1c:	4606      	mov	r6, r0
 8006f1e:	bb78      	cbnz	r0, 8006f80 <sync_fs+0x6c>
 8006f20:	f505 5480 	add.w	r4, r5, #4096	; 0x1000
 8006f24:	7823      	ldrb	r3, [r4, #0]
 8006f26:	2b03      	cmp	r3, #3
 8006f28:	d122      	bne.n	8006f70 <sync_fs+0x5c>
 8006f2a:	7963      	ldrb	r3, [r4, #5]
 8006f2c:	2b01      	cmp	r3, #1
 8006f2e:	d11f      	bne.n	8006f70 <sync_fs+0x5c>
 8006f30:	4601      	mov	r1, r0
 8006f32:	8962      	ldrh	r2, [r4, #10]
 8006f34:	4628      	mov	r0, r5
 8006f36:	f7ff fd5d 	bl	80069f4 <mem_set>
 8006f3a:	f64a 2255 	movw	r2, #43605	; 0xaa55
 8006f3e:	f8a5 21fe 	strh.w	r2, [r5, #510]	; 0x1fe
 8006f42:	4a10      	ldr	r2, [pc, #64]	; (8006f84 <sync_fs+0x70>)
 8006f44:	4629      	mov	r1, r5
 8006f46:	602a      	str	r2, [r5, #0]
 8006f48:	f102 52ff 	add.w	r2, r2, #534773760	; 0x1fe00000
 8006f4c:	f502 5200 	add.w	r2, r2, #8192	; 0x2000
 8006f50:	3220      	adds	r2, #32
 8006f52:	f8c5 21e4 	str.w	r2, [r5, #484]	; 0x1e4
 8006f56:	6922      	ldr	r2, [r4, #16]
 8006f58:	f8c5 21e8 	str.w	r2, [r5, #488]	; 0x1e8
 8006f5c:	68e2      	ldr	r2, [r4, #12]
 8006f5e:	f8c5 21ec 	str.w	r2, [r5, #492]	; 0x1ec
 8006f62:	69e2      	ldr	r2, [r4, #28]
 8006f64:	7860      	ldrb	r0, [r4, #1]
 8006f66:	3201      	adds	r2, #1
 8006f68:	62e2      	str	r2, [r4, #44]	; 0x2c
 8006f6a:	f7ff fd1f 	bl	80069ac <disk_write>
 8006f6e:	7166      	strb	r6, [r4, #5]
 8006f70:	2200      	movs	r2, #0
 8006f72:	7860      	ldrb	r0, [r4, #1]
 8006f74:	4611      	mov	r1, r2
 8006f76:	f7ff fd27 	bl	80069c8 <disk_ioctl>
 8006f7a:	3800      	subs	r0, #0
 8006f7c:	bf18      	it	ne
 8006f7e:	2001      	movne	r0, #1
 8006f80:	bd70      	pop	{r4, r5, r6, pc}
 8006f82:	bf00      	nop
 8006f84:	41615252 	.word	0x41615252

08006f88 <ld_clust.isra.0>:
 8006f88:	2803      	cmp	r0, #3
 8006f8a:	8b4b      	ldrh	r3, [r1, #26]
 8006f8c:	bf04      	itt	eq
 8006f8e:	8a8a      	ldrheq	r2, [r1, #20]
 8006f90:	ea43 4302 	orreq.w	r3, r3, r2, lsl #16
 8006f94:	4618      	mov	r0, r3
 8006f96:	4770      	bx	lr

08006f98 <clust2sect>:
 8006f98:	f500 5080 	add.w	r0, r0, #4096	; 0x1000
 8006f9c:	6943      	ldr	r3, [r0, #20]
 8006f9e:	3902      	subs	r1, #2
 8006fa0:	3b02      	subs	r3, #2
 8006fa2:	428b      	cmp	r3, r1
 8006fa4:	bf83      	ittte	hi
 8006fa6:	7883      	ldrbhi	r3, [r0, #2]
 8006fa8:	6a80      	ldrhi	r0, [r0, #40]	; 0x28
 8006faa:	fb01 0003 	mlahi	r0, r1, r3, r0
 8006fae:	2000      	movls	r0, #0
 8006fb0:	4770      	bx	lr

08006fb2 <get_fat>:
 8006fb2:	2901      	cmp	r1, #1
 8006fb4:	e92d 41f0 	stmdb	sp!, {r4, r5, r6, r7, r8, lr}
 8006fb8:	4606      	mov	r6, r0
 8006fba:	460d      	mov	r5, r1
 8006fbc:	d96d      	bls.n	800709a <get_fat+0xe8>
 8006fbe:	f500 5780 	add.w	r7, r0, #4096	; 0x1000
 8006fc2:	697b      	ldr	r3, [r7, #20]
 8006fc4:	428b      	cmp	r3, r1
 8006fc6:	d968      	bls.n	800709a <get_fat+0xe8>
 8006fc8:	783b      	ldrb	r3, [r7, #0]
 8006fca:	2b02      	cmp	r3, #2
 8006fcc:	d031      	beq.n	8007032 <get_fat+0x80>
 8006fce:	2b03      	cmp	r3, #3
 8006fd0:	d045      	beq.n	800705e <get_fat+0xac>
 8006fd2:	2b01      	cmp	r3, #1
 8006fd4:	d161      	bne.n	800709a <get_fat+0xe8>
 8006fd6:	897b      	ldrh	r3, [r7, #10]
 8006fd8:	eb01 0451 	add.w	r4, r1, r1, lsr #1
 8006fdc:	fbb4 f3f3 	udiv	r3, r4, r3
 8006fe0:	6a39      	ldr	r1, [r7, #32]
 8006fe2:	4419      	add	r1, r3
 8006fe4:	f7ff fe27 	bl	8006c36 <move_window>
 8006fe8:	b118      	cbz	r0, 8006ff2 <get_fat+0x40>
 8006fea:	f04f 30ff 	mov.w	r0, #4294967295
 8006fee:	e8bd 81f0 	ldmia.w	sp!, {r4, r5, r6, r7, r8, pc}
 8006ff2:	8979      	ldrh	r1, [r7, #10]
 8006ff4:	f104 0801 	add.w	r8, r4, #1
 8006ff8:	fbb4 f3f1 	udiv	r3, r4, r1
 8006ffc:	fb01 4413 	mls	r4, r1, r3, r4
 8007000:	fbb8 f1f1 	udiv	r1, r8, r1
 8007004:	6a3b      	ldr	r3, [r7, #32]
 8007006:	4630      	mov	r0, r6
 8007008:	4419      	add	r1, r3
 800700a:	5d34      	ldrb	r4, [r6, r4]
 800700c:	f7ff fe13 	bl	8006c36 <move_window>
 8007010:	2800      	cmp	r0, #0
 8007012:	d1ea      	bne.n	8006fea <get_fat+0x38>
 8007014:	897b      	ldrh	r3, [r7, #10]
 8007016:	fbb8 f2f3 	udiv	r2, r8, r3
 800701a:	fb03 8812 	mls	r8, r3, r2, r8
 800701e:	f816 3008 	ldrb.w	r3, [r6, r8]
 8007022:	ea44 2003 	orr.w	r0, r4, r3, lsl #8
 8007026:	07eb      	lsls	r3, r5, #31
 8007028:	bf4c      	ite	mi
 800702a:	0900      	lsrmi	r0, r0, #4
 800702c:	f3c0 000b 	ubfxpl	r0, r0, #0, #12
 8007030:	e7dd      	b.n	8006fee <get_fat+0x3c>
 8007032:	897b      	ldrh	r3, [r7, #10]
 8007034:	085b      	lsrs	r3, r3, #1
 8007036:	fbb1 f3f3 	udiv	r3, r1, r3
 800703a:	6a39      	ldr	r1, [r7, #32]
 800703c:	4419      	add	r1, r3
 800703e:	f7ff fdfa 	bl	8006c36 <move_window>
 8007042:	2800      	cmp	r0, #0
 8007044:	d1d1      	bne.n	8006fea <get_fat+0x38>
 8007046:	897b      	ldrh	r3, [r7, #10]
 8007048:	006d      	lsls	r5, r5, #1
 800704a:	fbb5 f2f3 	udiv	r2, r5, r3
 800704e:	fb03 5512 	mls	r5, r3, r2, r5
 8007052:	1973      	adds	r3, r6, r5
 8007054:	785b      	ldrb	r3, [r3, #1]
 8007056:	5d70      	ldrb	r0, [r6, r5]
 8007058:	ea40 2003 	orr.w	r0, r0, r3, lsl #8
 800705c:	e7c7      	b.n	8006fee <get_fat+0x3c>
 800705e:	897b      	ldrh	r3, [r7, #10]
 8007060:	089b      	lsrs	r3, r3, #2
 8007062:	fbb1 f3f3 	udiv	r3, r1, r3
 8007066:	6a39      	ldr	r1, [r7, #32]
 8007068:	4419      	add	r1, r3
 800706a:	f7ff fde4 	bl	8006c36 <move_window>
 800706e:	2800      	cmp	r0, #0
 8007070:	d1bb      	bne.n	8006fea <get_fat+0x38>
 8007072:	897b      	ldrh	r3, [r7, #10]
 8007074:	00ad      	lsls	r5, r5, #2
 8007076:	fbb5 f2f3 	udiv	r2, r5, r3
 800707a:	fb03 5512 	mls	r5, r3, r2, r5
 800707e:	1973      	adds	r3, r6, r5
 8007080:	7898      	ldrb	r0, [r3, #2]
 8007082:	78da      	ldrb	r2, [r3, #3]
 8007084:	0400      	lsls	r0, r0, #16
 8007086:	ea40 6002 	orr.w	r0, r0, r2, lsl #24
 800708a:	5d72      	ldrb	r2, [r6, r5]
 800708c:	785b      	ldrb	r3, [r3, #1]
 800708e:	4310      	orrs	r0, r2
 8007090:	ea40 2003 	orr.w	r0, r0, r3, lsl #8
 8007094:	f020 4070 	bic.w	r0, r0, #4026531840	; 0xf0000000
 8007098:	e7a9      	b.n	8006fee <get_fat+0x3c>
 800709a:	2001      	movs	r0, #1
 800709c:	e7a7      	b.n	8006fee <get_fat+0x3c>

0800709e <dir_sdi>:
 800709e:	b570      	push	{r4, r5, r6, lr}
 80070a0:	f500 5480 	add.w	r4, r0, #4096	; 0x1000
 80070a4:	68a2      	ldr	r2, [r4, #8]
 80070a6:	460d      	mov	r5, r1
 80070a8:	2a01      	cmp	r2, #1
 80070aa:	80e1      	strh	r1, [r4, #6]
 80070ac:	d101      	bne.n	80070b2 <dir_sdi+0x14>
 80070ae:	2002      	movs	r0, #2
 80070b0:	bd70      	pop	{r4, r5, r6, pc}
 80070b2:	6823      	ldr	r3, [r4, #0]
 80070b4:	f503 5380 	add.w	r3, r3, #4096	; 0x1000
 80070b8:	6959      	ldr	r1, [r3, #20]
 80070ba:	4291      	cmp	r1, r2
 80070bc:	d9f7      	bls.n	80070ae <dir_sdi+0x10>
 80070be:	b9da      	cbnz	r2, 80070f8 <dir_sdi+0x5a>
 80070c0:	7819      	ldrb	r1, [r3, #0]
 80070c2:	2903      	cmp	r1, #3
 80070c4:	d101      	bne.n	80070ca <dir_sdi+0x2c>
 80070c6:	6a59      	ldr	r1, [r3, #36]	; 0x24
 80070c8:	b9b9      	cbnz	r1, 80070fa <dir_sdi+0x5c>
 80070ca:	8919      	ldrh	r1, [r3, #8]
 80070cc:	42a9      	cmp	r1, r5
 80070ce:	d9ee      	bls.n	80070ae <dir_sdi+0x10>
 80070d0:	6a58      	ldr	r0, [r3, #36]	; 0x24
 80070d2:	60e2      	str	r2, [r4, #12]
 80070d4:	2800      	cmp	r0, #0
 80070d6:	d0ea      	beq.n	80070ae <dir_sdi+0x10>
 80070d8:	6823      	ldr	r3, [r4, #0]
 80070da:	f503 5280 	add.w	r2, r3, #4096	; 0x1000
 80070de:	8952      	ldrh	r2, [r2, #10]
 80070e0:	0952      	lsrs	r2, r2, #5
 80070e2:	fbb5 f1f2 	udiv	r1, r5, r2
 80070e6:	fb02 5511 	mls	r5, r2, r1, r5
 80070ea:	4408      	add	r0, r1
 80070ec:	eb03 1345 	add.w	r3, r3, r5, lsl #5
 80070f0:	6120      	str	r0, [r4, #16]
 80070f2:	6163      	str	r3, [r4, #20]
 80070f4:	2000      	movs	r0, #0
 80070f6:	e7db      	b.n	80070b0 <dir_sdi+0x12>
 80070f8:	4611      	mov	r1, r2
 80070fa:	460a      	mov	r2, r1
 80070fc:	895e      	ldrh	r6, [r3, #10]
 80070fe:	789b      	ldrb	r3, [r3, #2]
 8007100:	0976      	lsrs	r6, r6, #5
 8007102:	435e      	muls	r6, r3
 8007104:	42b5      	cmp	r5, r6
 8007106:	4611      	mov	r1, r2
 8007108:	6820      	ldr	r0, [r4, #0]
 800710a:	d202      	bcs.n	8007112 <dir_sdi+0x74>
 800710c:	f7ff ff44 	bl	8006f98 <clust2sect>
 8007110:	e7df      	b.n	80070d2 <dir_sdi+0x34>
 8007112:	f7ff ff4e 	bl	8006fb2 <get_fat>
 8007116:	1c43      	adds	r3, r0, #1
 8007118:	4602      	mov	r2, r0
 800711a:	d009      	beq.n	8007130 <dir_sdi+0x92>
 800711c:	2801      	cmp	r0, #1
 800711e:	d9c6      	bls.n	80070ae <dir_sdi+0x10>
 8007120:	6823      	ldr	r3, [r4, #0]
 8007122:	f503 5380 	add.w	r3, r3, #4096	; 0x1000
 8007126:	695b      	ldr	r3, [r3, #20]
 8007128:	4283      	cmp	r3, r0
 800712a:	d9c0      	bls.n	80070ae <dir_sdi+0x10>
 800712c:	1bad      	subs	r5, r5, r6
 800712e:	e7e9      	b.n	8007104 <dir_sdi+0x66>
 8007130:	2001      	movs	r0, #1
 8007132:	e7bd      	b.n	80070b0 <dir_sdi+0x12>

08007134 <put_fat>:
 8007134:	2901      	cmp	r1, #1
 8007136:	e92d 43f8 	stmdb	sp!, {r3, r4, r5, r6, r7, r8, r9, lr}
 800713a:	4606      	mov	r6, r0
 800713c:	460c      	mov	r4, r1
 800713e:	4617      	mov	r7, r2
 8007140:	f240 8082 	bls.w	8007248 <put_fat+0x114>
 8007144:	f500 5580 	add.w	r5, r0, #4096	; 0x1000
 8007148:	696b      	ldr	r3, [r5, #20]
 800714a:	428b      	cmp	r3, r1
 800714c:	d97c      	bls.n	8007248 <put_fat+0x114>
 800714e:	782b      	ldrb	r3, [r5, #0]
 8007150:	2b02      	cmp	r3, #2
 8007152:	d043      	beq.n	80071dc <put_fat+0xa8>
 8007154:	2b03      	cmp	r3, #3
 8007156:	d057      	beq.n	8007208 <put_fat+0xd4>
 8007158:	2b01      	cmp	r3, #1
 800715a:	d175      	bne.n	8007248 <put_fat+0x114>
 800715c:	896b      	ldrh	r3, [r5, #10]
 800715e:	eb01 0851 	add.w	r8, r1, r1, lsr #1
 8007162:	fbb8 f3f3 	udiv	r3, r8, r3
 8007166:	6a29      	ldr	r1, [r5, #32]
 8007168:	4419      	add	r1, r3
 800716a:	f7ff fd64 	bl	8006c36 <move_window>
 800716e:	bb58      	cbnz	r0, 80071c8 <put_fat+0x94>
 8007170:	8969      	ldrh	r1, [r5, #10]
 8007172:	f108 0901 	add.w	r9, r8, #1
 8007176:	fbb8 f3f1 	udiv	r3, r8, r1
 800717a:	fb01 8813 	mls	r8, r1, r3, r8
 800717e:	f014 0401 	ands.w	r4, r4, #1
 8007182:	bf1f      	itttt	ne
 8007184:	f816 2008 	ldrbne.w	r2, [r6, r8]
 8007188:	013b      	lslne	r3, r7, #4
 800718a:	f003 03f0 	andne.w	r3, r3, #240	; 0xf0
 800718e:	f002 020f 	andne.w	r2, r2, #15
 8007192:	bf14      	ite	ne
 8007194:	4313      	orrne	r3, r2
 8007196:	b2fb      	uxtbeq	r3, r7
 8007198:	f806 3008 	strb.w	r3, [r6, r8]
 800719c:	2301      	movs	r3, #1
 800719e:	fbb9 f1f1 	udiv	r1, r9, r1
 80071a2:	712b      	strb	r3, [r5, #4]
 80071a4:	6a2b      	ldr	r3, [r5, #32]
 80071a6:	4630      	mov	r0, r6
 80071a8:	4419      	add	r1, r3
 80071aa:	f7ff fd44 	bl	8006c36 <move_window>
 80071ae:	b958      	cbnz	r0, 80071c8 <put_fat+0x94>
 80071b0:	896b      	ldrh	r3, [r5, #10]
 80071b2:	fbb9 f2f3 	udiv	r2, r9, r3
 80071b6:	fb03 9912 	mls	r9, r3, r2, r9
 80071ba:	b13c      	cbz	r4, 80071cc <put_fat+0x98>
 80071bc:	f3c7 1707 	ubfx	r7, r7, #4, #8
 80071c0:	f806 7009 	strb.w	r7, [r6, r9]
 80071c4:	2301      	movs	r3, #1
 80071c6:	712b      	strb	r3, [r5, #4]
 80071c8:	e8bd 83f8 	ldmia.w	sp!, {r3, r4, r5, r6, r7, r8, r9, pc}
 80071cc:	f816 3009 	ldrb.w	r3, [r6, r9]
 80071d0:	f3c7 2703 	ubfx	r7, r7, #8, #4
 80071d4:	f023 030f 	bic.w	r3, r3, #15
 80071d8:	431f      	orrs	r7, r3
 80071da:	e7f1      	b.n	80071c0 <put_fat+0x8c>
 80071dc:	896b      	ldrh	r3, [r5, #10]
 80071de:	085b      	lsrs	r3, r3, #1
 80071e0:	fbb1 f3f3 	udiv	r3, r1, r3
 80071e4:	6a29      	ldr	r1, [r5, #32]
 80071e6:	4419      	add	r1, r3
 80071e8:	f7ff fd25 	bl	8006c36 <move_window>
 80071ec:	2800      	cmp	r0, #0
 80071ee:	d1eb      	bne.n	80071c8 <put_fat+0x94>
 80071f0:	896b      	ldrh	r3, [r5, #10]
 80071f2:	0064      	lsls	r4, r4, #1
 80071f4:	fbb4 f2f3 	udiv	r2, r4, r3
 80071f8:	fb03 4412 	mls	r4, r3, r2, r4
 80071fc:	5537      	strb	r7, [r6, r4]
 80071fe:	4434      	add	r4, r6
 8007200:	f3c7 2707 	ubfx	r7, r7, #8, #8
 8007204:	7067      	strb	r7, [r4, #1]
 8007206:	e7dd      	b.n	80071c4 <put_fat+0x90>
 8007208:	896b      	ldrh	r3, [r5, #10]
 800720a:	089b      	lsrs	r3, r3, #2
 800720c:	fbb1 f3f3 	udiv	r3, r1, r3
 8007210:	6a29      	ldr	r1, [r5, #32]
 8007212:	4419      	add	r1, r3
 8007214:	f7ff fd0f 	bl	8006c36 <move_window>
 8007218:	2800      	cmp	r0, #0
 800721a:	d1d5      	bne.n	80071c8 <put_fat+0x94>
 800721c:	896b      	ldrh	r3, [r5, #10]
 800721e:	00a4      	lsls	r4, r4, #2
 8007220:	fbb4 f2f3 	udiv	r2, r4, r3
 8007224:	fb03 4412 	mls	r4, r3, r2, r4
 8007228:	1931      	adds	r1, r6, r4
 800722a:	78cb      	ldrb	r3, [r1, #3]
 800722c:	061b      	lsls	r3, r3, #24
 800722e:	f003 4370 	and.w	r3, r3, #4026531840	; 0xf0000000
 8007232:	ea43 0207 	orr.w	r2, r3, r7
 8007236:	f3c2 2307 	ubfx	r3, r2, #8, #8
 800723a:	5532      	strb	r2, [r6, r4]
 800723c:	704b      	strb	r3, [r1, #1]
 800723e:	0c13      	lsrs	r3, r2, #16
 8007240:	0e12      	lsrs	r2, r2, #24
 8007242:	708b      	strb	r3, [r1, #2]
 8007244:	70ca      	strb	r2, [r1, #3]
 8007246:	e7bd      	b.n	80071c4 <put_fat+0x90>
 8007248:	2002      	movs	r0, #2
 800724a:	e7bd      	b.n	80071c8 <put_fat+0x94>

0800724c <create_chain>:
 800724c:	e92d 41f0 	stmdb	sp!, {r4, r5, r6, r7, r8, lr}
 8007250:	4606      	mov	r6, r0
 8007252:	4688      	mov	r8, r1
 8007254:	b991      	cbnz	r1, 800727c <create_chain+0x30>
 8007256:	f500 5380 	add.w	r3, r0, #4096	; 0x1000
 800725a:	68dd      	ldr	r5, [r3, #12]
 800725c:	b305      	cbz	r5, 80072a0 <create_chain+0x54>
 800725e:	695b      	ldr	r3, [r3, #20]
 8007260:	429d      	cmp	r5, r3
 8007262:	bf28      	it	cs
 8007264:	2501      	movcs	r5, #1
 8007266:	462c      	mov	r4, r5
 8007268:	f506 5780 	add.w	r7, r6, #4096	; 0x1000
 800726c:	697b      	ldr	r3, [r7, #20]
 800726e:	3401      	adds	r4, #1
 8007270:	42a3      	cmp	r3, r4
 8007272:	d818      	bhi.n	80072a6 <create_chain+0x5a>
 8007274:	2d01      	cmp	r5, #1
 8007276:	d115      	bne.n	80072a4 <create_chain+0x58>
 8007278:	2400      	movs	r4, #0
 800727a:	e005      	b.n	8007288 <create_chain+0x3c>
 800727c:	f7ff fe99 	bl	8006fb2 <get_fat>
 8007280:	2801      	cmp	r0, #1
 8007282:	4604      	mov	r4, r0
 8007284:	d803      	bhi.n	800728e <create_chain+0x42>
 8007286:	2401      	movs	r4, #1
 8007288:	4620      	mov	r0, r4
 800728a:	e8bd 81f0 	ldmia.w	sp!, {r4, r5, r6, r7, r8, pc}
 800728e:	1c60      	adds	r0, r4, #1
 8007290:	d033      	beq.n	80072fa <create_chain+0xae>
 8007292:	f506 5380 	add.w	r3, r6, #4096	; 0x1000
 8007296:	695b      	ldr	r3, [r3, #20]
 8007298:	42a3      	cmp	r3, r4
 800729a:	d8f5      	bhi.n	8007288 <create_chain+0x3c>
 800729c:	4645      	mov	r5, r8
 800729e:	e7e2      	b.n	8007266 <create_chain+0x1a>
 80072a0:	2501      	movs	r5, #1
 80072a2:	e7e0      	b.n	8007266 <create_chain+0x1a>
 80072a4:	2402      	movs	r4, #2
 80072a6:	4621      	mov	r1, r4
 80072a8:	4630      	mov	r0, r6
 80072aa:	f7ff fe82 	bl	8006fb2 <get_fat>
 80072ae:	b130      	cbz	r0, 80072be <create_chain+0x72>
 80072b0:	1c41      	adds	r1, r0, #1
 80072b2:	d022      	beq.n	80072fa <create_chain+0xae>
 80072b4:	2801      	cmp	r0, #1
 80072b6:	d0e6      	beq.n	8007286 <create_chain+0x3a>
 80072b8:	42ac      	cmp	r4, r5
 80072ba:	d1d7      	bne.n	800726c <create_chain+0x20>
 80072bc:	e7dc      	b.n	8007278 <create_chain+0x2c>
 80072be:	f06f 4270 	mvn.w	r2, #4026531840	; 0xf0000000
 80072c2:	4621      	mov	r1, r4
 80072c4:	4630      	mov	r0, r6
 80072c6:	f7ff ff35 	bl	8007134 <put_fat>
 80072ca:	b9a0      	cbnz	r0, 80072f6 <create_chain+0xaa>
 80072cc:	f1b8 0f00 	cmp.w	r8, #0
 80072d0:	d10a      	bne.n	80072e8 <create_chain+0x9c>
 80072d2:	693b      	ldr	r3, [r7, #16]
 80072d4:	60fc      	str	r4, [r7, #12]
 80072d6:	1c5a      	adds	r2, r3, #1
 80072d8:	d0d6      	beq.n	8007288 <create_chain+0x3c>
 80072da:	3b01      	subs	r3, #1
 80072dc:	613b      	str	r3, [r7, #16]
 80072de:	797b      	ldrb	r3, [r7, #5]
 80072e0:	f043 0301 	orr.w	r3, r3, #1
 80072e4:	717b      	strb	r3, [r7, #5]
 80072e6:	e7cf      	b.n	8007288 <create_chain+0x3c>
 80072e8:	4622      	mov	r2, r4
 80072ea:	4641      	mov	r1, r8
 80072ec:	4630      	mov	r0, r6
 80072ee:	f7ff ff21 	bl	8007134 <put_fat>
 80072f2:	2800      	cmp	r0, #0
 80072f4:	d0ed      	beq.n	80072d2 <create_chain+0x86>
 80072f6:	2801      	cmp	r0, #1
 80072f8:	d1c5      	bne.n	8007286 <create_chain+0x3a>
 80072fa:	f04f 34ff 	mov.w	r4, #4294967295
 80072fe:	e7c3      	b.n	8007288 <create_chain+0x3c>

08007300 <dir_next>:
 8007300:	e92d 41f0 	stmdb	sp!, {r4, r5, r6, r7, r8, lr}
 8007304:	f500 5480 	add.w	r4, r0, #4096	; 0x1000
 8007308:	88e6      	ldrh	r6, [r4, #6]
 800730a:	4688      	mov	r8, r1
 800730c:	3601      	adds	r6, #1
 800730e:	b2b3      	uxth	r3, r6
 8007310:	b913      	cbnz	r3, 8007318 <dir_next+0x18>
 8007312:	2004      	movs	r0, #4
 8007314:	e8bd 81f0 	ldmia.w	sp!, {r4, r5, r6, r7, r8, pc}
 8007318:	6922      	ldr	r2, [r4, #16]
 800731a:	2a00      	cmp	r2, #0
 800731c:	d0f9      	beq.n	8007312 <dir_next+0x12>
 800731e:	6820      	ldr	r0, [r4, #0]
 8007320:	f500 5780 	add.w	r7, r0, #4096	; 0x1000
 8007324:	897b      	ldrh	r3, [r7, #10]
 8007326:	095b      	lsrs	r3, r3, #5
 8007328:	fbb6 f5f3 	udiv	r5, r6, r3
 800732c:	fb03 6315 	mls	r3, r3, r5, r6
 8007330:	b933      	cbnz	r3, 8007340 <dir_next+0x40>
 8007332:	68e1      	ldr	r1, [r4, #12]
 8007334:	3201      	adds	r2, #1
 8007336:	6122      	str	r2, [r4, #16]
 8007338:	b989      	cbnz	r1, 800735e <dir_next+0x5e>
 800733a:	893b      	ldrh	r3, [r7, #8]
 800733c:	42b3      	cmp	r3, r6
 800733e:	d9e8      	bls.n	8007312 <dir_next+0x12>
 8007340:	6823      	ldr	r3, [r4, #0]
 8007342:	80e6      	strh	r6, [r4, #6]
 8007344:	f503 5280 	add.w	r2, r3, #4096	; 0x1000
 8007348:	8952      	ldrh	r2, [r2, #10]
 800734a:	2000      	movs	r0, #0
 800734c:	0952      	lsrs	r2, r2, #5
 800734e:	fbb6 f1f2 	udiv	r1, r6, r2
 8007352:	fb02 6611 	mls	r6, r2, r1, r6
 8007356:	eb03 1346 	add.w	r3, r3, r6, lsl #5
 800735a:	6163      	str	r3, [r4, #20]
 800735c:	e7da      	b.n	8007314 <dir_next+0x14>
 800735e:	78bf      	ldrb	r7, [r7, #2]
 8007360:	3f01      	subs	r7, #1
 8007362:	402f      	ands	r7, r5
 8007364:	d1ec      	bne.n	8007340 <dir_next+0x40>
 8007366:	f7ff fe24 	bl	8006fb2 <get_fat>
 800736a:	2801      	cmp	r0, #1
 800736c:	4605      	mov	r5, r0
 800736e:	d801      	bhi.n	8007374 <dir_next+0x74>
 8007370:	2002      	movs	r0, #2
 8007372:	e7cf      	b.n	8007314 <dir_next+0x14>
 8007374:	1c42      	adds	r2, r0, #1
 8007376:	d101      	bne.n	800737c <dir_next+0x7c>
 8007378:	2001      	movs	r0, #1
 800737a:	e7cb      	b.n	8007314 <dir_next+0x14>
 800737c:	6820      	ldr	r0, [r4, #0]
 800737e:	f500 5380 	add.w	r3, r0, #4096	; 0x1000
 8007382:	695b      	ldr	r3, [r3, #20]
 8007384:	42ab      	cmp	r3, r5
 8007386:	d82b      	bhi.n	80073e0 <dir_next+0xe0>
 8007388:	f1b8 0f00 	cmp.w	r8, #0
 800738c:	d0c1      	beq.n	8007312 <dir_next+0x12>
 800738e:	68e1      	ldr	r1, [r4, #12]
 8007390:	f7ff ff5c 	bl	800724c <create_chain>
 8007394:	4605      	mov	r5, r0
 8007396:	2800      	cmp	r0, #0
 8007398:	d037      	beq.n	800740a <dir_next+0x10a>
 800739a:	2801      	cmp	r0, #1
 800739c:	d0e8      	beq.n	8007370 <dir_next+0x70>
 800739e:	1c43      	adds	r3, r0, #1
 80073a0:	d0ea      	beq.n	8007378 <dir_next+0x78>
 80073a2:	6820      	ldr	r0, [r4, #0]
 80073a4:	f7ff fc3f 	bl	8006c26 <sync_window>
 80073a8:	4601      	mov	r1, r0
 80073aa:	2800      	cmp	r0, #0
 80073ac:	d1e4      	bne.n	8007378 <dir_next+0x78>
 80073ae:	6820      	ldr	r0, [r4, #0]
 80073b0:	f04f 0801 	mov.w	r8, #1
 80073b4:	f500 5380 	add.w	r3, r0, #4096	; 0x1000
 80073b8:	895a      	ldrh	r2, [r3, #10]
 80073ba:	f7ff fb1b 	bl	80069f4 <mem_set>
 80073be:	6822      	ldr	r2, [r4, #0]
 80073c0:	4629      	mov	r1, r5
 80073c2:	4610      	mov	r0, r2
 80073c4:	f7ff fde8 	bl	8006f98 <clust2sect>
 80073c8:	f502 5280 	add.w	r2, r2, #4096	; 0x1000
 80073cc:	62d0      	str	r0, [r2, #44]	; 0x2c
 80073ce:	6820      	ldr	r0, [r4, #0]
 80073d0:	f500 5380 	add.w	r3, r0, #4096	; 0x1000
 80073d4:	789a      	ldrb	r2, [r3, #2]
 80073d6:	42ba      	cmp	r2, r7
 80073d8:	d809      	bhi.n	80073ee <dir_next+0xee>
 80073da:	6ada      	ldr	r2, [r3, #44]	; 0x2c
 80073dc:	1bd2      	subs	r2, r2, r7
 80073de:	62da      	str	r2, [r3, #44]	; 0x2c
 80073e0:	4629      	mov	r1, r5
 80073e2:	6820      	ldr	r0, [r4, #0]
 80073e4:	60e5      	str	r5, [r4, #12]
 80073e6:	f7ff fdd7 	bl	8006f98 <clust2sect>
 80073ea:	6120      	str	r0, [r4, #16]
 80073ec:	e7a8      	b.n	8007340 <dir_next+0x40>
 80073ee:	f883 8004 	strb.w	r8, [r3, #4]
 80073f2:	f7ff fbef 	bl	8006bd4 <sync_window.part.0>
 80073f6:	2800      	cmp	r0, #0
 80073f8:	d1be      	bne.n	8007378 <dir_next+0x78>
 80073fa:	6823      	ldr	r3, [r4, #0]
 80073fc:	3701      	adds	r7, #1
 80073fe:	f503 5380 	add.w	r3, r3, #4096	; 0x1000
 8007402:	6ada      	ldr	r2, [r3, #44]	; 0x2c
 8007404:	3201      	adds	r2, #1
 8007406:	62da      	str	r2, [r3, #44]	; 0x2c
 8007408:	e7e1      	b.n	80073ce <dir_next+0xce>
 800740a:	2007      	movs	r0, #7
 800740c:	e782      	b.n	8007314 <dir_next+0x14>
	...

08007410 <dir_find>:
 8007410:	e92d 4ff0 	stmdb	sp!, {r4, r5, r6, r7, r8, r9, sl, fp, lr}
 8007414:	2100      	movs	r1, #0
 8007416:	b085      	sub	sp, #20
 8007418:	4680      	mov	r8, r0
 800741a:	f7ff fe40 	bl	800709e <dir_sdi>
 800741e:	4606      	mov	r6, r0
 8007420:	2800      	cmp	r0, #0
 8007422:	d167      	bne.n	80074f4 <dir_find+0xe4>
 8007424:	f04f 09ff 	mov.w	r9, #255	; 0xff
 8007428:	f64f 7aff 	movw	sl, #65535	; 0xffff
 800742c:	464c      	mov	r4, r9
 800742e:	f508 5780 	add.w	r7, r8, #4096	; 0x1000
 8007432:	f8a7 a024 	strh.w	sl, [r7, #36]	; 0x24
 8007436:	6939      	ldr	r1, [r7, #16]
 8007438:	6838      	ldr	r0, [r7, #0]
 800743a:	f7ff fbfc 	bl	8006c36 <move_window>
 800743e:	4606      	mov	r6, r0
 8007440:	2800      	cmp	r0, #0
 8007442:	d157      	bne.n	80074f4 <dir_find+0xe4>
 8007444:	697d      	ldr	r5, [r7, #20]
 8007446:	782a      	ldrb	r2, [r5, #0]
 8007448:	2a00      	cmp	r2, #0
 800744a:	d074      	beq.n	8007536 <dir_find+0x126>
 800744c:	2ae5      	cmp	r2, #229	; 0xe5
 800744e:	7ae9      	ldrb	r1, [r5, #11]
 8007450:	d005      	beq.n	800745e <dir_find+0x4e>
 8007452:	0708      	lsls	r0, r1, #28
 8007454:	f001 033f 	and.w	r3, r1, #63	; 0x3f
 8007458:	d504      	bpl.n	8007464 <dir_find+0x54>
 800745a:	2b0f      	cmp	r3, #15
 800745c:	d004      	beq.n	8007468 <dir_find+0x58>
 800745e:	f8a7 a024 	strh.w	sl, [r7, #36]	; 0x24
 8007462:	e04d      	b.n	8007500 <dir_find+0xf0>
 8007464:	2b0f      	cmp	r3, #15
 8007466:	d150      	bne.n	800750a <dir_find+0xfa>
 8007468:	6a3b      	ldr	r3, [r7, #32]
 800746a:	9301      	str	r3, [sp, #4]
 800746c:	2b00      	cmp	r3, #0
 800746e:	d03a      	beq.n	80074e6 <dir_find+0xd6>
 8007470:	0651      	lsls	r1, r2, #25
 8007472:	d543      	bpl.n	80074fc <dir_find+0xec>
 8007474:	f002 04bf 	and.w	r4, r2, #191	; 0xbf
 8007478:	88fa      	ldrh	r2, [r7, #6]
 800747a:	f895 900d 	ldrb.w	r9, [r5, #13]
 800747e:	84ba      	strh	r2, [r7, #36]	; 0x24
 8007480:	7b6a      	ldrb	r2, [r5, #13]
 8007482:	454a      	cmp	r2, r9
 8007484:	d13c      	bne.n	8007500 <dir_find+0xf0>
 8007486:	220d      	movs	r2, #13
 8007488:	2301      	movs	r3, #1
 800748a:	782e      	ldrb	r6, [r5, #0]
 800748c:	f8df b0ac 	ldr.w	fp, [pc, #172]	; 800753c <dir_find+0x12c>
 8007490:	f026 0640 	bic.w	r6, r6, #64	; 0x40
 8007494:	3e01      	subs	r6, #1
 8007496:	4356      	muls	r6, r2
 8007498:	f81b 2b01 	ldrb.w	r2, [fp], #1
 800749c:	18a9      	adds	r1, r5, r2
 800749e:	7849      	ldrb	r1, [r1, #1]
 80074a0:	5caa      	ldrb	r2, [r5, r2]
 80074a2:	ea42 2001 	orr.w	r0, r2, r1, lsl #8
 80074a6:	b36b      	cbz	r3, 8007504 <dir_find+0xf4>
 80074a8:	f000 fdb8 	bl	800801c <ff_wtoupper>
 80074ac:	2efe      	cmp	r6, #254	; 0xfe
 80074ae:	9003      	str	r0, [sp, #12]
 80074b0:	d826      	bhi.n	8007500 <dir_find+0xf0>
 80074b2:	9b01      	ldr	r3, [sp, #4]
 80074b4:	1c71      	adds	r1, r6, #1
 80074b6:	f833 0016 	ldrh.w	r0, [r3, r6, lsl #1]
 80074ba:	9102      	str	r1, [sp, #8]
 80074bc:	f000 fdae 	bl	800801c <ff_wtoupper>
 80074c0:	9a03      	ldr	r2, [sp, #12]
 80074c2:	4603      	mov	r3, r0
 80074c4:	4282      	cmp	r2, r0
 80074c6:	d11b      	bne.n	8007500 <dir_find+0xf0>
 80074c8:	9902      	ldr	r1, [sp, #8]
 80074ca:	460e      	mov	r6, r1
 80074cc:	4a1c      	ldr	r2, [pc, #112]	; (8007540 <dir_find+0x130>)
 80074ce:	455a      	cmp	r2, fp
 80074d0:	d1e2      	bne.n	8007498 <dir_find+0x88>
 80074d2:	782a      	ldrb	r2, [r5, #0]
 80074d4:	0652      	lsls	r2, r2, #25
 80074d6:	d504      	bpl.n	80074e2 <dir_find+0xd2>
 80074d8:	b11b      	cbz	r3, 80074e2 <dir_find+0xd2>
 80074da:	9b01      	ldr	r3, [sp, #4]
 80074dc:	f833 3016 	ldrh.w	r3, [r3, r6, lsl #1]
 80074e0:	b973      	cbnz	r3, 8007500 <dir_find+0xf0>
 80074e2:	3c01      	subs	r4, #1
 80074e4:	b2e4      	uxtb	r4, r4
 80074e6:	2100      	movs	r1, #0
 80074e8:	4640      	mov	r0, r8
 80074ea:	f7ff ff09 	bl	8007300 <dir_next>
 80074ee:	4606      	mov	r6, r0
 80074f0:	2800      	cmp	r0, #0
 80074f2:	d0a0      	beq.n	8007436 <dir_find+0x26>
 80074f4:	4630      	mov	r0, r6
 80074f6:	b005      	add	sp, #20
 80074f8:	e8bd 8ff0 	ldmia.w	sp!, {r4, r5, r6, r7, r8, r9, sl, fp, pc}
 80074fc:	42a2      	cmp	r2, r4
 80074fe:	d0bf      	beq.n	8007480 <dir_find+0x70>
 8007500:	24ff      	movs	r4, #255	; 0xff
 8007502:	e7f0      	b.n	80074e6 <dir_find+0xd6>
 8007504:	4550      	cmp	r0, sl
 8007506:	d0e1      	beq.n	80074cc <dir_find+0xbc>
 8007508:	e7fa      	b.n	8007500 <dir_find+0xf0>
 800750a:	b924      	cbnz	r4, 8007516 <dir_find+0x106>
 800750c:	4628      	mov	r0, r5
 800750e:	f7ff fb24 	bl	8006b5a <sum_sfn>
 8007512:	4548      	cmp	r0, r9
 8007514:	d0ee      	beq.n	80074f4 <dir_find+0xe4>
 8007516:	69bb      	ldr	r3, [r7, #24]
 8007518:	7ade      	ldrb	r6, [r3, #11]
 800751a:	f016 0601 	ands.w	r6, r6, #1
 800751e:	d19e      	bne.n	800745e <dir_find+0x4e>
 8007520:	f105 000b 	add.w	r0, r5, #11
 8007524:	4285      	cmp	r5, r0
 8007526:	d0e5      	beq.n	80074f4 <dir_find+0xe4>
 8007528:	f815 1b01 	ldrb.w	r1, [r5], #1
 800752c:	f813 2b01 	ldrb.w	r2, [r3], #1
 8007530:	4291      	cmp	r1, r2
 8007532:	d0f7      	beq.n	8007524 <dir_find+0x114>
 8007534:	e793      	b.n	800745e <dir_find+0x4e>
 8007536:	2604      	movs	r6, #4
 8007538:	e7dc      	b.n	80074f4 <dir_find+0xe4>
 800753a:	bf00      	nop
 800753c:	0800d55f 	.word	0x0800d55f
 8007540:	0800d56c 	.word	0x0800d56c

08007544 <follow_path>:
 8007544:	e92d 4ff0 	stmdb	sp!, {r4, r5, r6, r7, r8, r9, sl, fp, lr}
 8007548:	780b      	ldrb	r3, [r1, #0]
 800754a:	4682      	mov	sl, r0
 800754c:	2b2f      	cmp	r3, #47	; 0x2f
 800754e:	460f      	mov	r7, r1
 8007550:	b085      	sub	sp, #20
 8007552:	d001      	beq.n	8007558 <follow_path+0x14>
 8007554:	2b5c      	cmp	r3, #92	; 0x5c
 8007556:	d100      	bne.n	800755a <follow_path+0x16>
 8007558:	3701      	adds	r7, #1
 800755a:	2400      	movs	r4, #0
 800755c:	f50a 5880 	add.w	r8, sl, #4096	; 0x1000
 8007560:	f8c8 4008 	str.w	r4, [r8, #8]
 8007564:	783b      	ldrb	r3, [r7, #0]
 8007566:	2b1f      	cmp	r3, #31
 8007568:	f200 80c4 	bhi.w	80076f4 <follow_path+0x1b0>
 800756c:	4621      	mov	r1, r4
 800756e:	4650      	mov	r0, sl
 8007570:	f7ff fd95 	bl	800709e <dir_sdi>
 8007574:	f8c8 4014 	str.w	r4, [r8, #20]
 8007578:	b005      	add	sp, #20
 800757a:	e8bd 8ff0 	ldmia.w	sp!, {r4, r5, r6, r7, r8, r9, sl, fp, pc}
 800757e:	463e      	mov	r6, r7
 8007580:	f823 0f02 	strh.w	r0, [r3, #2]!
 8007584:	e0c5      	b.n	8007712 <follow_path+0x1ce>
 8007586:	442f      	add	r7, r5
 8007588:	2e00      	cmp	r6, #0
 800758a:	f000 80e7 	beq.w	800775c <follow_path+0x218>
 800758e:	f839 3016 	ldrh.w	r3, [r9, r6, lsl #1]
 8007592:	2b20      	cmp	r3, #32
 8007594:	d002      	beq.n	800759c <follow_path+0x58>
 8007596:	2b2e      	cmp	r3, #46	; 0x2e
 8007598:	f040 80e4 	bne.w	8007764 <follow_path+0x220>
 800759c:	3e01      	subs	r6, #1
 800759e:	e7f3      	b.n	8007588 <follow_path+0x44>
 80075a0:	3101      	adds	r1, #1
 80075a2:	f83b 3011 	ldrh.w	r3, [fp, r1, lsl #1]
 80075a6:	2b20      	cmp	r3, #32
 80075a8:	d0fa      	beq.n	80075a0 <follow_path+0x5c>
 80075aa:	2b2e      	cmp	r3, #46	; 0x2e
 80075ac:	d0f8      	beq.n	80075a0 <follow_path+0x5c>
 80075ae:	2c1f      	cmp	r4, #31
 80075b0:	bf8c      	ite	hi
 80075b2:	2400      	movhi	r4, #0
 80075b4:	2401      	movls	r4, #1
 80075b6:	00a4      	lsls	r4, r4, #2
 80075b8:	b109      	cbz	r1, 80075be <follow_path+0x7a>
 80075ba:	f044 0403 	orr.w	r4, r4, #3
 80075be:	f839 3016 	ldrh.w	r3, [r9, r6, lsl #1]
 80075c2:	2b2e      	cmp	r3, #46	; 0x2e
 80075c4:	d001      	beq.n	80075ca <follow_path+0x86>
 80075c6:	3e01      	subs	r6, #1
 80075c8:	d1f9      	bne.n	80075be <follow_path+0x7a>
 80075ca:	2300      	movs	r3, #0
 80075cc:	f04f 0908 	mov.w	r9, #8
 80075d0:	461d      	mov	r5, r3
 80075d2:	f83b 0011 	ldrh.w	r0, [fp, r1, lsl #1]
 80075d6:	1c4a      	adds	r2, r1, #1
 80075d8:	b1c0      	cbz	r0, 800760c <follow_path+0xc8>
 80075da:	2820      	cmp	r0, #32
 80075dc:	d003      	beq.n	80075e6 <follow_path+0xa2>
 80075de:	282e      	cmp	r0, #46	; 0x2e
 80075e0:	d105      	bne.n	80075ee <follow_path+0xaa>
 80075e2:	42b2      	cmp	r2, r6
 80075e4:	d007      	beq.n	80075f6 <follow_path+0xb2>
 80075e6:	f044 0403 	orr.w	r4, r4, #3
 80075ea:	4611      	mov	r1, r2
 80075ec:	e7f1      	b.n	80075d2 <follow_path+0x8e>
 80075ee:	454b      	cmp	r3, r9
 80075f0:	d205      	bcs.n	80075fe <follow_path+0xba>
 80075f2:	42b2      	cmp	r2, r6
 80075f4:	d149      	bne.n	800768a <follow_path+0x146>
 80075f6:	f1b9 0f0b 	cmp.w	r9, #11
 80075fa:	d13f      	bne.n	800767c <follow_path+0x138>
 80075fc:	e002      	b.n	8007604 <follow_path+0xc0>
 80075fe:	f1b9 0f0b 	cmp.w	r9, #11
 8007602:	d136      	bne.n	8007672 <follow_path+0x12e>
 8007604:	f04f 090b 	mov.w	r9, #11
 8007608:	f044 0403 	orr.w	r4, r4, #3
 800760c:	f8d8 3018 	ldr.w	r3, [r8, #24]
 8007610:	781a      	ldrb	r2, [r3, #0]
 8007612:	2ae5      	cmp	r2, #229	; 0xe5
 8007614:	bf04      	itt	eq
 8007616:	2205      	moveq	r2, #5
 8007618:	701a      	strbeq	r2, [r3, #0]
 800761a:	f1b9 0f08 	cmp.w	r9, #8
 800761e:	bf04      	itt	eq
 8007620:	00ad      	lsleq	r5, r5, #2
 8007622:	b2ed      	uxtbeq	r5, r5
 8007624:	f005 030c 	and.w	r3, r5, #12
 8007628:	2b0c      	cmp	r3, #12
 800762a:	d003      	beq.n	8007634 <follow_path+0xf0>
 800762c:	f005 0203 	and.w	r2, r5, #3
 8007630:	2a03      	cmp	r2, #3
 8007632:	d101      	bne.n	8007638 <follow_path+0xf4>
 8007634:	f044 0402 	orr.w	r4, r4, #2
 8007638:	07a1      	lsls	r1, r4, #30
 800763a:	d409      	bmi.n	8007650 <follow_path+0x10c>
 800763c:	f005 0503 	and.w	r5, r5, #3
 8007640:	2d01      	cmp	r5, #1
 8007642:	bf08      	it	eq
 8007644:	f044 0410 	orreq.w	r4, r4, #16
 8007648:	2b04      	cmp	r3, #4
 800764a:	bf08      	it	eq
 800764c:	f044 0408 	orreq.w	r4, r4, #8
 8007650:	f8d8 3018 	ldr.w	r3, [r8, #24]
 8007654:	4650      	mov	r0, sl
 8007656:	72dc      	strb	r4, [r3, #11]
 8007658:	f7ff feda 	bl	8007410 <dir_find>
 800765c:	f8d8 3018 	ldr.w	r3, [r8, #24]
 8007660:	7adb      	ldrb	r3, [r3, #11]
 8007662:	b3b0      	cbz	r0, 80076d2 <follow_path+0x18e>
 8007664:	2804      	cmp	r0, #4
 8007666:	d187      	bne.n	8007578 <follow_path+0x34>
 8007668:	f013 0f04 	tst.w	r3, #4
 800766c:	bf08      	it	eq
 800766e:	2005      	moveq	r0, #5
 8007670:	e782      	b.n	8007578 <follow_path+0x34>
 8007672:	42b2      	cmp	r2, r6
 8007674:	d002      	beq.n	800767c <follow_path+0x138>
 8007676:	f044 0403 	orr.w	r4, r4, #3
 800767a:	d8c7      	bhi.n	800760c <follow_path+0xc8>
 800767c:	00ad      	lsls	r5, r5, #2
 800767e:	4632      	mov	r2, r6
 8007680:	f04f 090b 	mov.w	r9, #11
 8007684:	2308      	movs	r3, #8
 8007686:	b2ed      	uxtb	r5, r5
 8007688:	e7af      	b.n	80075ea <follow_path+0xa6>
 800768a:	287f      	cmp	r0, #127	; 0x7f
 800768c:	d90e      	bls.n	80076ac <follow_path+0x168>
 800768e:	2100      	movs	r1, #0
 8007690:	e9cd 2301 	strd	r2, r3, [sp, #4]
 8007694:	f000 fca6 	bl	8007fe4 <ff_convert>
 8007698:	e9dd 2301 	ldrd	r2, r3, [sp, #4]
 800769c:	f044 0402 	orr.w	r4, r4, #2
 80076a0:	b160      	cbz	r0, 80076bc <follow_path+0x178>
 80076a2:	493c      	ldr	r1, [pc, #240]	; (8007794 <follow_path+0x250>)
 80076a4:	4408      	add	r0, r1
 80076a6:	f810 0c80 	ldrb.w	r0, [r0, #-128]
 80076aa:	b138      	cbz	r0, 80076bc <follow_path+0x178>
 80076ac:	f8df c0e8 	ldr.w	ip, [pc, #232]	; 8007798 <follow_path+0x254>
 80076b0:	f81c 1b01 	ldrb.w	r1, [ip], #1
 80076b4:	2900      	cmp	r1, #0
 80076b6:	d060      	beq.n	800777a <follow_path+0x236>
 80076b8:	4281      	cmp	r1, r0
 80076ba:	d1f9      	bne.n	80076b0 <follow_path+0x16c>
 80076bc:	205f      	movs	r0, #95	; 0x5f
 80076be:	f044 0403 	orr.w	r4, r4, #3
 80076c2:	f8d8 1018 	ldr.w	r1, [r8, #24]
 80076c6:	54c8      	strb	r0, [r1, r3]
 80076c8:	3301      	adds	r3, #1
 80076ca:	e78e      	b.n	80075ea <follow_path+0xa6>
 80076cc:	f045 0502 	orr.w	r5, r5, #2
 80076d0:	e7f7      	b.n	80076c2 <follow_path+0x17e>
 80076d2:	075a      	lsls	r2, r3, #29
 80076d4:	f53f af50 	bmi.w	8007578 <follow_path+0x34>
 80076d8:	f8d8 1014 	ldr.w	r1, [r8, #20]
 80076dc:	7acb      	ldrb	r3, [r1, #11]
 80076de:	06db      	lsls	r3, r3, #27
 80076e0:	d53e      	bpl.n	8007760 <follow_path+0x21c>
 80076e2:	f8d8 3000 	ldr.w	r3, [r8]
 80076e6:	f503 5380 	add.w	r3, r3, #4096	; 0x1000
 80076ea:	7818      	ldrb	r0, [r3, #0]
 80076ec:	f7ff fc4c 	bl	8006f88 <ld_clust.isra.0>
 80076f0:	f8c8 0008 	str.w	r0, [r8, #8]
 80076f4:	783b      	ldrb	r3, [r7, #0]
 80076f6:	463d      	mov	r5, r7
 80076f8:	2b2f      	cmp	r3, #47	; 0x2f
 80076fa:	f107 0701 	add.w	r7, r7, #1
 80076fe:	d0f9      	beq.n	80076f4 <follow_path+0x1b0>
 8007700:	2b5c      	cmp	r3, #92	; 0x5c
 8007702:	d0f7      	beq.n	80076f4 <follow_path+0x1b0>
 8007704:	f8d8 b020 	ldr.w	fp, [r8, #32]
 8007708:	2600      	movs	r6, #0
 800770a:	f1ab 0902 	sub.w	r9, fp, #2
 800770e:	464b      	mov	r3, r9
 8007710:	1e6a      	subs	r2, r5, #1
 8007712:	f812 4f01 	ldrb.w	r4, [r2, #1]!
 8007716:	9302      	str	r3, [sp, #8]
 8007718:	2c1f      	cmp	r4, #31
 800771a:	f106 0701 	add.w	r7, r6, #1
 800771e:	9201      	str	r2, [sp, #4]
 8007720:	9203      	str	r2, [sp, #12]
 8007722:	f67f af30 	bls.w	8007586 <follow_path+0x42>
 8007726:	2c2f      	cmp	r4, #47	; 0x2f
 8007728:	f43f af2d 	beq.w	8007586 <follow_path+0x42>
 800772c:	2c5c      	cmp	r4, #92	; 0x5c
 800772e:	f43f af2a 	beq.w	8007586 <follow_path+0x42>
 8007732:	f5b7 7f80 	cmp.w	r7, #256	; 0x100
 8007736:	d011      	beq.n	800775c <follow_path+0x218>
 8007738:	2101      	movs	r1, #1
 800773a:	4620      	mov	r0, r4
 800773c:	f000 fc52 	bl	8007fe4 <ff_convert>
 8007740:	b160      	cbz	r0, 800775c <follow_path+0x218>
 8007742:	e9dd 2301 	ldrd	r2, r3, [sp, #4]
 8007746:	287f      	cmp	r0, #127	; 0x7f
 8007748:	f63f af19 	bhi.w	800757e <follow_path+0x3a>
 800774c:	4c13      	ldr	r4, [pc, #76]	; (800779c <follow_path+0x258>)
 800774e:	f814 1b01 	ldrb.w	r1, [r4], #1
 8007752:	2900      	cmp	r1, #0
 8007754:	f43f af13 	beq.w	800757e <follow_path+0x3a>
 8007758:	4281      	cmp	r1, r0
 800775a:	d1f8      	bne.n	800774e <follow_path+0x20a>
 800775c:	2006      	movs	r0, #6
 800775e:	e70b      	b.n	8007578 <follow_path+0x34>
 8007760:	2005      	movs	r0, #5
 8007762:	e709      	b.n	8007578 <follow_path+0x34>
 8007764:	2300      	movs	r3, #0
 8007766:	2120      	movs	r1, #32
 8007768:	220b      	movs	r2, #11
 800776a:	f8d8 0018 	ldr.w	r0, [r8, #24]
 800776e:	f82b 3016 	strh.w	r3, [fp, r6, lsl #1]
 8007772:	f7ff f93f 	bl	80069f4 <mem_set>
 8007776:	4619      	mov	r1, r3
 8007778:	e713      	b.n	80075a2 <follow_path+0x5e>
 800777a:	f1a0 0141 	sub.w	r1, r0, #65	; 0x41
 800777e:	2919      	cmp	r1, #25
 8007780:	d9a4      	bls.n	80076cc <follow_path+0x188>
 8007782:	f1a0 0161 	sub.w	r1, r0, #97	; 0x61
 8007786:	2919      	cmp	r1, #25
 8007788:	bf9e      	ittt	ls
 800778a:	3820      	subls	r0, #32
 800778c:	f045 0501 	orrls.w	r5, r5, #1
 8007790:	b280      	uxthls	r0, r0
 8007792:	e796      	b.n	80076c2 <follow_path+0x17e>
 8007794:	0800d4df 	.word	0x0800d4df
 8007798:	0800d4d8 	.word	0x0800d4d8
 800779c:	0800d4cf 	.word	0x0800d4cf

080077a0 <dir_register>:
 80077a0:	e92d 4ff0 	stmdb	sp!, {r4, r5, r6, r7, r8, r9, sl, fp, lr}
 80077a4:	f500 5480 	add.w	r4, r0, #4096	; 0x1000
 80077a8:	69a5      	ldr	r5, [r4, #24]
 80077aa:	b089      	sub	sp, #36	; 0x24
 80077ac:	4606      	mov	r6, r0
 80077ae:	220c      	movs	r2, #12
 80077b0:	4629      	mov	r1, r5
 80077b2:	a805      	add	r0, sp, #20
 80077b4:	f8d4 8020 	ldr.w	r8, [r4, #32]
 80077b8:	f7ff f912 	bl	80069e0 <mem_cpy>
 80077bc:	f89d 301f 	ldrb.w	r3, [sp, #31]
 80077c0:	07db      	lsls	r3, r3, #31
 80077c2:	f140 8086 	bpl.w	80078d2 <dir_register+0x132>
 80077c6:	2300      	movs	r3, #0
 80077c8:	f04f 0a01 	mov.w	sl, #1
 80077cc:	f8df 922c 	ldr.w	r9, [pc, #556]	; 80079fc <dir_register+0x25c>
 80077d0:	72eb      	strb	r3, [r5, #11]
 80077d2:	6223      	str	r3, [r4, #32]
 80077d4:	220b      	movs	r2, #11
 80077d6:	4628      	mov	r0, r5
 80077d8:	a905      	add	r1, sp, #20
 80077da:	f7ff f901 	bl	80069e0 <mem_cpy>
 80077de:	f1ba 0f05 	cmp.w	sl, #5
 80077e2:	d953      	bls.n	800788c <dir_register+0xec>
 80077e4:	4653      	mov	r3, sl
 80077e6:	f1a8 0002 	sub.w	r0, r8, #2
 80077ea:	f830 2f02 	ldrh.w	r2, [r0, #2]!
 80077ee:	2a00      	cmp	r2, #0
 80077f0:	d13e      	bne.n	8007870 <dir_register+0xd0>
 80077f2:	2207      	movs	r2, #7
 80077f4:	a805      	add	r0, sp, #20
 80077f6:	f003 070f 	and.w	r7, r3, #15
 80077fa:	f107 0130 	add.w	r1, r7, #48	; 0x30
 80077fe:	2939      	cmp	r1, #57	; 0x39
 8007800:	bf88      	it	hi
 8007802:	f107 0137 	addhi.w	r1, r7, #55	; 0x37
 8007806:	2b0f      	cmp	r3, #15
 8007808:	f800 1d01 	strb.w	r1, [r0, #-1]!
 800780c:	f102 32ff 	add.w	r2, r2, #4294967295
 8007810:	ea4f 1113 	mov.w	r1, r3, lsr #4
 8007814:	d83c      	bhi.n	8007890 <dir_register+0xf0>
 8007816:	217e      	movs	r1, #126	; 0x7e
 8007818:	f102 0320 	add.w	r3, r2, #32
 800781c:	446b      	add	r3, sp
 800781e:	f803 1c14 	strb.w	r1, [r3, #-20]
 8007822:	2300      	movs	r3, #0
 8007824:	1e6f      	subs	r7, r5, #1
 8007826:	429a      	cmp	r2, r3
 8007828:	d003      	beq.n	8007832 <dir_register+0x92>
 800782a:	1c59      	adds	r1, r3, #1
 800782c:	5c78      	ldrb	r0, [r7, r1]
 800782e:	2820      	cmp	r0, #32
 8007830:	d130      	bne.n	8007894 <dir_register+0xf4>
 8007832:	442b      	add	r3, r5
 8007834:	2a07      	cmp	r2, #7
 8007836:	bf8f      	iteee	hi
 8007838:	2120      	movhi	r1, #32
 800783a:	f102 0120 	addls.w	r1, r2, #32
 800783e:	4469      	addls	r1, sp
 8007840:	f811 1c14 	ldrbls.w	r1, [r1, #-20]
 8007844:	bf98      	it	ls
 8007846:	3201      	addls	r2, #1
 8007848:	f803 1b01 	strb.w	r1, [r3], #1
 800784c:	1b59      	subs	r1, r3, r5
 800784e:	2907      	cmp	r1, #7
 8007850:	d9f0      	bls.n	8007834 <dir_register+0x94>
 8007852:	4630      	mov	r0, r6
 8007854:	f7ff fddc 	bl	8007410 <dir_find>
 8007858:	4607      	mov	r7, r0
 800785a:	bb98      	cbnz	r0, 80078c4 <dir_register+0x124>
 800785c:	f10a 0a01 	add.w	sl, sl, #1
 8007860:	f1ba 0f64 	cmp.w	sl, #100	; 0x64
 8007864:	d1b6      	bne.n	80077d4 <dir_register+0x34>
 8007866:	2707      	movs	r7, #7
 8007868:	4638      	mov	r0, r7
 800786a:	b009      	add	sp, #36	; 0x24
 800786c:	e8bd 8ff0 	ldmia.w	sp!, {r4, r5, r6, r7, r8, r9, sl, fp, pc}
 8007870:	2110      	movs	r1, #16
 8007872:	f002 0701 	and.w	r7, r2, #1
 8007876:	eb07 0343 	add.w	r3, r7, r3, lsl #1
 800787a:	03df      	lsls	r7, r3, #15
 800787c:	bf48      	it	mi
 800787e:	ea83 0309 	eormi.w	r3, r3, r9
 8007882:	3901      	subs	r1, #1
 8007884:	ea4f 0252 	mov.w	r2, r2, lsr #1
 8007888:	d1f3      	bne.n	8007872 <dir_register+0xd2>
 800788a:	e7ae      	b.n	80077ea <dir_register+0x4a>
 800788c:	4653      	mov	r3, sl
 800788e:	e7b0      	b.n	80077f2 <dir_register+0x52>
 8007890:	460b      	mov	r3, r1
 8007892:	e7b0      	b.n	80077f6 <dir_register+0x56>
 8007894:	460b      	mov	r3, r1
 8007896:	e7c6      	b.n	8007826 <dir_register+0x86>
 8007898:	3501      	adds	r5, #1
 800789a:	f838 3015 	ldrh.w	r3, [r8, r5, lsl #1]
 800789e:	2b00      	cmp	r3, #0
 80078a0:	d1fa      	bne.n	8007898 <dir_register+0xf8>
 80078a2:	230d      	movs	r3, #13
 80078a4:	3519      	adds	r5, #25
 80078a6:	fbb5 f5f3 	udiv	r5, r5, r3
 80078aa:	e017      	b.n	80078dc <dir_register+0x13c>
 80078ac:	2500      	movs	r5, #0
 80078ae:	e7f4      	b.n	800789a <dir_register+0xfa>
 80078b0:	4680      	mov	r8, r0
 80078b2:	2101      	movs	r1, #1
 80078b4:	4630      	mov	r0, r6
 80078b6:	f7ff fd23 	bl	8007300 <dir_next>
 80078ba:	4607      	mov	r7, r0
 80078bc:	b1b0      	cbz	r0, 80078ec <dir_register+0x14c>
 80078be:	2f04      	cmp	r7, #4
 80078c0:	d0d1      	beq.n	8007866 <dir_register+0xc6>
 80078c2:	e7d1      	b.n	8007868 <dir_register+0xc8>
 80078c4:	2804      	cmp	r0, #4
 80078c6:	d1cf      	bne.n	8007868 <dir_register+0xc8>
 80078c8:	f89d 301f 	ldrb.w	r3, [sp, #31]
 80078cc:	72eb      	strb	r3, [r5, #11]
 80078ce:	f8c4 8020 	str.w	r8, [r4, #32]
 80078d2:	f89d 301f 	ldrb.w	r3, [sp, #31]
 80078d6:	079b      	lsls	r3, r3, #30
 80078d8:	d4e8      	bmi.n	80078ac <dir_register+0x10c>
 80078da:	2501      	movs	r5, #1
 80078dc:	2100      	movs	r1, #0
 80078de:	4630      	mov	r0, r6
 80078e0:	f7ff fbdd 	bl	800709e <dir_sdi>
 80078e4:	4607      	mov	r7, r0
 80078e6:	2800      	cmp	r0, #0
 80078e8:	d1e9      	bne.n	80078be <dir_register+0x11e>
 80078ea:	4680      	mov	r8, r0
 80078ec:	6921      	ldr	r1, [r4, #16]
 80078ee:	6820      	ldr	r0, [r4, #0]
 80078f0:	f7ff f9a1 	bl	8006c36 <move_window>
 80078f4:	4607      	mov	r7, r0
 80078f6:	2800      	cmp	r0, #0
 80078f8:	d1e1      	bne.n	80078be <dir_register+0x11e>
 80078fa:	6963      	ldr	r3, [r4, #20]
 80078fc:	781b      	ldrb	r3, [r3, #0]
 80078fe:	2be5      	cmp	r3, #229	; 0xe5
 8007900:	d001      	beq.n	8007906 <dir_register+0x166>
 8007902:	2b00      	cmp	r3, #0
 8007904:	d1d4      	bne.n	80078b0 <dir_register+0x110>
 8007906:	f108 0801 	add.w	r8, r8, #1
 800790a:	4545      	cmp	r5, r8
 800790c:	d1d1      	bne.n	80078b2 <dir_register+0x112>
 800790e:	3d01      	subs	r5, #1
 8007910:	d055      	beq.n	80079be <dir_register+0x21e>
 8007912:	88e1      	ldrh	r1, [r4, #6]
 8007914:	4630      	mov	r0, r6
 8007916:	1b49      	subs	r1, r1, r5
 8007918:	f7ff fbc1 	bl	800709e <dir_sdi>
 800791c:	4607      	mov	r7, r0
 800791e:	2800      	cmp	r0, #0
 8007920:	d1a2      	bne.n	8007868 <dir_register+0xc8>
 8007922:	69a0      	ldr	r0, [r4, #24]
 8007924:	f7ff f919 	bl	8006b5a <sum_sfn>
 8007928:	f04f 080f 	mov.w	r8, #15
 800792c:	f64f 79ff 	movw	r9, #65535	; 0xffff
 8007930:	9001      	str	r0, [sp, #4]
 8007932:	6921      	ldr	r1, [r4, #16]
 8007934:	6820      	ldr	r0, [r4, #0]
 8007936:	f7ff f97e 	bl	8006c36 <move_window>
 800793a:	4603      	mov	r3, r0
 800793c:	4607      	mov	r7, r0
 800793e:	2800      	cmp	r0, #0
 8007940:	d192      	bne.n	8007868 <dir_register+0xc8>
 8007942:	6962      	ldr	r2, [r4, #20]
 8007944:	f8d4 e020 	ldr.w	lr, [r4, #32]
 8007948:	7310      	strb	r0, [r2, #12]
 800794a:	7690      	strb	r0, [r2, #26]
 800794c:	76d0      	strb	r0, [r2, #27]
 800794e:	200d      	movs	r0, #13
 8007950:	469c      	mov	ip, r3
 8007952:	9901      	ldr	r1, [sp, #4]
 8007954:	b2ef      	uxtb	r7, r5
 8007956:	7351      	strb	r1, [r2, #13]
 8007958:	1e79      	subs	r1, r7, #1
 800795a:	4341      	muls	r1, r0
 800795c:	f8df a0a0 	ldr.w	sl, [pc, #160]	; 8007a00 <dir_register+0x260>
 8007960:	f882 800b 	strb.w	r8, [r2, #11]
 8007964:	454b      	cmp	r3, r9
 8007966:	bf18      	it	ne
 8007968:	f83e 3011 	ldrhne.w	r3, [lr, r1, lsl #1]
 800796c:	f81a 0b01 	ldrb.w	r0, [sl], #1
 8007970:	f10c 0c01 	add.w	ip, ip, #1
 8007974:	5413      	strb	r3, [r2, r0]
 8007976:	bf18      	it	ne
 8007978:	3101      	addne	r1, #1
 800797a:	ea4f 2b13 	mov.w	fp, r3, lsr #8
 800797e:	4410      	add	r0, r2
 8007980:	2b00      	cmp	r3, #0
 8007982:	bf08      	it	eq
 8007984:	464b      	moveq	r3, r9
 8007986:	f1bc 0f0d 	cmp.w	ip, #13
 800798a:	f880 b001 	strb.w	fp, [r0, #1]
 800798e:	d1e9      	bne.n	8007964 <dir_register+0x1c4>
 8007990:	454b      	cmp	r3, r9
 8007992:	d002      	beq.n	800799a <dir_register+0x1fa>
 8007994:	f83e 3011 	ldrh.w	r3, [lr, r1, lsl #1]
 8007998:	b90b      	cbnz	r3, 800799e <dir_register+0x1fe>
 800799a:	f047 0740 	orr.w	r7, r7, #64	; 0x40
 800799e:	7017      	strb	r7, [r2, #0]
 80079a0:	2201      	movs	r2, #1
 80079a2:	6823      	ldr	r3, [r4, #0]
 80079a4:	2100      	movs	r1, #0
 80079a6:	f503 5380 	add.w	r3, r3, #4096	; 0x1000
 80079aa:	4630      	mov	r0, r6
 80079ac:	711a      	strb	r2, [r3, #4]
 80079ae:	f7ff fca7 	bl	8007300 <dir_next>
 80079b2:	4607      	mov	r7, r0
 80079b4:	2800      	cmp	r0, #0
 80079b6:	f47f af57 	bne.w	8007868 <dir_register+0xc8>
 80079ba:	3d01      	subs	r5, #1
 80079bc:	d1b9      	bne.n	8007932 <dir_register+0x192>
 80079be:	6921      	ldr	r1, [r4, #16]
 80079c0:	6820      	ldr	r0, [r4, #0]
 80079c2:	f7ff f938 	bl	8006c36 <move_window>
 80079c6:	4607      	mov	r7, r0
 80079c8:	2800      	cmp	r0, #0
 80079ca:	f47f af4d 	bne.w	8007868 <dir_register+0xc8>
 80079ce:	4601      	mov	r1, r0
 80079d0:	2220      	movs	r2, #32
 80079d2:	6960      	ldr	r0, [r4, #20]
 80079d4:	f7ff f80e 	bl	80069f4 <mem_set>
 80079d8:	e9d4 0105 	ldrd	r0, r1, [r4, #20]
 80079dc:	220b      	movs	r2, #11
 80079de:	f7fe ffff 	bl	80069e0 <mem_cpy>
 80079e2:	e9d4 2305 	ldrd	r2, r3, [r4, #20]
 80079e6:	7adb      	ldrb	r3, [r3, #11]
 80079e8:	f003 0318 	and.w	r3, r3, #24
 80079ec:	7313      	strb	r3, [r2, #12]
 80079ee:	2201      	movs	r2, #1
 80079f0:	6823      	ldr	r3, [r4, #0]
 80079f2:	f503 5380 	add.w	r3, r3, #4096	; 0x1000
 80079f6:	711a      	strb	r2, [r3, #4]
 80079f8:	e736      	b.n	8007868 <dir_register+0xc8>
 80079fa:	bf00      	nop
 80079fc:	00011021 	.word	0x00011021
 8007a00:	0800d55f 	.word	0x0800d55f

08007a04 <remove_chain>:
 8007a04:	2901      	cmp	r1, #1
 8007a06:	b5f8      	push	{r3, r4, r5, r6, r7, lr}
 8007a08:	4606      	mov	r6, r0
 8007a0a:	460c      	mov	r4, r1
 8007a0c:	d925      	bls.n	8007a5a <remove_chain+0x56>
 8007a0e:	f500 5580 	add.w	r5, r0, #4096	; 0x1000
 8007a12:	696b      	ldr	r3, [r5, #20]
 8007a14:	428b      	cmp	r3, r1
 8007a16:	d920      	bls.n	8007a5a <remove_chain+0x56>
 8007a18:	4621      	mov	r1, r4
 8007a1a:	4630      	mov	r0, r6
 8007a1c:	f7ff fac9 	bl	8006fb2 <get_fat>
 8007a20:	4627      	mov	r7, r4
 8007a22:	4604      	mov	r4, r0
 8007a24:	b908      	cbnz	r0, 8007a2a <remove_chain+0x26>
 8007a26:	2000      	movs	r0, #0
 8007a28:	bdf8      	pop	{r3, r4, r5, r6, r7, pc}
 8007a2a:	2801      	cmp	r0, #1
 8007a2c:	d015      	beq.n	8007a5a <remove_chain+0x56>
 8007a2e:	1c41      	adds	r1, r0, #1
 8007a30:	d015      	beq.n	8007a5e <remove_chain+0x5a>
 8007a32:	2200      	movs	r2, #0
 8007a34:	4639      	mov	r1, r7
 8007a36:	4630      	mov	r0, r6
 8007a38:	f7ff fb7c 	bl	8007134 <put_fat>
 8007a3c:	2800      	cmp	r0, #0
 8007a3e:	d1f3      	bne.n	8007a28 <remove_chain+0x24>
 8007a40:	692b      	ldr	r3, [r5, #16]
 8007a42:	1c5a      	adds	r2, r3, #1
 8007a44:	d005      	beq.n	8007a52 <remove_chain+0x4e>
 8007a46:	3301      	adds	r3, #1
 8007a48:	612b      	str	r3, [r5, #16]
 8007a4a:	796b      	ldrb	r3, [r5, #5]
 8007a4c:	f043 0301 	orr.w	r3, r3, #1
 8007a50:	716b      	strb	r3, [r5, #5]
 8007a52:	696b      	ldr	r3, [r5, #20]
 8007a54:	429c      	cmp	r4, r3
 8007a56:	d3df      	bcc.n	8007a18 <remove_chain+0x14>
 8007a58:	e7e5      	b.n	8007a26 <remove_chain+0x22>
 8007a5a:	2002      	movs	r0, #2
 8007a5c:	e7e4      	b.n	8007a28 <remove_chain+0x24>
 8007a5e:	2001      	movs	r0, #1
 8007a60:	e7e2      	b.n	8007a28 <remove_chain+0x24>
	...

08007a64 <f_mount>:
 8007a64:	b530      	push	{r4, r5, lr}
 8007a66:	b085      	sub	sp, #20
 8007a68:	e9cd 1000 	strd	r1, r0, [sp]
 8007a6c:	a803      	add	r0, sp, #12
 8007a6e:	9103      	str	r1, [sp, #12]
 8007a70:	4614      	mov	r4, r2
 8007a72:	f7ff f881 	bl	8006b78 <get_ldnumber>
 8007a76:	1e01      	subs	r1, r0, #0
 8007a78:	db1b      	blt.n	8007ab2 <f_mount+0x4e>
 8007a7a:	4d10      	ldr	r5, [pc, #64]	; (8007abc <f_mount+0x58>)
 8007a7c:	f855 0021 	ldr.w	r0, [r5, r1, lsl #2]
 8007a80:	b128      	cbz	r0, 8007a8e <f_mount+0x2a>
 8007a82:	f7ff f845 	bl	8006b10 <clear_lock>
 8007a86:	2300      	movs	r3, #0
 8007a88:	f500 5080 	add.w	r0, r0, #4096	; 0x1000
 8007a8c:	7003      	strb	r3, [r0, #0]
 8007a8e:	9801      	ldr	r0, [sp, #4]
 8007a90:	b118      	cbz	r0, 8007a9a <f_mount+0x36>
 8007a92:	2200      	movs	r2, #0
 8007a94:	f500 5380 	add.w	r3, r0, #4096	; 0x1000
 8007a98:	701a      	strb	r2, [r3, #0]
 8007a9a:	f845 0021 	str.w	r0, [r5, r1, lsl #2]
 8007a9e:	b130      	cbz	r0, 8007aae <f_mount+0x4a>
 8007aa0:	2c01      	cmp	r4, #1
 8007aa2:	d108      	bne.n	8007ab6 <f_mount+0x52>
 8007aa4:	2200      	movs	r2, #0
 8007aa6:	4669      	mov	r1, sp
 8007aa8:	a801      	add	r0, sp, #4
 8007aaa:	f7ff f907 	bl	8006cbc <find_volume>
 8007aae:	b005      	add	sp, #20
 8007ab0:	bd30      	pop	{r4, r5, pc}
 8007ab2:	200b      	movs	r0, #11
 8007ab4:	e7fb      	b.n	8007aae <f_mount+0x4a>
 8007ab6:	2000      	movs	r0, #0
 8007ab8:	e7f9      	b.n	8007aae <f_mount+0x4a>
 8007aba:	bf00      	nop
 8007abc:	20002608 	.word	0x20002608

08007ac0 <f_open>:
 8007ac0:	e92d 43f0 	stmdb	sp!, {r4, r5, r6, r7, r8, r9, lr}
 8007ac4:	f5ad 5d82 	sub.w	sp, sp, #4160	; 0x1040
 8007ac8:	b081      	sub	sp, #4
 8007aca:	ac10      	add	r4, sp, #64	; 0x40
 8007acc:	4690      	mov	r8, r2
 8007ace:	f844 1c3c 	str.w	r1, [r4, #-60]
 8007ad2:	2800      	cmp	r0, #0
 8007ad4:	f000 80b3 	beq.w	8007c3e <f_open+0x17e>
 8007ad8:	2300      	movs	r3, #0
 8007ada:	f500 5580 	add.w	r5, r0, #4096	; 0x1000
 8007ade:	f50d 5080 	add.w	r0, sp, #4096	; 0x1000
 8007ae2:	602b      	str	r3, [r5, #0]
 8007ae4:	f002 021e 	and.w	r2, r2, #30
 8007ae8:	a901      	add	r1, sp, #4
 8007aea:	3018      	adds	r0, #24
 8007aec:	f7ff f8e6 	bl	8006cbc <find_volume>
 8007af0:	bb48      	cbnz	r0, 8007b46 <f_open+0x86>
 8007af2:	ab03      	add	r3, sp, #12
 8007af4:	f8c4 3ff0 	str.w	r3, [r4, #4080]	; 0xff0
 8007af8:	4b5f      	ldr	r3, [pc, #380]	; (8007c78 <f_open+0x1b8>)
 8007afa:	f854 1c3c 	ldr.w	r1, [r4, #-60]
 8007afe:	a806      	add	r0, sp, #24
 8007b00:	f8c4 3ff8 	str.w	r3, [r4, #4088]	; 0xff8
 8007b04:	f7ff fd1e 	bl	8007544 <follow_path>
 8007b08:	f008 061f 	and.w	r6, r8, #31
 8007b0c:	f8d4 7fec 	ldr.w	r7, [r4, #4076]	; 0xfec
 8007b10:	b940      	cbnz	r0, 8007b24 <f_open+0x64>
 8007b12:	b1ef      	cbz	r7, 8007b50 <f_open+0x90>
 8007b14:	f016 0f1e 	tst.w	r6, #30
 8007b18:	bf14      	ite	ne
 8007b1a:	2101      	movne	r1, #1
 8007b1c:	2100      	moveq	r1, #0
 8007b1e:	a806      	add	r0, sp, #24
 8007b20:	f7fe ff70 	bl	8006a04 <chk_lock>
 8007b24:	f018 0f1c 	tst.w	r8, #28
 8007b28:	d07d      	beq.n	8007c26 <f_open+0x166>
 8007b2a:	b198      	cbz	r0, 8007b54 <f_open+0x94>
 8007b2c:	2804      	cmp	r0, #4
 8007b2e:	d10a      	bne.n	8007b46 <f_open+0x86>
 8007b30:	4b52      	ldr	r3, [pc, #328]	; (8007c7c <f_open+0x1bc>)
 8007b32:	681a      	ldr	r2, [r3, #0]
 8007b34:	b11a      	cbz	r2, 8007b3e <f_open+0x7e>
 8007b36:	68db      	ldr	r3, [r3, #12]
 8007b38:	2b00      	cmp	r3, #0
 8007b3a:	f040 8082 	bne.w	8007c42 <f_open+0x182>
 8007b3e:	a806      	add	r0, sp, #24
 8007b40:	f7ff fe2e 	bl	80077a0 <dir_register>
 8007b44:	b188      	cbz	r0, 8007b6a <f_open+0xaa>
 8007b46:	f50d 5d82 	add.w	sp, sp, #4160	; 0x1040
 8007b4a:	b001      	add	sp, #4
 8007b4c:	e8bd 83f0 	ldmia.w	sp!, {r4, r5, r6, r7, r8, r9, pc}
 8007b50:	2006      	movs	r0, #6
 8007b52:	e7e7      	b.n	8007b24 <f_open+0x64>
 8007b54:	7afb      	ldrb	r3, [r7, #11]
 8007b56:	f013 0f11 	tst.w	r3, #17
 8007b5a:	d16e      	bne.n	8007c3a <f_open+0x17a>
 8007b5c:	f018 0f04 	tst.w	r8, #4
 8007b60:	d171      	bne.n	8007c46 <f_open+0x186>
 8007b62:	f018 0f08 	tst.w	r8, #8
 8007b66:	d046      	beq.n	8007bf6 <f_open+0x136>
 8007b68:	e003      	b.n	8007b72 <f_open+0xb2>
 8007b6a:	f8d4 7fec 	ldr.w	r7, [r4, #4076]	; 0xfec
 8007b6e:	f046 0608 	orr.w	r6, r6, #8
 8007b72:	f7fe fee7 	bl	8006944 <get_fattime>
 8007b76:	f04f 0800 	mov.w	r8, #0
 8007b7a:	f3c0 2307 	ubfx	r3, r0, #8, #8
 8007b7e:	73b8      	strb	r0, [r7, #14]
 8007b80:	73fb      	strb	r3, [r7, #15]
 8007b82:	0c03      	lsrs	r3, r0, #16
 8007b84:	0e00      	lsrs	r0, r0, #24
 8007b86:	f887 800b 	strb.w	r8, [r7, #11]
 8007b8a:	f887 801c 	strb.w	r8, [r7, #28]
 8007b8e:	f887 801d 	strb.w	r8, [r7, #29]
 8007b92:	f887 801e 	strb.w	r8, [r7, #30]
 8007b96:	f887 801f 	strb.w	r8, [r7, #31]
 8007b9a:	743b      	strb	r3, [r7, #16]
 8007b9c:	7478      	strb	r0, [r7, #17]
 8007b9e:	f8d4 3fd8 	ldr.w	r3, [r4, #4056]	; 0xfd8
 8007ba2:	4639      	mov	r1, r7
 8007ba4:	f503 5380 	add.w	r3, r3, #4096	; 0x1000
 8007ba8:	7818      	ldrb	r0, [r3, #0]
 8007baa:	f7ff f9ed 	bl	8006f88 <ld_clust.isra.0>
 8007bae:	2101      	movs	r1, #1
 8007bb0:	f887 801a 	strb.w	r8, [r7, #26]
 8007bb4:	f887 801b 	strb.w	r8, [r7, #27]
 8007bb8:	f887 8014 	strb.w	r8, [r7, #20]
 8007bbc:	f887 8015 	strb.w	r8, [r7, #21]
 8007bc0:	f8d4 3fd8 	ldr.w	r3, [r4, #4056]	; 0xfd8
 8007bc4:	4680      	mov	r8, r0
 8007bc6:	f503 5280 	add.w	r2, r3, #4096	; 0x1000
 8007bca:	7111      	strb	r1, [r2, #4]
 8007bcc:	b198      	cbz	r0, 8007bf6 <f_open+0x136>
 8007bce:	4601      	mov	r1, r0
 8007bd0:	4618      	mov	r0, r3
 8007bd2:	f8d2 902c 	ldr.w	r9, [r2, #44]	; 0x2c
 8007bd6:	f7ff ff15 	bl	8007a04 <remove_chain>
 8007bda:	2800      	cmp	r0, #0
 8007bdc:	d1b3      	bne.n	8007b46 <f_open+0x86>
 8007bde:	f8d4 0fd8 	ldr.w	r0, [r4, #4056]	; 0xfd8
 8007be2:	f108 33ff 	add.w	r3, r8, #4294967295
 8007be6:	f500 5280 	add.w	r2, r0, #4096	; 0x1000
 8007bea:	4649      	mov	r1, r9
 8007bec:	60d3      	str	r3, [r2, #12]
 8007bee:	f7ff f822 	bl	8006c36 <move_window>
 8007bf2:	2800      	cmp	r0, #0
 8007bf4:	d1a7      	bne.n	8007b46 <f_open+0x86>
 8007bf6:	f8d4 9fd8 	ldr.w	r9, [r4, #4056]	; 0xfd8
 8007bfa:	0733      	lsls	r3, r6, #28
 8007bfc:	f509 5880 	add.w	r8, r9, #4096	; 0x1000
 8007c00:	f8d8 302c 	ldr.w	r3, [r8, #44]	; 0x2c
 8007c04:	bf48      	it	mi
 8007c06:	f046 0620 	orrmi.w	r6, r6, #32
 8007c0a:	f016 0ffe 	tst.w	r6, #254	; 0xfe
 8007c0e:	bf14      	ite	ne
 8007c10:	2101      	movne	r1, #1
 8007c12:	2100      	moveq	r1, #0
 8007c14:	e9c5 3707 	strd	r3, r7, [r5, #28]
 8007c18:	a806      	add	r0, sp, #24
 8007c1a:	f7fe ff33 	bl	8006a84 <inc_lock>
 8007c1e:	62a8      	str	r0, [r5, #40]	; 0x28
 8007c20:	b9a8      	cbnz	r0, 8007c4e <f_open+0x18e>
 8007c22:	2002      	movs	r0, #2
 8007c24:	e78f      	b.n	8007b46 <f_open+0x86>
 8007c26:	2800      	cmp	r0, #0
 8007c28:	d18d      	bne.n	8007b46 <f_open+0x86>
 8007c2a:	7afb      	ldrb	r3, [r7, #11]
 8007c2c:	06d8      	lsls	r0, r3, #27
 8007c2e:	d40c      	bmi.n	8007c4a <f_open+0x18a>
 8007c30:	f018 0f02 	tst.w	r8, #2
 8007c34:	d0df      	beq.n	8007bf6 <f_open+0x136>
 8007c36:	07da      	lsls	r2, r3, #31
 8007c38:	d5dd      	bpl.n	8007bf6 <f_open+0x136>
 8007c3a:	2007      	movs	r0, #7
 8007c3c:	e783      	b.n	8007b46 <f_open+0x86>
 8007c3e:	2009      	movs	r0, #9
 8007c40:	e781      	b.n	8007b46 <f_open+0x86>
 8007c42:	2012      	movs	r0, #18
 8007c44:	e77f      	b.n	8007b46 <f_open+0x86>
 8007c46:	2008      	movs	r0, #8
 8007c48:	e77d      	b.n	8007b46 <f_open+0x86>
 8007c4a:	2004      	movs	r0, #4
 8007c4c:	e77b      	b.n	8007b46 <f_open+0x86>
 8007c4e:	2400      	movs	r4, #0
 8007c50:	71ae      	strb	r6, [r5, #6]
 8007c52:	71ec      	strb	r4, [r5, #7]
 8007c54:	f898 0000 	ldrb.w	r0, [r8]
 8007c58:	4639      	mov	r1, r7
 8007c5a:	f7ff f995 	bl	8006f88 <ld_clust.isra.0>
 8007c5e:	6128      	str	r0, [r5, #16]
 8007c60:	69fb      	ldr	r3, [r7, #28]
 8007c62:	4620      	mov	r0, r4
 8007c64:	e9c5 4302 	strd	r4, r3, [r5, #8]
 8007c68:	f8b8 3006 	ldrh.w	r3, [r8, #6]
 8007c6c:	61ac      	str	r4, [r5, #24]
 8007c6e:	626c      	str	r4, [r5, #36]	; 0x24
 8007c70:	f8c5 9000 	str.w	r9, [r5]
 8007c74:	80ab      	strh	r3, [r5, #4]
 8007c76:	e766      	b.n	8007b46 <f_open+0x86>
 8007c78:	20002626 	.word	0x20002626
 8007c7c:	2000260c 	.word	0x2000260c

08007c80 <f_write>:
 8007c80:	e92d 4ff7 	stmdb	sp!, {r0, r1, r2, r4, r5, r6, r7, r8, r9, sl, fp, lr}
 8007c84:	469a      	mov	sl, r3
 8007c86:	2300      	movs	r3, #0
 8007c88:	f8ca 3000 	str.w	r3, [sl]
 8007c8c:	4680      	mov	r8, r0
 8007c8e:	4689      	mov	r9, r1
 8007c90:	4616      	mov	r6, r2
 8007c92:	f7fe ff89 	bl	8006ba8 <validate>
 8007c96:	4605      	mov	r5, r0
 8007c98:	bb00      	cbnz	r0, 8007cdc <f_write+0x5c>
 8007c9a:	f508 5480 	add.w	r4, r8, #4096	; 0x1000
 8007c9e:	79e5      	ldrb	r5, [r4, #7]
 8007ca0:	b9e5      	cbnz	r5, 8007cdc <f_write+0x5c>
 8007ca2:	79a3      	ldrb	r3, [r4, #6]
 8007ca4:	0799      	lsls	r1, r3, #30
 8007ca6:	f140 80bf 	bpl.w	8007e28 <f_write+0x1a8>
 8007caa:	68a3      	ldr	r3, [r4, #8]
 8007cac:	42de      	cmn	r6, r3
 8007cae:	d375      	bcc.n	8007d9c <f_write+0x11c>
 8007cb0:	e9d4 3202 	ldrd	r3, r2, [r4, #8]
 8007cb4:	4293      	cmp	r3, r2
 8007cb6:	f200 80b5 	bhi.w	8007e24 <f_write+0x1a4>
 8007cba:	79a3      	ldrb	r3, [r4, #6]
 8007cbc:	f043 0320 	orr.w	r3, r3, #32
 8007cc0:	71a3      	strb	r3, [r4, #6]
 8007cc2:	e00b      	b.n	8007cdc <f_write+0x5c>
 8007cc4:	6a63      	ldr	r3, [r4, #36]	; 0x24
 8007cc6:	b16b      	cbz	r3, 8007ce4 <f_write+0x64>
 8007cc8:	4640      	mov	r0, r8
 8007cca:	f7fe ff2f 	bl	8006b2c <clmt_clust>
 8007cce:	4601      	mov	r1, r0
 8007cd0:	2800      	cmp	r0, #0
 8007cd2:	d0ed      	beq.n	8007cb0 <f_write+0x30>
 8007cd4:	2901      	cmp	r1, #1
 8007cd6:	d107      	bne.n	8007ce8 <f_write+0x68>
 8007cd8:	2502      	movs	r5, #2
 8007cda:	71e5      	strb	r5, [r4, #7]
 8007cdc:	4628      	mov	r0, r5
 8007cde:	b003      	add	sp, #12
 8007ce0:	e8bd 8ff0 	ldmia.w	sp!, {r4, r5, r6, r7, r8, r9, sl, fp, pc}
 8007ce4:	6961      	ldr	r1, [r4, #20]
 8007ce6:	e071      	b.n	8007dcc <f_write+0x14c>
 8007ce8:	1c4a      	adds	r2, r1, #1
 8007cea:	d101      	bne.n	8007cf0 <f_write+0x70>
 8007cec:	2501      	movs	r5, #1
 8007cee:	e7f4      	b.n	8007cda <f_write+0x5a>
 8007cf0:	6923      	ldr	r3, [r4, #16]
 8007cf2:	6161      	str	r1, [r4, #20]
 8007cf4:	b903      	cbnz	r3, 8007cf8 <f_write+0x78>
 8007cf6:	6121      	str	r1, [r4, #16]
 8007cf8:	79a3      	ldrb	r3, [r4, #6]
 8007cfa:	6820      	ldr	r0, [r4, #0]
 8007cfc:	065b      	lsls	r3, r3, #25
 8007cfe:	d50d      	bpl.n	8007d1c <f_write+0x9c>
 8007d00:	f500 5080 	add.w	r0, r0, #4096	; 0x1000
 8007d04:	2301      	movs	r3, #1
 8007d06:	4641      	mov	r1, r8
 8007d08:	69a2      	ldr	r2, [r4, #24]
 8007d0a:	7840      	ldrb	r0, [r0, #1]
 8007d0c:	f7fe fe4e 	bl	80069ac <disk_write>
 8007d10:	2800      	cmp	r0, #0
 8007d12:	d1eb      	bne.n	8007cec <f_write+0x6c>
 8007d14:	79a3      	ldrb	r3, [r4, #6]
 8007d16:	f023 0340 	bic.w	r3, r3, #64	; 0x40
 8007d1a:	71a3      	strb	r3, [r4, #6]
 8007d1c:	6822      	ldr	r2, [r4, #0]
 8007d1e:	6961      	ldr	r1, [r4, #20]
 8007d20:	4610      	mov	r0, r2
 8007d22:	f7ff f939 	bl	8006f98 <clust2sect>
 8007d26:	2800      	cmp	r0, #0
 8007d28:	d0d6      	beq.n	8007cd8 <f_write+0x58>
 8007d2a:	eb00 0b07 	add.w	fp, r0, r7
 8007d2e:	f502 5080 	add.w	r0, r2, #4096	; 0x1000
 8007d32:	8943      	ldrh	r3, [r0, #10]
 8007d34:	42b3      	cmp	r3, r6
 8007d36:	d84c      	bhi.n	8007dd2 <f_write+0x152>
 8007d38:	fbb6 f3f3 	udiv	r3, r6, r3
 8007d3c:	7882      	ldrb	r2, [r0, #2]
 8007d3e:	18f9      	adds	r1, r7, r3
 8007d40:	4291      	cmp	r1, r2
 8007d42:	bf88      	it	hi
 8007d44:	1bd3      	subhi	r3, r2, r7
 8007d46:	4649      	mov	r1, r9
 8007d48:	465a      	mov	r2, fp
 8007d4a:	7840      	ldrb	r0, [r0, #1]
 8007d4c:	9301      	str	r3, [sp, #4]
 8007d4e:	f7fe fe2d 	bl	80069ac <disk_write>
 8007d52:	2800      	cmp	r0, #0
 8007d54:	d1ca      	bne.n	8007cec <f_write+0x6c>
 8007d56:	69a1      	ldr	r1, [r4, #24]
 8007d58:	9b01      	ldr	r3, [sp, #4]
 8007d5a:	eba1 010b 	sub.w	r1, r1, fp
 8007d5e:	428b      	cmp	r3, r1
 8007d60:	d90d      	bls.n	8007d7e <f_write+0xfe>
 8007d62:	6822      	ldr	r2, [r4, #0]
 8007d64:	4640      	mov	r0, r8
 8007d66:	f502 5280 	add.w	r2, r2, #4096	; 0x1000
 8007d6a:	8952      	ldrh	r2, [r2, #10]
 8007d6c:	fb01 9102 	mla	r1, r1, r2, r9
 8007d70:	f7fe fe36 	bl	80069e0 <mem_cpy>
 8007d74:	79a2      	ldrb	r2, [r4, #6]
 8007d76:	9b01      	ldr	r3, [sp, #4]
 8007d78:	f022 0240 	bic.w	r2, r2, #64	; 0x40
 8007d7c:	71a2      	strb	r2, [r4, #6]
 8007d7e:	6822      	ldr	r2, [r4, #0]
 8007d80:	f502 5280 	add.w	r2, r2, #4096	; 0x1000
 8007d84:	8957      	ldrh	r7, [r2, #10]
 8007d86:	435f      	muls	r7, r3
 8007d88:	68a3      	ldr	r3, [r4, #8]
 8007d8a:	44b9      	add	r9, r7
 8007d8c:	443b      	add	r3, r7
 8007d8e:	60a3      	str	r3, [r4, #8]
 8007d90:	f8da 3000 	ldr.w	r3, [sl]
 8007d94:	1bf6      	subs	r6, r6, r7
 8007d96:	443b      	add	r3, r7
 8007d98:	f8ca 3000 	str.w	r3, [sl]
 8007d9c:	68a1      	ldr	r1, [r4, #8]
 8007d9e:	2e00      	cmp	r6, #0
 8007da0:	d086      	beq.n	8007cb0 <f_write+0x30>
 8007da2:	6820      	ldr	r0, [r4, #0]
 8007da4:	f500 5780 	add.w	r7, r0, #4096	; 0x1000
 8007da8:	897b      	ldrh	r3, [r7, #10]
 8007daa:	fbb1 f2f3 	udiv	r2, r1, r3
 8007dae:	fb03 1312 	mls	r3, r3, r2, r1
 8007db2:	bb03      	cbnz	r3, 8007df6 <f_write+0x176>
 8007db4:	78bf      	ldrb	r7, [r7, #2]
 8007db6:	3f01      	subs	r7, #1
 8007db8:	4017      	ands	r7, r2
 8007dba:	f017 07ff 	ands.w	r7, r7, #255	; 0xff
 8007dbe:	d19b      	bne.n	8007cf8 <f_write+0x78>
 8007dc0:	2900      	cmp	r1, #0
 8007dc2:	f47f af7f 	bne.w	8007cc4 <f_write+0x44>
 8007dc6:	6921      	ldr	r1, [r4, #16]
 8007dc8:	2900      	cmp	r1, #0
 8007dca:	d183      	bne.n	8007cd4 <f_write+0x54>
 8007dcc:	f7ff fa3e 	bl	800724c <create_chain>
 8007dd0:	e77d      	b.n	8007cce <f_write+0x4e>
 8007dd2:	69a2      	ldr	r2, [r4, #24]
 8007dd4:	68a3      	ldr	r3, [r4, #8]
 8007dd6:	4593      	cmp	fp, r2
 8007dd8:	d00b      	beq.n	8007df2 <f_write+0x172>
 8007dda:	68e2      	ldr	r2, [r4, #12]
 8007ddc:	429a      	cmp	r2, r3
 8007dde:	d908      	bls.n	8007df2 <f_write+0x172>
 8007de0:	2301      	movs	r3, #1
 8007de2:	465a      	mov	r2, fp
 8007de4:	4641      	mov	r1, r8
 8007de6:	7840      	ldrb	r0, [r0, #1]
 8007de8:	f7fe fdd2 	bl	8006990 <disk_read>
 8007dec:	2800      	cmp	r0, #0
 8007dee:	f47f af7d 	bne.w	8007cec <f_write+0x6c>
 8007df2:	f8c4 b018 	str.w	fp, [r4, #24]
 8007df6:	6823      	ldr	r3, [r4, #0]
 8007df8:	68a0      	ldr	r0, [r4, #8]
 8007dfa:	f503 5380 	add.w	r3, r3, #4096	; 0x1000
 8007dfe:	895f      	ldrh	r7, [r3, #10]
 8007e00:	4649      	mov	r1, r9
 8007e02:	fbb0 f3f7 	udiv	r3, r0, r7
 8007e06:	fb07 0013 	mls	r0, r7, r3, r0
 8007e0a:	1a3f      	subs	r7, r7, r0
 8007e0c:	42b7      	cmp	r7, r6
 8007e0e:	bf28      	it	cs
 8007e10:	4637      	movcs	r7, r6
 8007e12:	4440      	add	r0, r8
 8007e14:	463a      	mov	r2, r7
 8007e16:	f7fe fde3 	bl	80069e0 <mem_cpy>
 8007e1a:	79a3      	ldrb	r3, [r4, #6]
 8007e1c:	f043 0340 	orr.w	r3, r3, #64	; 0x40
 8007e20:	71a3      	strb	r3, [r4, #6]
 8007e22:	e7b1      	b.n	8007d88 <f_write+0x108>
 8007e24:	60e3      	str	r3, [r4, #12]
 8007e26:	e748      	b.n	8007cba <f_write+0x3a>
 8007e28:	2507      	movs	r5, #7
 8007e2a:	e757      	b.n	8007cdc <f_write+0x5c>

08007e2c <f_sync>:
 8007e2c:	b570      	push	{r4, r5, r6, lr}
 8007e2e:	4605      	mov	r5, r0
 8007e30:	f7fe feba 	bl	8006ba8 <validate>
 8007e34:	2800      	cmp	r0, #0
 8007e36:	d14d      	bne.n	8007ed4 <f_sync+0xa8>
 8007e38:	f505 5480 	add.w	r4, r5, #4096	; 0x1000
 8007e3c:	79a3      	ldrb	r3, [r4, #6]
 8007e3e:	f013 0020 	ands.w	r0, r3, #32
 8007e42:	d047      	beq.n	8007ed4 <f_sync+0xa8>
 8007e44:	065b      	lsls	r3, r3, #25
 8007e46:	6820      	ldr	r0, [r4, #0]
 8007e48:	d50d      	bpl.n	8007e66 <f_sync+0x3a>
 8007e4a:	f500 5080 	add.w	r0, r0, #4096	; 0x1000
 8007e4e:	2301      	movs	r3, #1
 8007e50:	4629      	mov	r1, r5
 8007e52:	69a2      	ldr	r2, [r4, #24]
 8007e54:	7840      	ldrb	r0, [r0, #1]
 8007e56:	f7fe fda9 	bl	80069ac <disk_write>
 8007e5a:	2800      	cmp	r0, #0
 8007e5c:	d139      	bne.n	8007ed2 <f_sync+0xa6>
 8007e5e:	79a3      	ldrb	r3, [r4, #6]
 8007e60:	f023 0340 	bic.w	r3, r3, #64	; 0x40
 8007e64:	71a3      	strb	r3, [r4, #6]
 8007e66:	69e1      	ldr	r1, [r4, #28]
 8007e68:	6820      	ldr	r0, [r4, #0]
 8007e6a:	f7fe fee4 	bl	8006c36 <move_window>
 8007e6e:	4606      	mov	r6, r0
 8007e70:	bb80      	cbnz	r0, 8007ed4 <f_sync+0xa8>
 8007e72:	6a25      	ldr	r5, [r4, #32]
 8007e74:	7aeb      	ldrb	r3, [r5, #11]
 8007e76:	f043 0320 	orr.w	r3, r3, #32
 8007e7a:	72eb      	strb	r3, [r5, #11]
 8007e7c:	68e3      	ldr	r3, [r4, #12]
 8007e7e:	772b      	strb	r3, [r5, #28]
 8007e80:	89a3      	ldrh	r3, [r4, #12]
 8007e82:	0a1b      	lsrs	r3, r3, #8
 8007e84:	776b      	strb	r3, [r5, #29]
 8007e86:	89e3      	ldrh	r3, [r4, #14]
 8007e88:	77ab      	strb	r3, [r5, #30]
 8007e8a:	7be3      	ldrb	r3, [r4, #15]
 8007e8c:	77eb      	strb	r3, [r5, #31]
 8007e8e:	6923      	ldr	r3, [r4, #16]
 8007e90:	f3c3 2207 	ubfx	r2, r3, #8, #8
 8007e94:	76ab      	strb	r3, [r5, #26]
 8007e96:	0c1b      	lsrs	r3, r3, #16
 8007e98:	752b      	strb	r3, [r5, #20]
 8007e9a:	0a1b      	lsrs	r3, r3, #8
 8007e9c:	76ea      	strb	r2, [r5, #27]
 8007e9e:	756b      	strb	r3, [r5, #21]
 8007ea0:	f7fe fd50 	bl	8006944 <get_fattime>
 8007ea4:	2201      	movs	r2, #1
 8007ea6:	f3c0 2307 	ubfx	r3, r0, #8, #8
 8007eaa:	75eb      	strb	r3, [r5, #23]
 8007eac:	0c03      	lsrs	r3, r0, #16
 8007eae:	762b      	strb	r3, [r5, #24]
 8007eb0:	0e03      	lsrs	r3, r0, #24
 8007eb2:	75a8      	strb	r0, [r5, #22]
 8007eb4:	766b      	strb	r3, [r5, #25]
 8007eb6:	74ae      	strb	r6, [r5, #18]
 8007eb8:	74ee      	strb	r6, [r5, #19]
 8007eba:	79a3      	ldrb	r3, [r4, #6]
 8007ebc:	6820      	ldr	r0, [r4, #0]
 8007ebe:	f023 0320 	bic.w	r3, r3, #32
 8007ec2:	71a3      	strb	r3, [r4, #6]
 8007ec4:	f500 5380 	add.w	r3, r0, #4096	; 0x1000
 8007ec8:	711a      	strb	r2, [r3, #4]
 8007eca:	e8bd 4070 	ldmia.w	sp!, {r4, r5, r6, lr}
 8007ece:	f7ff b821 	b.w	8006f14 <sync_fs>
 8007ed2:	2001      	movs	r0, #1
 8007ed4:	bd70      	pop	{r4, r5, r6, pc}

08007ed6 <f_getfree>:
 8007ed6:	e92d 4ff7 	stmdb	sp!, {r0, r1, r2, r4, r5, r6, r7, r8, r9, sl, fp, lr}
 8007eda:	4615      	mov	r5, r2
 8007edc:	9001      	str	r0, [sp, #4]
 8007ede:	460f      	mov	r7, r1
 8007ee0:	2200      	movs	r2, #0
 8007ee2:	4628      	mov	r0, r5
 8007ee4:	a901      	add	r1, sp, #4
 8007ee6:	f7fe fee9 	bl	8006cbc <find_volume>
 8007eea:	4604      	mov	r4, r0
 8007eec:	b950      	cbnz	r0, 8007f04 <f_getfree+0x2e>
 8007eee:	f8d5 9000 	ldr.w	r9, [r5]
 8007ef2:	f509 5680 	add.w	r6, r9, #4096	; 0x1000
 8007ef6:	e9d6 3804 	ldrd	r3, r8, [r6, #16]
 8007efa:	f1a8 0202 	sub.w	r2, r8, #2
 8007efe:	4293      	cmp	r3, r2
 8007f00:	d804      	bhi.n	8007f0c <f_getfree+0x36>
 8007f02:	603b      	str	r3, [r7, #0]
 8007f04:	4620      	mov	r0, r4
 8007f06:	b003      	add	sp, #12
 8007f08:	e8bd 8ff0 	ldmia.w	sp!, {r4, r5, r6, r7, r8, r9, sl, fp, pc}
 8007f0c:	f896 a000 	ldrb.w	sl, [r6]
 8007f10:	f1ba 0f01 	cmp.w	sl, #1
 8007f14:	d118      	bne.n	8007f48 <f_getfree+0x72>
 8007f16:	f04f 0802 	mov.w	r8, #2
 8007f1a:	4605      	mov	r5, r0
 8007f1c:	4641      	mov	r1, r8
 8007f1e:	4648      	mov	r0, r9
 8007f20:	f7ff f847 	bl	8006fb2 <get_fat>
 8007f24:	1c43      	adds	r3, r0, #1
 8007f26:	d031      	beq.n	8007f8c <f_getfree+0xb6>
 8007f28:	2801      	cmp	r0, #1
 8007f2a:	d031      	beq.n	8007f90 <f_getfree+0xba>
 8007f2c:	b900      	cbnz	r0, 8007f30 <f_getfree+0x5a>
 8007f2e:	3501      	adds	r5, #1
 8007f30:	6973      	ldr	r3, [r6, #20]
 8007f32:	f108 0801 	add.w	r8, r8, #1
 8007f36:	4543      	cmp	r3, r8
 8007f38:	d8f0      	bhi.n	8007f1c <f_getfree+0x46>
 8007f3a:	7973      	ldrb	r3, [r6, #5]
 8007f3c:	6135      	str	r5, [r6, #16]
 8007f3e:	f043 0301 	orr.w	r3, r3, #1
 8007f42:	7173      	strb	r3, [r6, #5]
 8007f44:	603d      	str	r5, [r7, #0]
 8007f46:	e7dd      	b.n	8007f04 <f_getfree+0x2e>
 8007f48:	4603      	mov	r3, r0
 8007f4a:	4602      	mov	r2, r0
 8007f4c:	4605      	mov	r5, r0
 8007f4e:	6a31      	ldr	r1, [r6, #32]
 8007f50:	b942      	cbnz	r2, 8007f64 <f_getfree+0x8e>
 8007f52:	4648      	mov	r0, r9
 8007f54:	f101 0b01 	add.w	fp, r1, #1
 8007f58:	f7fe fe6d 	bl	8006c36 <move_window>
 8007f5c:	b9d0      	cbnz	r0, 8007f94 <f_getfree+0xbe>
 8007f5e:	464b      	mov	r3, r9
 8007f60:	4659      	mov	r1, fp
 8007f62:	8972      	ldrh	r2, [r6, #10]
 8007f64:	f1ba 0f02 	cmp.w	sl, #2
 8007f68:	d108      	bne.n	8007f7c <f_getfree+0xa6>
 8007f6a:	8818      	ldrh	r0, [r3, #0]
 8007f6c:	b900      	cbnz	r0, 8007f70 <f_getfree+0x9a>
 8007f6e:	3501      	adds	r5, #1
 8007f70:	3302      	adds	r3, #2
 8007f72:	3a02      	subs	r2, #2
 8007f74:	f1b8 0801 	subs.w	r8, r8, #1
 8007f78:	d1ea      	bne.n	8007f50 <f_getfree+0x7a>
 8007f7a:	e7de      	b.n	8007f3a <f_getfree+0x64>
 8007f7c:	6818      	ldr	r0, [r3, #0]
 8007f7e:	3a04      	subs	r2, #4
 8007f80:	f030 4070 	bics.w	r0, r0, #4026531840	; 0xf0000000
 8007f84:	bf08      	it	eq
 8007f86:	3501      	addeq	r5, #1
 8007f88:	3304      	adds	r3, #4
 8007f8a:	e7f3      	b.n	8007f74 <f_getfree+0x9e>
 8007f8c:	2401      	movs	r4, #1
 8007f8e:	e7d4      	b.n	8007f3a <f_getfree+0x64>
 8007f90:	2402      	movs	r4, #2
 8007f92:	e7d2      	b.n	8007f3a <f_getfree+0x64>
 8007f94:	4604      	mov	r4, r0
 8007f96:	e7d0      	b.n	8007f3a <f_getfree+0x64>

08007f98 <FATFS_LinkDriverEx>:
 8007f98:	b530      	push	{r4, r5, lr}
 8007f9a:	4b0f      	ldr	r3, [pc, #60]	; (8007fd8 <FATFS_LinkDriverEx+0x40>)
 8007f9c:	7a5c      	ldrb	r4, [r3, #9]
 8007f9e:	2c01      	cmp	r4, #1
 8007fa0:	d817      	bhi.n	8007fd2 <FATFS_LinkDriverEx+0x3a>
 8007fa2:	2400      	movs	r4, #0
 8007fa4:	7a5d      	ldrb	r5, [r3, #9]
 8007fa6:	b2ed      	uxtb	r5, r5
 8007fa8:	555c      	strb	r4, [r3, r5]
 8007faa:	7a5d      	ldrb	r5, [r3, #9]
 8007fac:	eb03 0585 	add.w	r5, r3, r5, lsl #2
 8007fb0:	6068      	str	r0, [r5, #4]
 8007fb2:	7a58      	ldrb	r0, [r3, #9]
 8007fb4:	4418      	add	r0, r3
 8007fb6:	7202      	strb	r2, [r0, #8]
 8007fb8:	7a5a      	ldrb	r2, [r3, #9]
 8007fba:	1c50      	adds	r0, r2, #1
 8007fbc:	b2c0      	uxtb	r0, r0
 8007fbe:	7258      	strb	r0, [r3, #9]
 8007fc0:	233a      	movs	r3, #58	; 0x3a
 8007fc2:	704b      	strb	r3, [r1, #1]
 8007fc4:	232f      	movs	r3, #47	; 0x2f
 8007fc6:	4620      	mov	r0, r4
 8007fc8:	3230      	adds	r2, #48	; 0x30
 8007fca:	700a      	strb	r2, [r1, #0]
 8007fcc:	708b      	strb	r3, [r1, #2]
 8007fce:	70cc      	strb	r4, [r1, #3]
 8007fd0:	bd30      	pop	{r4, r5, pc}
 8007fd2:	2001      	movs	r0, #1
 8007fd4:	e7fc      	b.n	8007fd0 <FATFS_LinkDriverEx+0x38>
 8007fd6:	bf00      	nop
 8007fd8:	20002828 	.word	0x20002828

08007fdc <FATFS_LinkDriver>:
 8007fdc:	2200      	movs	r2, #0
 8007fde:	f7ff bfdb 	b.w	8007f98 <FATFS_LinkDriverEx>
	...

08007fe4 <ff_convert>:
 8007fe4:	287f      	cmp	r0, #127	; 0x7f
 8007fe6:	b510      	push	{r4, lr}
 8007fe8:	d906      	bls.n	8007ff8 <ff_convert+0x14>
 8007fea:	b131      	cbz	r1, 8007ffa <ff_convert+0x16>
 8007fec:	28ff      	cmp	r0, #255	; 0xff
 8007fee:	d811      	bhi.n	8008014 <ff_convert+0x30>
 8007ff0:	4b09      	ldr	r3, [pc, #36]	; (8008018 <ff_convert+0x34>)
 8007ff2:	3880      	subs	r0, #128	; 0x80
 8007ff4:	f833 0010 	ldrh.w	r0, [r3, r0, lsl #1]
 8007ff8:	bd10      	pop	{r4, pc}
 8007ffa:	4a07      	ldr	r2, [pc, #28]	; (8008018 <ff_convert+0x34>)
 8007ffc:	f832 4b02 	ldrh.w	r4, [r2], #2
 8008000:	b28b      	uxth	r3, r1
 8008002:	4284      	cmp	r4, r0
 8008004:	d003      	beq.n	800800e <ff_convert+0x2a>
 8008006:	3101      	adds	r1, #1
 8008008:	2980      	cmp	r1, #128	; 0x80
 800800a:	d1f7      	bne.n	8007ffc <ff_convert+0x18>
 800800c:	460b      	mov	r3, r1
 800800e:	3380      	adds	r3, #128	; 0x80
 8008010:	b2d8      	uxtb	r0, r3
 8008012:	e7f1      	b.n	8007ff8 <ff_convert+0x14>
 8008014:	2000      	movs	r0, #0
 8008016:	e7ef      	b.n	8007ff8 <ff_convert+0x14>
 8008018:	0800d56c 	.word	0x0800d56c

0800801c <ff_wtoupper>:
 800801c:	2300      	movs	r3, #0
 800801e:	4906      	ldr	r1, [pc, #24]	; (8008038 <ff_wtoupper+0x1c>)
 8008020:	f831 2b02 	ldrh.w	r2, [r1], #2
 8008024:	b122      	cbz	r2, 8008030 <ff_wtoupper+0x14>
 8008026:	4282      	cmp	r2, r0
 8008028:	d103      	bne.n	8008032 <ff_wtoupper+0x16>
 800802a:	4a04      	ldr	r2, [pc, #16]	; (800803c <ff_wtoupper+0x20>)
 800802c:	f832 0013 	ldrh.w	r0, [r2, r3, lsl #1]
 8008030:	4770      	bx	lr
 8008032:	3301      	adds	r3, #1
 8008034:	e7f4      	b.n	8008020 <ff_wtoupper+0x4>
 8008036:	bf00      	nop
 8008038:	0800d66c 	.word	0x0800d66c
 800803c:	0800d84c 	.word	0x0800d84c

08008040 <__cvt>:
 8008040:	2b00      	cmp	r3, #0
 8008042:	e92d 47f0 	stmdb	sp!, {r4, r5, r6, r7, r8, r9, sl, lr}
 8008046:	461f      	mov	r7, r3
 8008048:	bfbb      	ittet	lt
 800804a:	f103 4300 	addlt.w	r3, r3, #2147483648	; 0x80000000
 800804e:	461f      	movlt	r7, r3
 8008050:	2300      	movge	r3, #0
 8008052:	232d      	movlt	r3, #45	; 0x2d
 8008054:	b088      	sub	sp, #32
 8008056:	4614      	mov	r4, r2
 8008058:	9a12      	ldr	r2, [sp, #72]	; 0x48
 800805a:	9d10      	ldr	r5, [sp, #64]	; 0x40
 800805c:	7013      	strb	r3, [r2, #0]
 800805e:	9b14      	ldr	r3, [sp, #80]	; 0x50
 8008060:	f8dd a04c 	ldr.w	sl, [sp, #76]	; 0x4c
 8008064:	f023 0820 	bic.w	r8, r3, #32
 8008068:	f1b8 0f46 	cmp.w	r8, #70	; 0x46
 800806c:	d005      	beq.n	800807a <__cvt+0x3a>
 800806e:	f1b8 0f45 	cmp.w	r8, #69	; 0x45
 8008072:	d100      	bne.n	8008076 <__cvt+0x36>
 8008074:	3501      	adds	r5, #1
 8008076:	2302      	movs	r3, #2
 8008078:	e000      	b.n	800807c <__cvt+0x3c>
 800807a:	2303      	movs	r3, #3
 800807c:	aa07      	add	r2, sp, #28
 800807e:	9204      	str	r2, [sp, #16]
 8008080:	aa06      	add	r2, sp, #24
 8008082:	e9cd a202 	strd	sl, r2, [sp, #8]
 8008086:	e9cd 3500 	strd	r3, r5, [sp]
 800808a:	4622      	mov	r2, r4
 800808c:	463b      	mov	r3, r7
 800808e:	f000 fe7f 	bl	8008d90 <_dtoa_r>
 8008092:	f1b8 0f47 	cmp.w	r8, #71	; 0x47
 8008096:	4606      	mov	r6, r0
 8008098:	d102      	bne.n	80080a0 <__cvt+0x60>
 800809a:	9b11      	ldr	r3, [sp, #68]	; 0x44
 800809c:	07db      	lsls	r3, r3, #31
 800809e:	d522      	bpl.n	80080e6 <__cvt+0xa6>
 80080a0:	f1b8 0f46 	cmp.w	r8, #70	; 0x46
 80080a4:	eb06 0905 	add.w	r9, r6, r5
 80080a8:	d110      	bne.n	80080cc <__cvt+0x8c>
 80080aa:	7833      	ldrb	r3, [r6, #0]
 80080ac:	2b30      	cmp	r3, #48	; 0x30
 80080ae:	d10a      	bne.n	80080c6 <__cvt+0x86>
 80080b0:	2200      	movs	r2, #0
 80080b2:	2300      	movs	r3, #0
 80080b4:	4620      	mov	r0, r4
 80080b6:	4639      	mov	r1, r7
 80080b8:	f7f8 fc76 	bl	80009a8 <__aeabi_dcmpeq>
 80080bc:	b918      	cbnz	r0, 80080c6 <__cvt+0x86>
 80080be:	f1c5 0501 	rsb	r5, r5, #1
 80080c2:	f8ca 5000 	str.w	r5, [sl]
 80080c6:	f8da 3000 	ldr.w	r3, [sl]
 80080ca:	4499      	add	r9, r3
 80080cc:	2200      	movs	r2, #0
 80080ce:	2300      	movs	r3, #0
 80080d0:	4620      	mov	r0, r4
 80080d2:	4639      	mov	r1, r7
 80080d4:	f7f8 fc68 	bl	80009a8 <__aeabi_dcmpeq>
 80080d8:	b108      	cbz	r0, 80080de <__cvt+0x9e>
 80080da:	f8cd 901c 	str.w	r9, [sp, #28]
 80080de:	2230      	movs	r2, #48	; 0x30
 80080e0:	9b07      	ldr	r3, [sp, #28]
 80080e2:	454b      	cmp	r3, r9
 80080e4:	d307      	bcc.n	80080f6 <__cvt+0xb6>
 80080e6:	4630      	mov	r0, r6
 80080e8:	9b07      	ldr	r3, [sp, #28]
 80080ea:	9a15      	ldr	r2, [sp, #84]	; 0x54
 80080ec:	1b9b      	subs	r3, r3, r6
 80080ee:	6013      	str	r3, [r2, #0]
 80080f0:	b008      	add	sp, #32
 80080f2:	e8bd 87f0 	ldmia.w	sp!, {r4, r5, r6, r7, r8, r9, sl, pc}
 80080f6:	1c59      	adds	r1, r3, #1
 80080f8:	9107      	str	r1, [sp, #28]
 80080fa:	701a      	strb	r2, [r3, #0]
 80080fc:	e7f0      	b.n	80080e0 <__cvt+0xa0>

080080fe <__exponent>:
 80080fe:	4603      	mov	r3, r0
 8008100:	b5f7      	push	{r0, r1, r2, r4, r5, r6, r7, lr}
 8008102:	2900      	cmp	r1, #0
 8008104:	f803 2b02 	strb.w	r2, [r3], #2
 8008108:	bfb6      	itet	lt
 800810a:	222d      	movlt	r2, #45	; 0x2d
 800810c:	222b      	movge	r2, #43	; 0x2b
 800810e:	4249      	neglt	r1, r1
 8008110:	2909      	cmp	r1, #9
 8008112:	7042      	strb	r2, [r0, #1]
 8008114:	dd2a      	ble.n	800816c <__exponent+0x6e>
 8008116:	f10d 0207 	add.w	r2, sp, #7
 800811a:	4617      	mov	r7, r2
 800811c:	260a      	movs	r6, #10
 800811e:	fb91 f5f6 	sdiv	r5, r1, r6
 8008122:	4694      	mov	ip, r2
 8008124:	fb06 1415 	mls	r4, r6, r5, r1
 8008128:	3430      	adds	r4, #48	; 0x30
 800812a:	f80c 4c01 	strb.w	r4, [ip, #-1]
 800812e:	460c      	mov	r4, r1
 8008130:	2c63      	cmp	r4, #99	; 0x63
 8008132:	4629      	mov	r1, r5
 8008134:	f102 32ff 	add.w	r2, r2, #4294967295
 8008138:	dcf1      	bgt.n	800811e <__exponent+0x20>
 800813a:	3130      	adds	r1, #48	; 0x30
 800813c:	f1ac 0402 	sub.w	r4, ip, #2
 8008140:	f802 1c01 	strb.w	r1, [r2, #-1]
 8008144:	4622      	mov	r2, r4
 8008146:	1c41      	adds	r1, r0, #1
 8008148:	42ba      	cmp	r2, r7
 800814a:	d30a      	bcc.n	8008162 <__exponent+0x64>
 800814c:	f10d 0209 	add.w	r2, sp, #9
 8008150:	eba2 020c 	sub.w	r2, r2, ip
 8008154:	42bc      	cmp	r4, r7
 8008156:	bf88      	it	hi
 8008158:	2200      	movhi	r2, #0
 800815a:	4413      	add	r3, r2
 800815c:	1a18      	subs	r0, r3, r0
 800815e:	b003      	add	sp, #12
 8008160:	bdf0      	pop	{r4, r5, r6, r7, pc}
 8008162:	f812 5b01 	ldrb.w	r5, [r2], #1
 8008166:	f801 5f01 	strb.w	r5, [r1, #1]!
 800816a:	e7ed      	b.n	8008148 <__exponent+0x4a>
 800816c:	2330      	movs	r3, #48	; 0x30
 800816e:	3130      	adds	r1, #48	; 0x30
 8008170:	7083      	strb	r3, [r0, #2]
 8008172:	70c1      	strb	r1, [r0, #3]
 8008174:	1d03      	adds	r3, r0, #4
 8008176:	e7f1      	b.n	800815c <__exponent+0x5e>

08008178 <_printf_float>:
 8008178:	e92d 4ff0 	stmdb	sp!, {r4, r5, r6, r7, r8, r9, sl, fp, lr}
 800817c:	b091      	sub	sp, #68	; 0x44
 800817e:	460c      	mov	r4, r1
 8008180:	f8dd 8068 	ldr.w	r8, [sp, #104]	; 0x68
 8008184:	4616      	mov	r6, r2
 8008186:	461f      	mov	r7, r3
 8008188:	4605      	mov	r5, r0
 800818a:	f000 fce5 	bl	8008b58 <_localeconv_r>
 800818e:	6803      	ldr	r3, [r0, #0]
 8008190:	4618      	mov	r0, r3
 8008192:	9309      	str	r3, [sp, #36]	; 0x24
 8008194:	f7f7 ffdc 	bl	8000150 <strlen>
 8008198:	2300      	movs	r3, #0
 800819a:	930e      	str	r3, [sp, #56]	; 0x38
 800819c:	f8d8 3000 	ldr.w	r3, [r8]
 80081a0:	900a      	str	r0, [sp, #40]	; 0x28
 80081a2:	3307      	adds	r3, #7
 80081a4:	f023 0307 	bic.w	r3, r3, #7
 80081a8:	f103 0208 	add.w	r2, r3, #8
 80081ac:	f894 9018 	ldrb.w	r9, [r4, #24]
 80081b0:	f8d4 b000 	ldr.w	fp, [r4]
 80081b4:	f8c8 2000 	str.w	r2, [r8]
 80081b8:	e9d3 a800 	ldrd	sl, r8, [r3]
 80081bc:	4652      	mov	r2, sl
 80081be:	4643      	mov	r3, r8
 80081c0:	e9c4 2312 	strd	r2, r3, [r4, #72]	; 0x48
 80081c4:	f028 4300 	bic.w	r3, r8, #2147483648	; 0x80000000
 80081c8:	930b      	str	r3, [sp, #44]	; 0x2c
 80081ca:	f04f 32ff 	mov.w	r2, #4294967295
 80081ce:	4650      	mov	r0, sl
 80081d0:	4b9c      	ldr	r3, [pc, #624]	; (8008444 <_printf_float+0x2cc>)
 80081d2:	990b      	ldr	r1, [sp, #44]	; 0x2c
 80081d4:	f7f8 fc1a 	bl	8000a0c <__aeabi_dcmpun>
 80081d8:	bb70      	cbnz	r0, 8008238 <_printf_float+0xc0>
 80081da:	f04f 32ff 	mov.w	r2, #4294967295
 80081de:	4650      	mov	r0, sl
 80081e0:	4b98      	ldr	r3, [pc, #608]	; (8008444 <_printf_float+0x2cc>)
 80081e2:	990b      	ldr	r1, [sp, #44]	; 0x2c
 80081e4:	f7f8 fbf4 	bl	80009d0 <__aeabi_dcmple>
 80081e8:	bb30      	cbnz	r0, 8008238 <_printf_float+0xc0>
 80081ea:	2200      	movs	r2, #0
 80081ec:	2300      	movs	r3, #0
 80081ee:	4650      	mov	r0, sl
 80081f0:	4641      	mov	r1, r8
 80081f2:	f7f8 fbe3 	bl	80009bc <__aeabi_dcmplt>
 80081f6:	b110      	cbz	r0, 80081fe <_printf_float+0x86>
 80081f8:	232d      	movs	r3, #45	; 0x2d
 80081fa:	f884 3043 	strb.w	r3, [r4, #67]	; 0x43
 80081fe:	4a92      	ldr	r2, [pc, #584]	; (8008448 <_printf_float+0x2d0>)
 8008200:	4b92      	ldr	r3, [pc, #584]	; (800844c <_printf_float+0x2d4>)
 8008202:	f1b9 0f47 	cmp.w	r9, #71	; 0x47
 8008206:	bf94      	ite	ls
 8008208:	4690      	movls	r8, r2
 800820a:	4698      	movhi	r8, r3
 800820c:	2303      	movs	r3, #3
 800820e:	f04f 0a00 	mov.w	sl, #0
 8008212:	6123      	str	r3, [r4, #16]
 8008214:	f02b 0304 	bic.w	r3, fp, #4
 8008218:	6023      	str	r3, [r4, #0]
 800821a:	4633      	mov	r3, r6
 800821c:	4621      	mov	r1, r4
 800821e:	4628      	mov	r0, r5
 8008220:	9700      	str	r7, [sp, #0]
 8008222:	aa0f      	add	r2, sp, #60	; 0x3c
 8008224:	f000 f9d6 	bl	80085d4 <_printf_common>
 8008228:	3001      	adds	r0, #1
 800822a:	f040 8090 	bne.w	800834e <_printf_float+0x1d6>
 800822e:	f04f 30ff 	mov.w	r0, #4294967295
 8008232:	b011      	add	sp, #68	; 0x44
 8008234:	e8bd 8ff0 	ldmia.w	sp!, {r4, r5, r6, r7, r8, r9, sl, fp, pc}
 8008238:	4652      	mov	r2, sl
 800823a:	4643      	mov	r3, r8
 800823c:	4650      	mov	r0, sl
 800823e:	4641      	mov	r1, r8
 8008240:	f7f8 fbe4 	bl	8000a0c <__aeabi_dcmpun>
 8008244:	b148      	cbz	r0, 800825a <_printf_float+0xe2>
 8008246:	f1b8 0f00 	cmp.w	r8, #0
 800824a:	bfb8      	it	lt
 800824c:	232d      	movlt	r3, #45	; 0x2d
 800824e:	4a80      	ldr	r2, [pc, #512]	; (8008450 <_printf_float+0x2d8>)
 8008250:	bfb8      	it	lt
 8008252:	f884 3043 	strblt.w	r3, [r4, #67]	; 0x43
 8008256:	4b7f      	ldr	r3, [pc, #508]	; (8008454 <_printf_float+0x2dc>)
 8008258:	e7d3      	b.n	8008202 <_printf_float+0x8a>
 800825a:	6863      	ldr	r3, [r4, #4]
 800825c:	f009 01df 	and.w	r1, r9, #223	; 0xdf
 8008260:	1c5a      	adds	r2, r3, #1
 8008262:	d142      	bne.n	80082ea <_printf_float+0x172>
 8008264:	2306      	movs	r3, #6
 8008266:	6063      	str	r3, [r4, #4]
 8008268:	2200      	movs	r2, #0
 800826a:	9206      	str	r2, [sp, #24]
 800826c:	aa0e      	add	r2, sp, #56	; 0x38
 800826e:	e9cd 9204 	strd	r9, r2, [sp, #16]
 8008272:	aa0d      	add	r2, sp, #52	; 0x34
 8008274:	f44b 6380 	orr.w	r3, fp, #1024	; 0x400
 8008278:	9203      	str	r2, [sp, #12]
 800827a:	f10d 0233 	add.w	r2, sp, #51	; 0x33
 800827e:	e9cd 3201 	strd	r3, r2, [sp, #4]
 8008282:	6023      	str	r3, [r4, #0]
 8008284:	6863      	ldr	r3, [r4, #4]
 8008286:	4652      	mov	r2, sl
 8008288:	9300      	str	r3, [sp, #0]
 800828a:	4628      	mov	r0, r5
 800828c:	4643      	mov	r3, r8
 800828e:	910b      	str	r1, [sp, #44]	; 0x2c
 8008290:	f7ff fed6 	bl	8008040 <__cvt>
 8008294:	990b      	ldr	r1, [sp, #44]	; 0x2c
 8008296:	4680      	mov	r8, r0
 8008298:	2947      	cmp	r1, #71	; 0x47
 800829a:	990d      	ldr	r1, [sp, #52]	; 0x34
 800829c:	d108      	bne.n	80082b0 <_printf_float+0x138>
 800829e:	1cc8      	adds	r0, r1, #3
 80082a0:	db02      	blt.n	80082a8 <_printf_float+0x130>
 80082a2:	6863      	ldr	r3, [r4, #4]
 80082a4:	4299      	cmp	r1, r3
 80082a6:	dd40      	ble.n	800832a <_printf_float+0x1b2>
 80082a8:	f1a9 0902 	sub.w	r9, r9, #2
 80082ac:	fa5f f989 	uxtb.w	r9, r9
 80082b0:	f1b9 0f65 	cmp.w	r9, #101	; 0x65
 80082b4:	d81f      	bhi.n	80082f6 <_printf_float+0x17e>
 80082b6:	464a      	mov	r2, r9
 80082b8:	3901      	subs	r1, #1
 80082ba:	f104 0050 	add.w	r0, r4, #80	; 0x50
 80082be:	910d      	str	r1, [sp, #52]	; 0x34
 80082c0:	f7ff ff1d 	bl	80080fe <__exponent>
 80082c4:	9a0e      	ldr	r2, [sp, #56]	; 0x38
 80082c6:	4682      	mov	sl, r0
 80082c8:	1813      	adds	r3, r2, r0
 80082ca:	2a01      	cmp	r2, #1
 80082cc:	6123      	str	r3, [r4, #16]
 80082ce:	dc02      	bgt.n	80082d6 <_printf_float+0x15e>
 80082d0:	6822      	ldr	r2, [r4, #0]
 80082d2:	07d2      	lsls	r2, r2, #31
 80082d4:	d501      	bpl.n	80082da <_printf_float+0x162>
 80082d6:	3301      	adds	r3, #1
 80082d8:	6123      	str	r3, [r4, #16]
 80082da:	f89d 3033 	ldrb.w	r3, [sp, #51]	; 0x33
 80082de:	2b00      	cmp	r3, #0
 80082e0:	d09b      	beq.n	800821a <_printf_float+0xa2>
 80082e2:	232d      	movs	r3, #45	; 0x2d
 80082e4:	f884 3043 	strb.w	r3, [r4, #67]	; 0x43
 80082e8:	e797      	b.n	800821a <_printf_float+0xa2>
 80082ea:	2947      	cmp	r1, #71	; 0x47
 80082ec:	d1bc      	bne.n	8008268 <_printf_float+0xf0>
 80082ee:	2b00      	cmp	r3, #0
 80082f0:	d1ba      	bne.n	8008268 <_printf_float+0xf0>
 80082f2:	2301      	movs	r3, #1
 80082f4:	e7b7      	b.n	8008266 <_printf_float+0xee>
 80082f6:	f1b9 0f66 	cmp.w	r9, #102	; 0x66
 80082fa:	d118      	bne.n	800832e <_printf_float+0x1b6>
 80082fc:	2900      	cmp	r1, #0
 80082fe:	6863      	ldr	r3, [r4, #4]
 8008300:	dd0b      	ble.n	800831a <_printf_float+0x1a2>
 8008302:	6121      	str	r1, [r4, #16]
 8008304:	b913      	cbnz	r3, 800830c <_printf_float+0x194>
 8008306:	6822      	ldr	r2, [r4, #0]
 8008308:	07d0      	lsls	r0, r2, #31
 800830a:	d502      	bpl.n	8008312 <_printf_float+0x19a>
 800830c:	3301      	adds	r3, #1
 800830e:	440b      	add	r3, r1
 8008310:	6123      	str	r3, [r4, #16]
 8008312:	f04f 0a00 	mov.w	sl, #0
 8008316:	65a1      	str	r1, [r4, #88]	; 0x58
 8008318:	e7df      	b.n	80082da <_printf_float+0x162>
 800831a:	b913      	cbnz	r3, 8008322 <_printf_float+0x1aa>
 800831c:	6822      	ldr	r2, [r4, #0]
 800831e:	07d2      	lsls	r2, r2, #31
 8008320:	d501      	bpl.n	8008326 <_printf_float+0x1ae>
 8008322:	3302      	adds	r3, #2
 8008324:	e7f4      	b.n	8008310 <_printf_float+0x198>
 8008326:	2301      	movs	r3, #1
 8008328:	e7f2      	b.n	8008310 <_printf_float+0x198>
 800832a:	f04f 0967 	mov.w	r9, #103	; 0x67
 800832e:	9b0e      	ldr	r3, [sp, #56]	; 0x38
 8008330:	4299      	cmp	r1, r3
 8008332:	db05      	blt.n	8008340 <_printf_float+0x1c8>
 8008334:	6823      	ldr	r3, [r4, #0]
 8008336:	6121      	str	r1, [r4, #16]
 8008338:	07d8      	lsls	r0, r3, #31
 800833a:	d5ea      	bpl.n	8008312 <_printf_float+0x19a>
 800833c:	1c4b      	adds	r3, r1, #1
 800833e:	e7e7      	b.n	8008310 <_printf_float+0x198>
 8008340:	2900      	cmp	r1, #0
 8008342:	bfcc      	ite	gt
 8008344:	2201      	movgt	r2, #1
 8008346:	f1c1 0202 	rsble	r2, r1, #2
 800834a:	4413      	add	r3, r2
 800834c:	e7e0      	b.n	8008310 <_printf_float+0x198>
 800834e:	6823      	ldr	r3, [r4, #0]
 8008350:	055a      	lsls	r2, r3, #21
 8008352:	d407      	bmi.n	8008364 <_printf_float+0x1ec>
 8008354:	6923      	ldr	r3, [r4, #16]
 8008356:	4642      	mov	r2, r8
 8008358:	4631      	mov	r1, r6
 800835a:	4628      	mov	r0, r5
 800835c:	47b8      	blx	r7
 800835e:	3001      	adds	r0, #1
 8008360:	d12b      	bne.n	80083ba <_printf_float+0x242>
 8008362:	e764      	b.n	800822e <_printf_float+0xb6>
 8008364:	f1b9 0f65 	cmp.w	r9, #101	; 0x65
 8008368:	f240 80dd 	bls.w	8008526 <_printf_float+0x3ae>
 800836c:	e9d4 0112 	ldrd	r0, r1, [r4, #72]	; 0x48
 8008370:	2200      	movs	r2, #0
 8008372:	2300      	movs	r3, #0
 8008374:	f7f8 fb18 	bl	80009a8 <__aeabi_dcmpeq>
 8008378:	2800      	cmp	r0, #0
 800837a:	d033      	beq.n	80083e4 <_printf_float+0x26c>
 800837c:	2301      	movs	r3, #1
 800837e:	4631      	mov	r1, r6
 8008380:	4628      	mov	r0, r5
 8008382:	4a35      	ldr	r2, [pc, #212]	; (8008458 <_printf_float+0x2e0>)
 8008384:	47b8      	blx	r7
 8008386:	3001      	adds	r0, #1
 8008388:	f43f af51 	beq.w	800822e <_printf_float+0xb6>
 800838c:	e9dd 230d 	ldrd	r2, r3, [sp, #52]	; 0x34
 8008390:	429a      	cmp	r2, r3
 8008392:	db02      	blt.n	800839a <_printf_float+0x222>
 8008394:	6823      	ldr	r3, [r4, #0]
 8008396:	07d8      	lsls	r0, r3, #31
 8008398:	d50f      	bpl.n	80083ba <_printf_float+0x242>
 800839a:	e9dd 2309 	ldrd	r2, r3, [sp, #36]	; 0x24
 800839e:	4631      	mov	r1, r6
 80083a0:	4628      	mov	r0, r5
 80083a2:	47b8      	blx	r7
 80083a4:	3001      	adds	r0, #1
 80083a6:	f43f af42 	beq.w	800822e <_printf_float+0xb6>
 80083aa:	f04f 0800 	mov.w	r8, #0
 80083ae:	f104 091a 	add.w	r9, r4, #26
 80083b2:	9b0e      	ldr	r3, [sp, #56]	; 0x38
 80083b4:	3b01      	subs	r3, #1
 80083b6:	4543      	cmp	r3, r8
 80083b8:	dc09      	bgt.n	80083ce <_printf_float+0x256>
 80083ba:	6823      	ldr	r3, [r4, #0]
 80083bc:	079b      	lsls	r3, r3, #30
 80083be:	f100 8104 	bmi.w	80085ca <_printf_float+0x452>
 80083c2:	68e0      	ldr	r0, [r4, #12]
 80083c4:	9b0f      	ldr	r3, [sp, #60]	; 0x3c
 80083c6:	4298      	cmp	r0, r3
 80083c8:	bfb8      	it	lt
 80083ca:	4618      	movlt	r0, r3
 80083cc:	e731      	b.n	8008232 <_printf_float+0xba>
 80083ce:	2301      	movs	r3, #1
 80083d0:	464a      	mov	r2, r9
 80083d2:	4631      	mov	r1, r6
 80083d4:	4628      	mov	r0, r5
 80083d6:	47b8      	blx	r7
 80083d8:	3001      	adds	r0, #1
 80083da:	f43f af28 	beq.w	800822e <_printf_float+0xb6>
 80083de:	f108 0801 	add.w	r8, r8, #1
 80083e2:	e7e6      	b.n	80083b2 <_printf_float+0x23a>
 80083e4:	9b0d      	ldr	r3, [sp, #52]	; 0x34
 80083e6:	2b00      	cmp	r3, #0
 80083e8:	dc38      	bgt.n	800845c <_printf_float+0x2e4>
 80083ea:	2301      	movs	r3, #1
 80083ec:	4631      	mov	r1, r6
 80083ee:	4628      	mov	r0, r5
 80083f0:	4a19      	ldr	r2, [pc, #100]	; (8008458 <_printf_float+0x2e0>)
 80083f2:	47b8      	blx	r7
 80083f4:	3001      	adds	r0, #1
 80083f6:	f43f af1a 	beq.w	800822e <_printf_float+0xb6>
 80083fa:	e9dd 320d 	ldrd	r3, r2, [sp, #52]	; 0x34
 80083fe:	4313      	orrs	r3, r2
 8008400:	d102      	bne.n	8008408 <_printf_float+0x290>
 8008402:	6823      	ldr	r3, [r4, #0]
 8008404:	07d9      	lsls	r1, r3, #31
 8008406:	d5d8      	bpl.n	80083ba <_printf_float+0x242>
 8008408:	e9dd 2309 	ldrd	r2, r3, [sp, #36]	; 0x24
 800840c:	4631      	mov	r1, r6
 800840e:	4628      	mov	r0, r5
 8008410:	47b8      	blx	r7
 8008412:	3001      	adds	r0, #1
 8008414:	f43f af0b 	beq.w	800822e <_printf_float+0xb6>
 8008418:	f04f 0900 	mov.w	r9, #0
 800841c:	f104 0a1a 	add.w	sl, r4, #26
 8008420:	9b0d      	ldr	r3, [sp, #52]	; 0x34
 8008422:	425b      	negs	r3, r3
 8008424:	454b      	cmp	r3, r9
 8008426:	dc01      	bgt.n	800842c <_printf_float+0x2b4>
 8008428:	9b0e      	ldr	r3, [sp, #56]	; 0x38
 800842a:	e794      	b.n	8008356 <_printf_float+0x1de>
 800842c:	2301      	movs	r3, #1
 800842e:	4652      	mov	r2, sl
 8008430:	4631      	mov	r1, r6
 8008432:	4628      	mov	r0, r5
 8008434:	47b8      	blx	r7
 8008436:	3001      	adds	r0, #1
 8008438:	f43f aef9 	beq.w	800822e <_printf_float+0xb6>
 800843c:	f109 0901 	add.w	r9, r9, #1
 8008440:	e7ee      	b.n	8008420 <_printf_float+0x2a8>
 8008442:	bf00      	nop
 8008444:	7fefffff 	.word	0x7fefffff
 8008448:	0800da2c 	.word	0x0800da2c
 800844c:	0800da30 	.word	0x0800da30
 8008450:	0800da34 	.word	0x0800da34
 8008454:	0800da38 	.word	0x0800da38
 8008458:	0800da3c 	.word	0x0800da3c
 800845c:	9a0e      	ldr	r2, [sp, #56]	; 0x38
 800845e:	6da3      	ldr	r3, [r4, #88]	; 0x58
 8008460:	429a      	cmp	r2, r3
 8008462:	bfa8      	it	ge
 8008464:	461a      	movge	r2, r3
 8008466:	2a00      	cmp	r2, #0
 8008468:	4691      	mov	r9, r2
 800846a:	dc37      	bgt.n	80084dc <_printf_float+0x364>
 800846c:	f04f 0b00 	mov.w	fp, #0
 8008470:	ea29 79e9 	bic.w	r9, r9, r9, asr #31
 8008474:	f104 021a 	add.w	r2, r4, #26
 8008478:	f8d4 a058 	ldr.w	sl, [r4, #88]	; 0x58
 800847c:	ebaa 0309 	sub.w	r3, sl, r9
 8008480:	455b      	cmp	r3, fp
 8008482:	dc33      	bgt.n	80084ec <_printf_float+0x374>
 8008484:	e9dd 230d 	ldrd	r2, r3, [sp, #52]	; 0x34
 8008488:	429a      	cmp	r2, r3
 800848a:	db3b      	blt.n	8008504 <_printf_float+0x38c>
 800848c:	6823      	ldr	r3, [r4, #0]
 800848e:	07da      	lsls	r2, r3, #31
 8008490:	d438      	bmi.n	8008504 <_printf_float+0x38c>
 8008492:	e9dd 320d 	ldrd	r3, r2, [sp, #52]	; 0x34
 8008496:	eba2 0903 	sub.w	r9, r2, r3
 800849a:	eba2 020a 	sub.w	r2, r2, sl
 800849e:	4591      	cmp	r9, r2
 80084a0:	bfa8      	it	ge
 80084a2:	4691      	movge	r9, r2
 80084a4:	f1b9 0f00 	cmp.w	r9, #0
 80084a8:	dc34      	bgt.n	8008514 <_printf_float+0x39c>
 80084aa:	f04f 0800 	mov.w	r8, #0
 80084ae:	ea29 79e9 	bic.w	r9, r9, r9, asr #31
 80084b2:	f104 0a1a 	add.w	sl, r4, #26
 80084b6:	e9dd 230d 	ldrd	r2, r3, [sp, #52]	; 0x34
 80084ba:	1a9b      	subs	r3, r3, r2
 80084bc:	eba3 0309 	sub.w	r3, r3, r9
 80084c0:	4543      	cmp	r3, r8
 80084c2:	f77f af7a 	ble.w	80083ba <_printf_float+0x242>
 80084c6:	2301      	movs	r3, #1
 80084c8:	4652      	mov	r2, sl
 80084ca:	4631      	mov	r1, r6
 80084cc:	4628      	mov	r0, r5
 80084ce:	47b8      	blx	r7
 80084d0:	3001      	adds	r0, #1
 80084d2:	f43f aeac 	beq.w	800822e <_printf_float+0xb6>
 80084d6:	f108 0801 	add.w	r8, r8, #1
 80084da:	e7ec      	b.n	80084b6 <_printf_float+0x33e>
 80084dc:	4613      	mov	r3, r2
 80084de:	4631      	mov	r1, r6
 80084e0:	4642      	mov	r2, r8
 80084e2:	4628      	mov	r0, r5
 80084e4:	47b8      	blx	r7
 80084e6:	3001      	adds	r0, #1
 80084e8:	d1c0      	bne.n	800846c <_printf_float+0x2f4>
 80084ea:	e6a0      	b.n	800822e <_printf_float+0xb6>
 80084ec:	2301      	movs	r3, #1
 80084ee:	4631      	mov	r1, r6
 80084f0:	4628      	mov	r0, r5
 80084f2:	920b      	str	r2, [sp, #44]	; 0x2c
 80084f4:	47b8      	blx	r7
 80084f6:	3001      	adds	r0, #1
 80084f8:	f43f ae99 	beq.w	800822e <_printf_float+0xb6>
 80084fc:	9a0b      	ldr	r2, [sp, #44]	; 0x2c
 80084fe:	f10b 0b01 	add.w	fp, fp, #1
 8008502:	e7b9      	b.n	8008478 <_printf_float+0x300>
 8008504:	4631      	mov	r1, r6
 8008506:	e9dd 2309 	ldrd	r2, r3, [sp, #36]	; 0x24
 800850a:	4628      	mov	r0, r5
 800850c:	47b8      	blx	r7
 800850e:	3001      	adds	r0, #1
 8008510:	d1bf      	bne.n	8008492 <_printf_float+0x31a>
 8008512:	e68c      	b.n	800822e <_printf_float+0xb6>
 8008514:	464b      	mov	r3, r9
 8008516:	4631      	mov	r1, r6
 8008518:	4628      	mov	r0, r5
 800851a:	eb08 020a 	add.w	r2, r8, sl
 800851e:	47b8      	blx	r7
 8008520:	3001      	adds	r0, #1
 8008522:	d1c2      	bne.n	80084aa <_printf_float+0x332>
 8008524:	e683      	b.n	800822e <_printf_float+0xb6>
 8008526:	9a0e      	ldr	r2, [sp, #56]	; 0x38
 8008528:	2a01      	cmp	r2, #1
 800852a:	dc01      	bgt.n	8008530 <_printf_float+0x3b8>
 800852c:	07db      	lsls	r3, r3, #31
 800852e:	d539      	bpl.n	80085a4 <_printf_float+0x42c>
 8008530:	2301      	movs	r3, #1
 8008532:	4642      	mov	r2, r8
 8008534:	4631      	mov	r1, r6
 8008536:	4628      	mov	r0, r5
 8008538:	47b8      	blx	r7
 800853a:	3001      	adds	r0, #1
 800853c:	f43f ae77 	beq.w	800822e <_printf_float+0xb6>
 8008540:	e9dd 2309 	ldrd	r2, r3, [sp, #36]	; 0x24
 8008544:	4631      	mov	r1, r6
 8008546:	4628      	mov	r0, r5
 8008548:	47b8      	blx	r7
 800854a:	3001      	adds	r0, #1
 800854c:	f43f ae6f 	beq.w	800822e <_printf_float+0xb6>
 8008550:	e9d4 0112 	ldrd	r0, r1, [r4, #72]	; 0x48
 8008554:	2200      	movs	r2, #0
 8008556:	2300      	movs	r3, #0
 8008558:	f8dd 9038 	ldr.w	r9, [sp, #56]	; 0x38
 800855c:	f7f8 fa24 	bl	80009a8 <__aeabi_dcmpeq>
 8008560:	b9d8      	cbnz	r0, 800859a <_printf_float+0x422>
 8008562:	f109 33ff 	add.w	r3, r9, #4294967295
 8008566:	f108 0201 	add.w	r2, r8, #1
 800856a:	4631      	mov	r1, r6
 800856c:	4628      	mov	r0, r5
 800856e:	47b8      	blx	r7
 8008570:	3001      	adds	r0, #1
 8008572:	d10e      	bne.n	8008592 <_printf_float+0x41a>
 8008574:	e65b      	b.n	800822e <_printf_float+0xb6>
 8008576:	2301      	movs	r3, #1
 8008578:	464a      	mov	r2, r9
 800857a:	4631      	mov	r1, r6
 800857c:	4628      	mov	r0, r5
 800857e:	47b8      	blx	r7
 8008580:	3001      	adds	r0, #1
 8008582:	f43f ae54 	beq.w	800822e <_printf_float+0xb6>
 8008586:	f108 0801 	add.w	r8, r8, #1
 800858a:	9b0e      	ldr	r3, [sp, #56]	; 0x38
 800858c:	3b01      	subs	r3, #1
 800858e:	4543      	cmp	r3, r8
 8008590:	dcf1      	bgt.n	8008576 <_printf_float+0x3fe>
 8008592:	4653      	mov	r3, sl
 8008594:	f104 0250 	add.w	r2, r4, #80	; 0x50
 8008598:	e6de      	b.n	8008358 <_printf_float+0x1e0>
 800859a:	f04f 0800 	mov.w	r8, #0
 800859e:	f104 091a 	add.w	r9, r4, #26
 80085a2:	e7f2      	b.n	800858a <_printf_float+0x412>
 80085a4:	2301      	movs	r3, #1
 80085a6:	4642      	mov	r2, r8
 80085a8:	e7df      	b.n	800856a <_printf_float+0x3f2>
 80085aa:	2301      	movs	r3, #1
 80085ac:	464a      	mov	r2, r9
 80085ae:	4631      	mov	r1, r6
 80085b0:	4628      	mov	r0, r5
 80085b2:	47b8      	blx	r7
 80085b4:	3001      	adds	r0, #1
 80085b6:	f43f ae3a 	beq.w	800822e <_printf_float+0xb6>
 80085ba:	f108 0801 	add.w	r8, r8, #1
 80085be:	68e3      	ldr	r3, [r4, #12]
 80085c0:	990f      	ldr	r1, [sp, #60]	; 0x3c
 80085c2:	1a5b      	subs	r3, r3, r1
 80085c4:	4543      	cmp	r3, r8
 80085c6:	dcf0      	bgt.n	80085aa <_printf_float+0x432>
 80085c8:	e6fb      	b.n	80083c2 <_printf_float+0x24a>
 80085ca:	f04f 0800 	mov.w	r8, #0
 80085ce:	f104 0919 	add.w	r9, r4, #25
 80085d2:	e7f4      	b.n	80085be <_printf_float+0x446>

080085d4 <_printf_common>:
 80085d4:	e92d 47f0 	stmdb	sp!, {r4, r5, r6, r7, r8, r9, sl, lr}
 80085d8:	4616      	mov	r6, r2
 80085da:	4699      	mov	r9, r3
 80085dc:	688a      	ldr	r2, [r1, #8]
 80085de:	690b      	ldr	r3, [r1, #16]
 80085e0:	4607      	mov	r7, r0
 80085e2:	4293      	cmp	r3, r2
 80085e4:	bfb8      	it	lt
 80085e6:	4613      	movlt	r3, r2
 80085e8:	6033      	str	r3, [r6, #0]
 80085ea:	f891 2043 	ldrb.w	r2, [r1, #67]	; 0x43
 80085ee:	460c      	mov	r4, r1
 80085f0:	f8dd 8020 	ldr.w	r8, [sp, #32]
 80085f4:	b10a      	cbz	r2, 80085fa <_printf_common+0x26>
 80085f6:	3301      	adds	r3, #1
 80085f8:	6033      	str	r3, [r6, #0]
 80085fa:	6823      	ldr	r3, [r4, #0]
 80085fc:	0699      	lsls	r1, r3, #26
 80085fe:	bf42      	ittt	mi
 8008600:	6833      	ldrmi	r3, [r6, #0]
 8008602:	3302      	addmi	r3, #2
 8008604:	6033      	strmi	r3, [r6, #0]
 8008606:	6825      	ldr	r5, [r4, #0]
 8008608:	f015 0506 	ands.w	r5, r5, #6
 800860c:	d106      	bne.n	800861c <_printf_common+0x48>
 800860e:	f104 0a19 	add.w	sl, r4, #25
 8008612:	68e3      	ldr	r3, [r4, #12]
 8008614:	6832      	ldr	r2, [r6, #0]
 8008616:	1a9b      	subs	r3, r3, r2
 8008618:	42ab      	cmp	r3, r5
 800861a:	dc2b      	bgt.n	8008674 <_printf_common+0xa0>
 800861c:	f894 2043 	ldrb.w	r2, [r4, #67]	; 0x43
 8008620:	1e13      	subs	r3, r2, #0
 8008622:	6822      	ldr	r2, [r4, #0]
 8008624:	bf18      	it	ne
 8008626:	2301      	movne	r3, #1
 8008628:	0692      	lsls	r2, r2, #26
 800862a:	d430      	bmi.n	800868e <_printf_common+0xba>
 800862c:	4649      	mov	r1, r9
 800862e:	4638      	mov	r0, r7
 8008630:	f104 0243 	add.w	r2, r4, #67	; 0x43
 8008634:	47c0      	blx	r8
 8008636:	3001      	adds	r0, #1
 8008638:	d023      	beq.n	8008682 <_printf_common+0xae>
 800863a:	6823      	ldr	r3, [r4, #0]
 800863c:	6922      	ldr	r2, [r4, #16]
 800863e:	f003 0306 	and.w	r3, r3, #6
 8008642:	2b04      	cmp	r3, #4
 8008644:	bf14      	ite	ne
 8008646:	2500      	movne	r5, #0
 8008648:	6833      	ldreq	r3, [r6, #0]
 800864a:	f04f 0600 	mov.w	r6, #0
 800864e:	bf08      	it	eq
 8008650:	68e5      	ldreq	r5, [r4, #12]
 8008652:	f104 041a 	add.w	r4, r4, #26
 8008656:	bf08      	it	eq
 8008658:	1aed      	subeq	r5, r5, r3
 800865a:	f854 3c12 	ldr.w	r3, [r4, #-18]
 800865e:	bf08      	it	eq
 8008660:	ea25 75e5 	biceq.w	r5, r5, r5, asr #31
 8008664:	4293      	cmp	r3, r2
 8008666:	bfc4      	itt	gt
 8008668:	1a9b      	subgt	r3, r3, r2
 800866a:	18ed      	addgt	r5, r5, r3
 800866c:	42b5      	cmp	r5, r6
 800866e:	d11a      	bne.n	80086a6 <_printf_common+0xd2>
 8008670:	2000      	movs	r0, #0
 8008672:	e008      	b.n	8008686 <_printf_common+0xb2>
 8008674:	2301      	movs	r3, #1
 8008676:	4652      	mov	r2, sl
 8008678:	4649      	mov	r1, r9
 800867a:	4638      	mov	r0, r7
 800867c:	47c0      	blx	r8
 800867e:	3001      	adds	r0, #1
 8008680:	d103      	bne.n	800868a <_printf_common+0xb6>
 8008682:	f04f 30ff 	mov.w	r0, #4294967295
 8008686:	e8bd 87f0 	ldmia.w	sp!, {r4, r5, r6, r7, r8, r9, sl, pc}
 800868a:	3501      	adds	r5, #1
 800868c:	e7c1      	b.n	8008612 <_printf_common+0x3e>
 800868e:	2030      	movs	r0, #48	; 0x30
 8008690:	18e1      	adds	r1, r4, r3
 8008692:	f881 0043 	strb.w	r0, [r1, #67]	; 0x43
 8008696:	1c5a      	adds	r2, r3, #1
 8008698:	f894 1045 	ldrb.w	r1, [r4, #69]	; 0x45
 800869c:	4422      	add	r2, r4
 800869e:	3302      	adds	r3, #2
 80086a0:	f882 1043 	strb.w	r1, [r2, #67]	; 0x43
 80086a4:	e7c2      	b.n	800862c <_printf_common+0x58>
 80086a6:	2301      	movs	r3, #1
 80086a8:	4622      	mov	r2, r4
 80086aa:	4649      	mov	r1, r9
 80086ac:	4638      	mov	r0, r7
 80086ae:	47c0      	blx	r8
 80086b0:	3001      	adds	r0, #1
 80086b2:	d0e6      	beq.n	8008682 <_printf_common+0xae>
 80086b4:	3601      	adds	r6, #1
 80086b6:	e7d9      	b.n	800866c <_printf_common+0x98>

080086b8 <_printf_i>:
 80086b8:	e92d 47ff 	stmdb	sp!, {r0, r1, r2, r3, r4, r5, r6, r7, r8, r9, sl, lr}
 80086bc:	7e0f      	ldrb	r7, [r1, #24]
 80086be:	4691      	mov	r9, r2
 80086c0:	2f78      	cmp	r7, #120	; 0x78
 80086c2:	4680      	mov	r8, r0
 80086c4:	460c      	mov	r4, r1
 80086c6:	469a      	mov	sl, r3
 80086c8:	9d0c      	ldr	r5, [sp, #48]	; 0x30
 80086ca:	f101 0243 	add.w	r2, r1, #67	; 0x43
 80086ce:	d807      	bhi.n	80086e0 <_printf_i+0x28>
 80086d0:	2f62      	cmp	r7, #98	; 0x62
 80086d2:	d80a      	bhi.n	80086ea <_printf_i+0x32>
 80086d4:	2f00      	cmp	r7, #0
 80086d6:	f000 80d5 	beq.w	8008884 <_printf_i+0x1cc>
 80086da:	2f58      	cmp	r7, #88	; 0x58
 80086dc:	f000 80c1 	beq.w	8008862 <_printf_i+0x1aa>
 80086e0:	f104 0542 	add.w	r5, r4, #66	; 0x42
 80086e4:	f884 7042 	strb.w	r7, [r4, #66]	; 0x42
 80086e8:	e03a      	b.n	8008760 <_printf_i+0xa8>
 80086ea:	f1a7 0363 	sub.w	r3, r7, #99	; 0x63
 80086ee:	2b15      	cmp	r3, #21
 80086f0:	d8f6      	bhi.n	80086e0 <_printf_i+0x28>
 80086f2:	a101      	add	r1, pc, #4	; (adr r1, 80086f8 <_printf_i+0x40>)
 80086f4:	f851 f023 	ldr.w	pc, [r1, r3, lsl #2]
 80086f8:	08008751 	.word	0x08008751
 80086fc:	08008765 	.word	0x08008765
 8008700:	080086e1 	.word	0x080086e1
 8008704:	080086e1 	.word	0x080086e1
 8008708:	080086e1 	.word	0x080086e1
 800870c:	080086e1 	.word	0x080086e1
 8008710:	08008765 	.word	0x08008765
 8008714:	080086e1 	.word	0x080086e1
 8008718:	080086e1 	.word	0x080086e1
 800871c:	080086e1 	.word	0x080086e1
 8008720:	080086e1 	.word	0x080086e1
 8008724:	0800886b 	.word	0x0800886b
 8008728:	08008791 	.word	0x08008791
 800872c:	08008825 	.word	0x08008825
 8008730:	080086e1 	.word	0x080086e1
 8008734:	080086e1 	.word	0x080086e1
 8008738:	0800888d 	.word	0x0800888d
 800873c:	080086e1 	.word	0x080086e1
 8008740:	08008791 	.word	0x08008791
 8008744:	080086e1 	.word	0x080086e1
 8008748:	080086e1 	.word	0x080086e1
 800874c:	0800882d 	.word	0x0800882d
 8008750:	682b      	ldr	r3, [r5, #0]
 8008752:	1d1a      	adds	r2, r3, #4
 8008754:	681b      	ldr	r3, [r3, #0]
 8008756:	602a      	str	r2, [r5, #0]
 8008758:	f104 0542 	add.w	r5, r4, #66	; 0x42
 800875c:	f884 3042 	strb.w	r3, [r4, #66]	; 0x42
 8008760:	2301      	movs	r3, #1
 8008762:	e0a0      	b.n	80088a6 <_printf_i+0x1ee>
 8008764:	6820      	ldr	r0, [r4, #0]
 8008766:	682b      	ldr	r3, [r5, #0]
 8008768:	0607      	lsls	r7, r0, #24
 800876a:	f103 0104 	add.w	r1, r3, #4
 800876e:	6029      	str	r1, [r5, #0]
 8008770:	d501      	bpl.n	8008776 <_printf_i+0xbe>
 8008772:	681e      	ldr	r6, [r3, #0]
 8008774:	e003      	b.n	800877e <_printf_i+0xc6>
 8008776:	0646      	lsls	r6, r0, #25
 8008778:	d5fb      	bpl.n	8008772 <_printf_i+0xba>
 800877a:	f9b3 6000 	ldrsh.w	r6, [r3]
 800877e:	2e00      	cmp	r6, #0
 8008780:	da03      	bge.n	800878a <_printf_i+0xd2>
 8008782:	232d      	movs	r3, #45	; 0x2d
 8008784:	4276      	negs	r6, r6
 8008786:	f884 3043 	strb.w	r3, [r4, #67]	; 0x43
 800878a:	230a      	movs	r3, #10
 800878c:	4859      	ldr	r0, [pc, #356]	; (80088f4 <_printf_i+0x23c>)
 800878e:	e012      	b.n	80087b6 <_printf_i+0xfe>
 8008790:	682b      	ldr	r3, [r5, #0]
 8008792:	6820      	ldr	r0, [r4, #0]
 8008794:	1d19      	adds	r1, r3, #4
 8008796:	6029      	str	r1, [r5, #0]
 8008798:	0605      	lsls	r5, r0, #24
 800879a:	d501      	bpl.n	80087a0 <_printf_i+0xe8>
 800879c:	681e      	ldr	r6, [r3, #0]
 800879e:	e002      	b.n	80087a6 <_printf_i+0xee>
 80087a0:	0641      	lsls	r1, r0, #25
 80087a2:	d5fb      	bpl.n	800879c <_printf_i+0xe4>
 80087a4:	881e      	ldrh	r6, [r3, #0]
 80087a6:	2f6f      	cmp	r7, #111	; 0x6f
 80087a8:	bf0c      	ite	eq
 80087aa:	2308      	moveq	r3, #8
 80087ac:	230a      	movne	r3, #10
 80087ae:	4851      	ldr	r0, [pc, #324]	; (80088f4 <_printf_i+0x23c>)
 80087b0:	2100      	movs	r1, #0
 80087b2:	f884 1043 	strb.w	r1, [r4, #67]	; 0x43
 80087b6:	6865      	ldr	r5, [r4, #4]
 80087b8:	2d00      	cmp	r5, #0
 80087ba:	bfa8      	it	ge
 80087bc:	6821      	ldrge	r1, [r4, #0]
 80087be:	60a5      	str	r5, [r4, #8]
 80087c0:	bfa4      	itt	ge
 80087c2:	f021 0104 	bicge.w	r1, r1, #4
 80087c6:	6021      	strge	r1, [r4, #0]
 80087c8:	b90e      	cbnz	r6, 80087ce <_printf_i+0x116>
 80087ca:	2d00      	cmp	r5, #0
 80087cc:	d04b      	beq.n	8008866 <_printf_i+0x1ae>
 80087ce:	4615      	mov	r5, r2
 80087d0:	fbb6 f1f3 	udiv	r1, r6, r3
 80087d4:	fb03 6711 	mls	r7, r3, r1, r6
 80087d8:	5dc7      	ldrb	r7, [r0, r7]
 80087da:	f805 7d01 	strb.w	r7, [r5, #-1]!
 80087de:	4637      	mov	r7, r6
 80087e0:	42bb      	cmp	r3, r7
 80087e2:	460e      	mov	r6, r1
 80087e4:	d9f4      	bls.n	80087d0 <_printf_i+0x118>
 80087e6:	2b08      	cmp	r3, #8
 80087e8:	d10b      	bne.n	8008802 <_printf_i+0x14a>
 80087ea:	6823      	ldr	r3, [r4, #0]
 80087ec:	07de      	lsls	r6, r3, #31
 80087ee:	d508      	bpl.n	8008802 <_printf_i+0x14a>
 80087f0:	6923      	ldr	r3, [r4, #16]
 80087f2:	6861      	ldr	r1, [r4, #4]
 80087f4:	4299      	cmp	r1, r3
 80087f6:	bfde      	ittt	le
 80087f8:	2330      	movle	r3, #48	; 0x30
 80087fa:	f805 3c01 	strble.w	r3, [r5, #-1]
 80087fe:	f105 35ff 	addle.w	r5, r5, #4294967295
 8008802:	1b52      	subs	r2, r2, r5
 8008804:	6122      	str	r2, [r4, #16]
 8008806:	464b      	mov	r3, r9
 8008808:	4621      	mov	r1, r4
 800880a:	4640      	mov	r0, r8
 800880c:	f8cd a000 	str.w	sl, [sp]
 8008810:	aa03      	add	r2, sp, #12
 8008812:	f7ff fedf 	bl	80085d4 <_printf_common>
 8008816:	3001      	adds	r0, #1
 8008818:	d14a      	bne.n	80088b0 <_printf_i+0x1f8>
 800881a:	f04f 30ff 	mov.w	r0, #4294967295
 800881e:	b004      	add	sp, #16
 8008820:	e8bd 87f0 	ldmia.w	sp!, {r4, r5, r6, r7, r8, r9, sl, pc}
 8008824:	6823      	ldr	r3, [r4, #0]
 8008826:	f043 0320 	orr.w	r3, r3, #32
 800882a:	6023      	str	r3, [r4, #0]
 800882c:	2778      	movs	r7, #120	; 0x78
 800882e:	4832      	ldr	r0, [pc, #200]	; (80088f8 <_printf_i+0x240>)
 8008830:	f884 7045 	strb.w	r7, [r4, #69]	; 0x45
 8008834:	6823      	ldr	r3, [r4, #0]
 8008836:	6829      	ldr	r1, [r5, #0]
 8008838:	061f      	lsls	r7, r3, #24
 800883a:	f851 6b04 	ldr.w	r6, [r1], #4
 800883e:	d402      	bmi.n	8008846 <_printf_i+0x18e>
 8008840:	065f      	lsls	r7, r3, #25
 8008842:	bf48      	it	mi
 8008844:	b2b6      	uxthmi	r6, r6
 8008846:	07df      	lsls	r7, r3, #31
 8008848:	bf48      	it	mi
 800884a:	f043 0320 	orrmi.w	r3, r3, #32
 800884e:	6029      	str	r1, [r5, #0]
 8008850:	bf48      	it	mi
 8008852:	6023      	strmi	r3, [r4, #0]
 8008854:	b91e      	cbnz	r6, 800885e <_printf_i+0x1a6>
 8008856:	6823      	ldr	r3, [r4, #0]
 8008858:	f023 0320 	bic.w	r3, r3, #32
 800885c:	6023      	str	r3, [r4, #0]
 800885e:	2310      	movs	r3, #16
 8008860:	e7a6      	b.n	80087b0 <_printf_i+0xf8>
 8008862:	4824      	ldr	r0, [pc, #144]	; (80088f4 <_printf_i+0x23c>)
 8008864:	e7e4      	b.n	8008830 <_printf_i+0x178>
 8008866:	4615      	mov	r5, r2
 8008868:	e7bd      	b.n	80087e6 <_printf_i+0x12e>
 800886a:	682b      	ldr	r3, [r5, #0]
 800886c:	6826      	ldr	r6, [r4, #0]
 800886e:	1d18      	adds	r0, r3, #4
 8008870:	6961      	ldr	r1, [r4, #20]
 8008872:	6028      	str	r0, [r5, #0]
 8008874:	0635      	lsls	r5, r6, #24
 8008876:	681b      	ldr	r3, [r3, #0]
 8008878:	d501      	bpl.n	800887e <_printf_i+0x1c6>
 800887a:	6019      	str	r1, [r3, #0]
 800887c:	e002      	b.n	8008884 <_printf_i+0x1cc>
 800887e:	0670      	lsls	r0, r6, #25
 8008880:	d5fb      	bpl.n	800887a <_printf_i+0x1c2>
 8008882:	8019      	strh	r1, [r3, #0]
 8008884:	2300      	movs	r3, #0
 8008886:	4615      	mov	r5, r2
 8008888:	6123      	str	r3, [r4, #16]
 800888a:	e7bc      	b.n	8008806 <_printf_i+0x14e>
 800888c:	682b      	ldr	r3, [r5, #0]
 800888e:	2100      	movs	r1, #0
 8008890:	1d1a      	adds	r2, r3, #4
 8008892:	602a      	str	r2, [r5, #0]
 8008894:	681d      	ldr	r5, [r3, #0]
 8008896:	6862      	ldr	r2, [r4, #4]
 8008898:	4628      	mov	r0, r5
 800889a:	f000 f9d3 	bl	8008c44 <memchr>
 800889e:	b108      	cbz	r0, 80088a4 <_printf_i+0x1ec>
 80088a0:	1b40      	subs	r0, r0, r5
 80088a2:	6060      	str	r0, [r4, #4]
 80088a4:	6863      	ldr	r3, [r4, #4]
 80088a6:	6123      	str	r3, [r4, #16]
 80088a8:	2300      	movs	r3, #0
 80088aa:	f884 3043 	strb.w	r3, [r4, #67]	; 0x43
 80088ae:	e7aa      	b.n	8008806 <_printf_i+0x14e>
 80088b0:	462a      	mov	r2, r5
 80088b2:	4649      	mov	r1, r9
 80088b4:	4640      	mov	r0, r8
 80088b6:	6923      	ldr	r3, [r4, #16]
 80088b8:	47d0      	blx	sl
 80088ba:	3001      	adds	r0, #1
 80088bc:	d0ad      	beq.n	800881a <_printf_i+0x162>
 80088be:	6823      	ldr	r3, [r4, #0]
 80088c0:	079b      	lsls	r3, r3, #30
 80088c2:	d413      	bmi.n	80088ec <_printf_i+0x234>
 80088c4:	68e0      	ldr	r0, [r4, #12]
 80088c6:	9b03      	ldr	r3, [sp, #12]
 80088c8:	4298      	cmp	r0, r3
 80088ca:	bfb8      	it	lt
 80088cc:	4618      	movlt	r0, r3
 80088ce:	e7a6      	b.n	800881e <_printf_i+0x166>
 80088d0:	2301      	movs	r3, #1
 80088d2:	4632      	mov	r2, r6
 80088d4:	4649      	mov	r1, r9
 80088d6:	4640      	mov	r0, r8
 80088d8:	47d0      	blx	sl
 80088da:	3001      	adds	r0, #1
 80088dc:	d09d      	beq.n	800881a <_printf_i+0x162>
 80088de:	3501      	adds	r5, #1
 80088e0:	68e3      	ldr	r3, [r4, #12]
 80088e2:	9903      	ldr	r1, [sp, #12]
 80088e4:	1a5b      	subs	r3, r3, r1
 80088e6:	42ab      	cmp	r3, r5
 80088e8:	dcf2      	bgt.n	80088d0 <_printf_i+0x218>
 80088ea:	e7eb      	b.n	80088c4 <_printf_i+0x20c>
 80088ec:	2500      	movs	r5, #0
 80088ee:	f104 0619 	add.w	r6, r4, #25
 80088f2:	e7f5      	b.n	80088e0 <_printf_i+0x228>
 80088f4:	0800da3e 	.word	0x0800da3e
 80088f8:	0800da4f 	.word	0x0800da4f

080088fc <std>:
 80088fc:	2300      	movs	r3, #0
 80088fe:	b510      	push	{r4, lr}
 8008900:	4604      	mov	r4, r0
 8008902:	e9c0 3300 	strd	r3, r3, [r0]
 8008906:	e9c0 3304 	strd	r3, r3, [r0, #16]
 800890a:	6083      	str	r3, [r0, #8]
 800890c:	8181      	strh	r1, [r0, #12]
 800890e:	6643      	str	r3, [r0, #100]	; 0x64
 8008910:	81c2      	strh	r2, [r0, #14]
 8008912:	6183      	str	r3, [r0, #24]
 8008914:	4619      	mov	r1, r3
 8008916:	2208      	movs	r2, #8
 8008918:	305c      	adds	r0, #92	; 0x5c
 800891a:	f000 f914 	bl	8008b46 <memset>
 800891e:	4b05      	ldr	r3, [pc, #20]	; (8008934 <std+0x38>)
 8008920:	6224      	str	r4, [r4, #32]
 8008922:	6263      	str	r3, [r4, #36]	; 0x24
 8008924:	4b04      	ldr	r3, [pc, #16]	; (8008938 <std+0x3c>)
 8008926:	62a3      	str	r3, [r4, #40]	; 0x28
 8008928:	4b04      	ldr	r3, [pc, #16]	; (800893c <std+0x40>)
 800892a:	62e3      	str	r3, [r4, #44]	; 0x2c
 800892c:	4b04      	ldr	r3, [pc, #16]	; (8008940 <std+0x44>)
 800892e:	6323      	str	r3, [r4, #48]	; 0x30
 8008930:	bd10      	pop	{r4, pc}
 8008932:	bf00      	nop
 8008934:	08008ac1 	.word	0x08008ac1
 8008938:	08008ae3 	.word	0x08008ae3
 800893c:	08008b1b 	.word	0x08008b1b
 8008940:	08008b3f 	.word	0x08008b3f

08008944 <stdio_exit_handler>:
 8008944:	4a02      	ldr	r2, [pc, #8]	; (8008950 <stdio_exit_handler+0xc>)
 8008946:	4903      	ldr	r1, [pc, #12]	; (8008954 <stdio_exit_handler+0x10>)
 8008948:	4803      	ldr	r0, [pc, #12]	; (8008958 <stdio_exit_handler+0x14>)
 800894a:	f000 b869 	b.w	8008a20 <_fwalk_sglue>
 800894e:	bf00      	nop
 8008950:	20000040 	.word	0x20000040
 8008954:	0800a879 	.word	0x0800a879
 8008958:	2000004c 	.word	0x2000004c

0800895c <cleanup_stdio>:
 800895c:	6841      	ldr	r1, [r0, #4]
 800895e:	4b0c      	ldr	r3, [pc, #48]	; (8008990 <cleanup_stdio+0x34>)
 8008960:	b510      	push	{r4, lr}
 8008962:	4299      	cmp	r1, r3
 8008964:	4604      	mov	r4, r0
 8008966:	d001      	beq.n	800896c <cleanup_stdio+0x10>
 8008968:	f001 ff86 	bl	800a878 <_fflush_r>
 800896c:	68a1      	ldr	r1, [r4, #8]
 800896e:	4b09      	ldr	r3, [pc, #36]	; (8008994 <cleanup_stdio+0x38>)
 8008970:	4299      	cmp	r1, r3
 8008972:	d002      	beq.n	800897a <cleanup_stdio+0x1e>
 8008974:	4620      	mov	r0, r4
 8008976:	f001 ff7f 	bl	800a878 <_fflush_r>
 800897a:	68e1      	ldr	r1, [r4, #12]
 800897c:	4b06      	ldr	r3, [pc, #24]	; (8008998 <cleanup_stdio+0x3c>)
 800897e:	4299      	cmp	r1, r3
 8008980:	d004      	beq.n	800898c <cleanup_stdio+0x30>
 8008982:	4620      	mov	r0, r4
 8008984:	e8bd 4010 	ldmia.w	sp!, {r4, lr}
 8008988:	f001 bf76 	b.w	800a878 <_fflush_r>
 800898c:	bd10      	pop	{r4, pc}
 800898e:	bf00      	nop
 8008990:	20002834 	.word	0x20002834
 8008994:	2000289c 	.word	0x2000289c
 8008998:	20002904 	.word	0x20002904

0800899c <global_stdio_init.part.0>:
 800899c:	b510      	push	{r4, lr}
 800899e:	4b0b      	ldr	r3, [pc, #44]	; (80089cc <global_stdio_init.part.0+0x30>)
 80089a0:	4c0b      	ldr	r4, [pc, #44]	; (80089d0 <global_stdio_init.part.0+0x34>)
 80089a2:	4a0c      	ldr	r2, [pc, #48]	; (80089d4 <global_stdio_init.part.0+0x38>)
 80089a4:	4620      	mov	r0, r4
 80089a6:	601a      	str	r2, [r3, #0]
 80089a8:	2104      	movs	r1, #4
 80089aa:	2200      	movs	r2, #0
 80089ac:	f7ff ffa6 	bl	80088fc <std>
 80089b0:	f104 0068 	add.w	r0, r4, #104	; 0x68
 80089b4:	2201      	movs	r2, #1
 80089b6:	2109      	movs	r1, #9
 80089b8:	f7ff ffa0 	bl	80088fc <std>
 80089bc:	f104 00d0 	add.w	r0, r4, #208	; 0xd0
 80089c0:	2202      	movs	r2, #2
 80089c2:	e8bd 4010 	ldmia.w	sp!, {r4, lr}
 80089c6:	2112      	movs	r1, #18
 80089c8:	f7ff bf98 	b.w	80088fc <std>
 80089cc:	2000296c 	.word	0x2000296c
 80089d0:	20002834 	.word	0x20002834
 80089d4:	08008945 	.word	0x08008945

080089d8 <__sfp_lock_acquire>:
 80089d8:	4801      	ldr	r0, [pc, #4]	; (80089e0 <__sfp_lock_acquire+0x8>)
 80089da:	f000 b931 	b.w	8008c40 <__retarget_lock_acquire_recursive>
 80089de:	bf00      	nop
 80089e0:	20002975 	.word	0x20002975

080089e4 <__sfp_lock_release>:
 80089e4:	4801      	ldr	r0, [pc, #4]	; (80089ec <__sfp_lock_release+0x8>)
 80089e6:	f000 b92c 	b.w	8008c42 <__retarget_lock_release_recursive>
 80089ea:	bf00      	nop
 80089ec:	20002975 	.word	0x20002975

080089f0 <__sinit>:
 80089f0:	b510      	push	{r4, lr}
 80089f2:	4604      	mov	r4, r0
 80089f4:	f7ff fff0 	bl	80089d8 <__sfp_lock_acquire>
 80089f8:	6a23      	ldr	r3, [r4, #32]
 80089fa:	b11b      	cbz	r3, 8008a04 <__sinit+0x14>
 80089fc:	e8bd 4010 	ldmia.w	sp!, {r4, lr}
 8008a00:	f7ff bff0 	b.w	80089e4 <__sfp_lock_release>
 8008a04:	4b04      	ldr	r3, [pc, #16]	; (8008a18 <__sinit+0x28>)
 8008a06:	6223      	str	r3, [r4, #32]
 8008a08:	4b04      	ldr	r3, [pc, #16]	; (8008a1c <__sinit+0x2c>)
 8008a0a:	681b      	ldr	r3, [r3, #0]
 8008a0c:	2b00      	cmp	r3, #0
 8008a0e:	d1f5      	bne.n	80089fc <__sinit+0xc>
 8008a10:	f7ff ffc4 	bl	800899c <global_stdio_init.part.0>
 8008a14:	e7f2      	b.n	80089fc <__sinit+0xc>
 8008a16:	bf00      	nop
 8008a18:	0800895d 	.word	0x0800895d
 8008a1c:	2000296c 	.word	0x2000296c

08008a20 <_fwalk_sglue>:
 8008a20:	e92d 43f8 	stmdb	sp!, {r3, r4, r5, r6, r7, r8, r9, lr}
 8008a24:	4607      	mov	r7, r0
 8008a26:	4688      	mov	r8, r1
 8008a28:	4614      	mov	r4, r2
 8008a2a:	2600      	movs	r6, #0
 8008a2c:	e9d4 9501 	ldrd	r9, r5, [r4, #4]
 8008a30:	f1b9 0901 	subs.w	r9, r9, #1
 8008a34:	d505      	bpl.n	8008a42 <_fwalk_sglue+0x22>
 8008a36:	6824      	ldr	r4, [r4, #0]
 8008a38:	2c00      	cmp	r4, #0
 8008a3a:	d1f7      	bne.n	8008a2c <_fwalk_sglue+0xc>
 8008a3c:	4630      	mov	r0, r6
 8008a3e:	e8bd 83f8 	ldmia.w	sp!, {r3, r4, r5, r6, r7, r8, r9, pc}
 8008a42:	89ab      	ldrh	r3, [r5, #12]
 8008a44:	2b01      	cmp	r3, #1
 8008a46:	d907      	bls.n	8008a58 <_fwalk_sglue+0x38>
 8008a48:	f9b5 300e 	ldrsh.w	r3, [r5, #14]
 8008a4c:	3301      	adds	r3, #1
 8008a4e:	d003      	beq.n	8008a58 <_fwalk_sglue+0x38>
 8008a50:	4629      	mov	r1, r5
 8008a52:	4638      	mov	r0, r7
 8008a54:	47c0      	blx	r8
 8008a56:	4306      	orrs	r6, r0
 8008a58:	3568      	adds	r5, #104	; 0x68
 8008a5a:	e7e9      	b.n	8008a30 <_fwalk_sglue+0x10>

08008a5c <iprintf>:
 8008a5c:	b40f      	push	{r0, r1, r2, r3}
 8008a5e:	b507      	push	{r0, r1, r2, lr}
 8008a60:	4906      	ldr	r1, [pc, #24]	; (8008a7c <iprintf+0x20>)
 8008a62:	ab04      	add	r3, sp, #16
 8008a64:	6808      	ldr	r0, [r1, #0]
 8008a66:	f853 2b04 	ldr.w	r2, [r3], #4
 8008a6a:	6881      	ldr	r1, [r0, #8]
 8008a6c:	9301      	str	r3, [sp, #4]
 8008a6e:	f001 fd67 	bl	800a540 <_vfiprintf_r>
 8008a72:	b003      	add	sp, #12
 8008a74:	f85d eb04 	ldr.w	lr, [sp], #4
 8008a78:	b004      	add	sp, #16
 8008a7a:	4770      	bx	lr
 8008a7c:	20000098 	.word	0x20000098

08008a80 <siprintf>:
 8008a80:	b40e      	push	{r1, r2, r3}
 8008a82:	f06f 4100 	mvn.w	r1, #2147483648	; 0x80000000
 8008a86:	b500      	push	{lr}
 8008a88:	b09c      	sub	sp, #112	; 0x70
 8008a8a:	ab1d      	add	r3, sp, #116	; 0x74
 8008a8c:	9002      	str	r0, [sp, #8]
 8008a8e:	9006      	str	r0, [sp, #24]
 8008a90:	9107      	str	r1, [sp, #28]
 8008a92:	9104      	str	r1, [sp, #16]
 8008a94:	4808      	ldr	r0, [pc, #32]	; (8008ab8 <siprintf+0x38>)
 8008a96:	4909      	ldr	r1, [pc, #36]	; (8008abc <siprintf+0x3c>)
 8008a98:	f853 2b04 	ldr.w	r2, [r3], #4
 8008a9c:	9105      	str	r1, [sp, #20]
 8008a9e:	6800      	ldr	r0, [r0, #0]
 8008aa0:	a902      	add	r1, sp, #8
 8008aa2:	9301      	str	r3, [sp, #4]
 8008aa4:	f001 fc26 	bl	800a2f4 <_svfiprintf_r>
 8008aa8:	2200      	movs	r2, #0
 8008aaa:	9b02      	ldr	r3, [sp, #8]
 8008aac:	701a      	strb	r2, [r3, #0]
 8008aae:	b01c      	add	sp, #112	; 0x70
 8008ab0:	f85d eb04 	ldr.w	lr, [sp], #4
 8008ab4:	b003      	add	sp, #12
 8008ab6:	4770      	bx	lr
 8008ab8:	20000098 	.word	0x20000098
 8008abc:	ffff0208 	.word	0xffff0208

08008ac0 <__sread>:
 8008ac0:	b510      	push	{r4, lr}
 8008ac2:	460c      	mov	r4, r1
 8008ac4:	f9b1 100e 	ldrsh.w	r1, [r1, #14]
 8008ac8:	f000 f86c 	bl	8008ba4 <_read_r>
 8008acc:	2800      	cmp	r0, #0
 8008ace:	bfab      	itete	ge
 8008ad0:	6d63      	ldrge	r3, [r4, #84]	; 0x54
 8008ad2:	89a3      	ldrhlt	r3, [r4, #12]
 8008ad4:	181b      	addge	r3, r3, r0
 8008ad6:	f423 5380 	biclt.w	r3, r3, #4096	; 0x1000
 8008ada:	bfac      	ite	ge
 8008adc:	6563      	strge	r3, [r4, #84]	; 0x54
 8008ade:	81a3      	strhlt	r3, [r4, #12]
 8008ae0:	bd10      	pop	{r4, pc}

08008ae2 <__swrite>:
 8008ae2:	e92d 41f0 	stmdb	sp!, {r4, r5, r6, r7, r8, lr}
 8008ae6:	461f      	mov	r7, r3
 8008ae8:	898b      	ldrh	r3, [r1, #12]
 8008aea:	4605      	mov	r5, r0
 8008aec:	05db      	lsls	r3, r3, #23
 8008aee:	460c      	mov	r4, r1
 8008af0:	4616      	mov	r6, r2
 8008af2:	d505      	bpl.n	8008b00 <__swrite+0x1e>
 8008af4:	2302      	movs	r3, #2
 8008af6:	2200      	movs	r2, #0
 8008af8:	f9b1 100e 	ldrsh.w	r1, [r1, #14]
 8008afc:	f000 f840 	bl	8008b80 <_lseek_r>
 8008b00:	89a3      	ldrh	r3, [r4, #12]
 8008b02:	4632      	mov	r2, r6
 8008b04:	f423 5380 	bic.w	r3, r3, #4096	; 0x1000
 8008b08:	81a3      	strh	r3, [r4, #12]
 8008b0a:	4628      	mov	r0, r5
 8008b0c:	463b      	mov	r3, r7
 8008b0e:	f9b4 100e 	ldrsh.w	r1, [r4, #14]
 8008b12:	e8bd 41f0 	ldmia.w	sp!, {r4, r5, r6, r7, r8, lr}
 8008b16:	f000 b857 	b.w	8008bc8 <_write_r>

08008b1a <__sseek>:
 8008b1a:	b510      	push	{r4, lr}
 8008b1c:	460c      	mov	r4, r1
 8008b1e:	f9b1 100e 	ldrsh.w	r1, [r1, #14]
 8008b22:	f000 f82d 	bl	8008b80 <_lseek_r>
 8008b26:	1c43      	adds	r3, r0, #1
 8008b28:	89a3      	ldrh	r3, [r4, #12]
 8008b2a:	bf15      	itete	ne
 8008b2c:	6560      	strne	r0, [r4, #84]	; 0x54
 8008b2e:	f423 5380 	biceq.w	r3, r3, #4096	; 0x1000
 8008b32:	f443 5380 	orrne.w	r3, r3, #4096	; 0x1000
 8008b36:	81a3      	strheq	r3, [r4, #12]
 8008b38:	bf18      	it	ne
 8008b3a:	81a3      	strhne	r3, [r4, #12]
 8008b3c:	bd10      	pop	{r4, pc}

08008b3e <__sclose>:
 8008b3e:	f9b1 100e 	ldrsh.w	r1, [r1, #14]
 8008b42:	f000 b80d 	b.w	8008b60 <_close_r>

08008b46 <memset>:
 8008b46:	4603      	mov	r3, r0
 8008b48:	4402      	add	r2, r0
 8008b4a:	4293      	cmp	r3, r2
 8008b4c:	d100      	bne.n	8008b50 <memset+0xa>
 8008b4e:	4770      	bx	lr
 8008b50:	f803 1b01 	strb.w	r1, [r3], #1
 8008b54:	e7f9      	b.n	8008b4a <memset+0x4>
	...

08008b58 <_localeconv_r>:
 8008b58:	4800      	ldr	r0, [pc, #0]	; (8008b5c <_localeconv_r+0x4>)
 8008b5a:	4770      	bx	lr
 8008b5c:	2000018c 	.word	0x2000018c

08008b60 <_close_r>:
 8008b60:	b538      	push	{r3, r4, r5, lr}
 8008b62:	2300      	movs	r3, #0
 8008b64:	4d05      	ldr	r5, [pc, #20]	; (8008b7c <_close_r+0x1c>)
 8008b66:	4604      	mov	r4, r0
 8008b68:	4608      	mov	r0, r1
 8008b6a:	602b      	str	r3, [r5, #0]
 8008b6c:	f7fa fb74 	bl	8003258 <_close>
 8008b70:	1c43      	adds	r3, r0, #1
 8008b72:	d102      	bne.n	8008b7a <_close_r+0x1a>
 8008b74:	682b      	ldr	r3, [r5, #0]
 8008b76:	b103      	cbz	r3, 8008b7a <_close_r+0x1a>
 8008b78:	6023      	str	r3, [r4, #0]
 8008b7a:	bd38      	pop	{r3, r4, r5, pc}
 8008b7c:	20002970 	.word	0x20002970

08008b80 <_lseek_r>:
 8008b80:	b538      	push	{r3, r4, r5, lr}
 8008b82:	4604      	mov	r4, r0
 8008b84:	4608      	mov	r0, r1
 8008b86:	4611      	mov	r1, r2
 8008b88:	2200      	movs	r2, #0
 8008b8a:	4d05      	ldr	r5, [pc, #20]	; (8008ba0 <_lseek_r+0x20>)
 8008b8c:	602a      	str	r2, [r5, #0]
 8008b8e:	461a      	mov	r2, r3
 8008b90:	f7fa fb6c 	bl	800326c <_lseek>
 8008b94:	1c43      	adds	r3, r0, #1
 8008b96:	d102      	bne.n	8008b9e <_lseek_r+0x1e>
 8008b98:	682b      	ldr	r3, [r5, #0]
 8008b9a:	b103      	cbz	r3, 8008b9e <_lseek_r+0x1e>
 8008b9c:	6023      	str	r3, [r4, #0]
 8008b9e:	bd38      	pop	{r3, r4, r5, pc}
 8008ba0:	20002970 	.word	0x20002970

08008ba4 <_read_r>:
 8008ba4:	b538      	push	{r3, r4, r5, lr}
 8008ba6:	4604      	mov	r4, r0
 8008ba8:	4608      	mov	r0, r1
 8008baa:	4611      	mov	r1, r2
 8008bac:	2200      	movs	r2, #0
 8008bae:	4d05      	ldr	r5, [pc, #20]	; (8008bc4 <_read_r+0x20>)
 8008bb0:	602a      	str	r2, [r5, #0]
 8008bb2:	461a      	mov	r2, r3
 8008bb4:	f7fa fb34 	bl	8003220 <_read>
 8008bb8:	1c43      	adds	r3, r0, #1
 8008bba:	d102      	bne.n	8008bc2 <_read_r+0x1e>
 8008bbc:	682b      	ldr	r3, [r5, #0]
 8008bbe:	b103      	cbz	r3, 8008bc2 <_read_r+0x1e>
 8008bc0:	6023      	str	r3, [r4, #0]
 8008bc2:	bd38      	pop	{r3, r4, r5, pc}
 8008bc4:	20002970 	.word	0x20002970

08008bc8 <_write_r>:
 8008bc8:	b538      	push	{r3, r4, r5, lr}
 8008bca:	4604      	mov	r4, r0
 8008bcc:	4608      	mov	r0, r1
 8008bce:	4611      	mov	r1, r2
 8008bd0:	2200      	movs	r2, #0
 8008bd2:	4d05      	ldr	r5, [pc, #20]	; (8008be8 <_write_r+0x20>)
 8008bd4:	602a      	str	r2, [r5, #0]
 8008bd6:	461a      	mov	r2, r3
 8008bd8:	f7fa fb30 	bl	800323c <_write>
 8008bdc:	1c43      	adds	r3, r0, #1
 8008bde:	d102      	bne.n	8008be6 <_write_r+0x1e>
 8008be0:	682b      	ldr	r3, [r5, #0]
 8008be2:	b103      	cbz	r3, 8008be6 <_write_r+0x1e>
 8008be4:	6023      	str	r3, [r4, #0]
 8008be6:	bd38      	pop	{r3, r4, r5, pc}
 8008be8:	20002970 	.word	0x20002970

08008bec <__errno>:
 8008bec:	4b01      	ldr	r3, [pc, #4]	; (8008bf4 <__errno+0x8>)
 8008bee:	6818      	ldr	r0, [r3, #0]
 8008bf0:	4770      	bx	lr
 8008bf2:	bf00      	nop
 8008bf4:	20000098 	.word	0x20000098

08008bf8 <__libc_init_array>:
 8008bf8:	b570      	push	{r4, r5, r6, lr}
 8008bfa:	2600      	movs	r6, #0
 8008bfc:	4d0c      	ldr	r5, [pc, #48]	; (8008c30 <__libc_init_array+0x38>)
 8008bfe:	4c0d      	ldr	r4, [pc, #52]	; (8008c34 <__libc_init_array+0x3c>)
 8008c00:	1b64      	subs	r4, r4, r5
 8008c02:	10a4      	asrs	r4, r4, #2
 8008c04:	42a6      	cmp	r6, r4
 8008c06:	d109      	bne.n	8008c1c <__libc_init_array+0x24>
 8008c08:	f004 fc0e 	bl	800d428 <_init>
 8008c0c:	2600      	movs	r6, #0
 8008c0e:	4d0a      	ldr	r5, [pc, #40]	; (8008c38 <__libc_init_array+0x40>)
 8008c10:	4c0a      	ldr	r4, [pc, #40]	; (8008c3c <__libc_init_array+0x44>)
 8008c12:	1b64      	subs	r4, r4, r5
 8008c14:	10a4      	asrs	r4, r4, #2
 8008c16:	42a6      	cmp	r6, r4
 8008c18:	d105      	bne.n	8008c26 <__libc_init_array+0x2e>
 8008c1a:	bd70      	pop	{r4, r5, r6, pc}
 8008c1c:	f855 3b04 	ldr.w	r3, [r5], #4
 8008c20:	4798      	blx	r3
 8008c22:	3601      	adds	r6, #1
 8008c24:	e7ee      	b.n	8008c04 <__libc_init_array+0xc>
 8008c26:	f855 3b04 	ldr.w	r3, [r5], #4
 8008c2a:	4798      	blx	r3
 8008c2c:	3601      	adds	r6, #1
 8008c2e:	e7f2      	b.n	8008c16 <__libc_init_array+0x1e>
 8008c30:	0800dfe0 	.word	0x0800dfe0
 8008c34:	0800dfe0 	.word	0x0800dfe0
 8008c38:	0800dfe0 	.word	0x0800dfe0
 8008c3c:	0800dfe4 	.word	0x0800dfe4

08008c40 <__retarget_lock_acquire_recursive>:
 8008c40:	4770      	bx	lr

08008c42 <__retarget_lock_release_recursive>:
 8008c42:	4770      	bx	lr

08008c44 <memchr>:
 8008c44:	4603      	mov	r3, r0
 8008c46:	b510      	push	{r4, lr}
 8008c48:	b2c9      	uxtb	r1, r1
 8008c4a:	4402      	add	r2, r0
 8008c4c:	4293      	cmp	r3, r2
 8008c4e:	4618      	mov	r0, r3
 8008c50:	d101      	bne.n	8008c56 <memchr+0x12>
 8008c52:	2000      	movs	r0, #0
 8008c54:	e003      	b.n	8008c5e <memchr+0x1a>
 8008c56:	7804      	ldrb	r4, [r0, #0]
 8008c58:	3301      	adds	r3, #1
 8008c5a:	428c      	cmp	r4, r1
 8008c5c:	d1f6      	bne.n	8008c4c <memchr+0x8>
 8008c5e:	bd10      	pop	{r4, pc}

08008c60 <memcpy>:
 8008c60:	440a      	add	r2, r1
 8008c62:	4291      	cmp	r1, r2
 8008c64:	f100 33ff 	add.w	r3, r0, #4294967295
 8008c68:	d100      	bne.n	8008c6c <memcpy+0xc>
 8008c6a:	4770      	bx	lr
 8008c6c:	b510      	push	{r4, lr}
 8008c6e:	f811 4b01 	ldrb.w	r4, [r1], #1
 8008c72:	4291      	cmp	r1, r2
 8008c74:	f803 4f01 	strb.w	r4, [r3, #1]!
 8008c78:	d1f9      	bne.n	8008c6e <memcpy+0xe>
 8008c7a:	bd10      	pop	{r4, pc}

08008c7c <quorem>:
 8008c7c:	e92d 4ff7 	stmdb	sp!, {r0, r1, r2, r4, r5, r6, r7, r8, r9, sl, fp, lr}
 8008c80:	6903      	ldr	r3, [r0, #16]
 8008c82:	690c      	ldr	r4, [r1, #16]
 8008c84:	4607      	mov	r7, r0
 8008c86:	42a3      	cmp	r3, r4
 8008c88:	db7f      	blt.n	8008d8a <quorem+0x10e>
 8008c8a:	3c01      	subs	r4, #1
 8008c8c:	f100 0514 	add.w	r5, r0, #20
 8008c90:	f101 0814 	add.w	r8, r1, #20
 8008c94:	eb05 0384 	add.w	r3, r5, r4, lsl #2
 8008c98:	9301      	str	r3, [sp, #4]
 8008c9a:	f858 3024 	ldr.w	r3, [r8, r4, lsl #2]
 8008c9e:	f855 2024 	ldr.w	r2, [r5, r4, lsl #2]
 8008ca2:	3301      	adds	r3, #1
 8008ca4:	429a      	cmp	r2, r3
 8008ca6:	fbb2 f6f3 	udiv	r6, r2, r3
 8008caa:	ea4f 0b84 	mov.w	fp, r4, lsl #2
 8008cae:	eb08 0984 	add.w	r9, r8, r4, lsl #2
 8008cb2:	d331      	bcc.n	8008d18 <quorem+0x9c>
 8008cb4:	f04f 0e00 	mov.w	lr, #0
 8008cb8:	4640      	mov	r0, r8
 8008cba:	46ac      	mov	ip, r5
 8008cbc:	46f2      	mov	sl, lr
 8008cbe:	f850 2b04 	ldr.w	r2, [r0], #4
 8008cc2:	b293      	uxth	r3, r2
 8008cc4:	fb06 e303 	mla	r3, r6, r3, lr
 8008cc8:	ea4f 4e12 	mov.w	lr, r2, lsr #16
 8008ccc:	0c1a      	lsrs	r2, r3, #16
 8008cce:	b29b      	uxth	r3, r3
 8008cd0:	fb06 220e 	mla	r2, r6, lr, r2
 8008cd4:	ebaa 0303 	sub.w	r3, sl, r3
 8008cd8:	f8dc a000 	ldr.w	sl, [ip]
 8008cdc:	ea4f 4e12 	mov.w	lr, r2, lsr #16
 8008ce0:	fa1f fa8a 	uxth.w	sl, sl
 8008ce4:	4453      	add	r3, sl
 8008ce6:	f8dc a000 	ldr.w	sl, [ip]
 8008cea:	b292      	uxth	r2, r2
 8008cec:	ebc2 421a 	rsb	r2, r2, sl, lsr #16
 8008cf0:	eb02 4223 	add.w	r2, r2, r3, asr #16
 8008cf4:	b29b      	uxth	r3, r3
 8008cf6:	ea43 4302 	orr.w	r3, r3, r2, lsl #16
 8008cfa:	4581      	cmp	r9, r0
 8008cfc:	ea4f 4a22 	mov.w	sl, r2, asr #16
 8008d00:	f84c 3b04 	str.w	r3, [ip], #4
 8008d04:	d2db      	bcs.n	8008cbe <quorem+0x42>
 8008d06:	f855 300b 	ldr.w	r3, [r5, fp]
 8008d0a:	b92b      	cbnz	r3, 8008d18 <quorem+0x9c>
 8008d0c:	9b01      	ldr	r3, [sp, #4]
 8008d0e:	3b04      	subs	r3, #4
 8008d10:	429d      	cmp	r5, r3
 8008d12:	461a      	mov	r2, r3
 8008d14:	d32d      	bcc.n	8008d72 <quorem+0xf6>
 8008d16:	613c      	str	r4, [r7, #16]
 8008d18:	4638      	mov	r0, r7
 8008d1a:	f001 f993 	bl	800a044 <__mcmp>
 8008d1e:	2800      	cmp	r0, #0
 8008d20:	db23      	blt.n	8008d6a <quorem+0xee>
 8008d22:	4629      	mov	r1, r5
 8008d24:	2000      	movs	r0, #0
 8008d26:	3601      	adds	r6, #1
 8008d28:	f858 2b04 	ldr.w	r2, [r8], #4
 8008d2c:	f8d1 c000 	ldr.w	ip, [r1]
 8008d30:	b293      	uxth	r3, r2
 8008d32:	1ac3      	subs	r3, r0, r3
 8008d34:	0c12      	lsrs	r2, r2, #16
 8008d36:	fa1f f08c 	uxth.w	r0, ip
 8008d3a:	4403      	add	r3, r0
 8008d3c:	ebc2 421c 	rsb	r2, r2, ip, lsr #16
 8008d40:	eb02 4223 	add.w	r2, r2, r3, asr #16
 8008d44:	b29b      	uxth	r3, r3
 8008d46:	ea43 4302 	orr.w	r3, r3, r2, lsl #16
 8008d4a:	45c1      	cmp	r9, r8
 8008d4c:	ea4f 4022 	mov.w	r0, r2, asr #16
 8008d50:	f841 3b04 	str.w	r3, [r1], #4
 8008d54:	d2e8      	bcs.n	8008d28 <quorem+0xac>
 8008d56:	f855 2024 	ldr.w	r2, [r5, r4, lsl #2]
 8008d5a:	eb05 0384 	add.w	r3, r5, r4, lsl #2
 8008d5e:	b922      	cbnz	r2, 8008d6a <quorem+0xee>
 8008d60:	3b04      	subs	r3, #4
 8008d62:	429d      	cmp	r5, r3
 8008d64:	461a      	mov	r2, r3
 8008d66:	d30a      	bcc.n	8008d7e <quorem+0x102>
 8008d68:	613c      	str	r4, [r7, #16]
 8008d6a:	4630      	mov	r0, r6
 8008d6c:	b003      	add	sp, #12
 8008d6e:	e8bd 8ff0 	ldmia.w	sp!, {r4, r5, r6, r7, r8, r9, sl, fp, pc}
 8008d72:	6812      	ldr	r2, [r2, #0]
 8008d74:	3b04      	subs	r3, #4
 8008d76:	2a00      	cmp	r2, #0
 8008d78:	d1cd      	bne.n	8008d16 <quorem+0x9a>
 8008d7a:	3c01      	subs	r4, #1
 8008d7c:	e7c8      	b.n	8008d10 <quorem+0x94>
 8008d7e:	6812      	ldr	r2, [r2, #0]
 8008d80:	3b04      	subs	r3, #4
 8008d82:	2a00      	cmp	r2, #0
 8008d84:	d1f0      	bne.n	8008d68 <quorem+0xec>
 8008d86:	3c01      	subs	r4, #1
 8008d88:	e7eb      	b.n	8008d62 <quorem+0xe6>
 8008d8a:	2000      	movs	r0, #0
 8008d8c:	e7ee      	b.n	8008d6c <quorem+0xf0>
	...

08008d90 <_dtoa_r>:
 8008d90:	e92d 4ff0 	stmdb	sp!, {r4, r5, r6, r7, r8, r9, sl, fp, lr}
 8008d94:	4616      	mov	r6, r2
 8008d96:	461f      	mov	r7, r3
 8008d98:	69c4      	ldr	r4, [r0, #28]
 8008d9a:	b099      	sub	sp, #100	; 0x64
 8008d9c:	4605      	mov	r5, r0
 8008d9e:	e9cd 6704 	strd	r6, r7, [sp, #16]
 8008da2:	f8dd 8094 	ldr.w	r8, [sp, #148]	; 0x94
 8008da6:	b974      	cbnz	r4, 8008dc6 <_dtoa_r+0x36>
 8008da8:	2010      	movs	r0, #16
 8008daa:	f000 fe1d 	bl	80099e8 <malloc>
 8008dae:	4602      	mov	r2, r0
 8008db0:	61e8      	str	r0, [r5, #28]
 8008db2:	b920      	cbnz	r0, 8008dbe <_dtoa_r+0x2e>
 8008db4:	21ef      	movs	r1, #239	; 0xef
 8008db6:	4bac      	ldr	r3, [pc, #688]	; (8009068 <_dtoa_r+0x2d8>)
 8008db8:	48ac      	ldr	r0, [pc, #688]	; (800906c <_dtoa_r+0x2dc>)
 8008dba:	f001 fe45 	bl	800aa48 <__assert_func>
 8008dbe:	e9c0 4401 	strd	r4, r4, [r0, #4]
 8008dc2:	6004      	str	r4, [r0, #0]
 8008dc4:	60c4      	str	r4, [r0, #12]
 8008dc6:	69eb      	ldr	r3, [r5, #28]
 8008dc8:	6819      	ldr	r1, [r3, #0]
 8008dca:	b151      	cbz	r1, 8008de2 <_dtoa_r+0x52>
 8008dcc:	685a      	ldr	r2, [r3, #4]
 8008dce:	2301      	movs	r3, #1
 8008dd0:	4093      	lsls	r3, r2
 8008dd2:	604a      	str	r2, [r1, #4]
 8008dd4:	608b      	str	r3, [r1, #8]
 8008dd6:	4628      	mov	r0, r5
 8008dd8:	f000 fefa 	bl	8009bd0 <_Bfree>
 8008ddc:	2200      	movs	r2, #0
 8008dde:	69eb      	ldr	r3, [r5, #28]
 8008de0:	601a      	str	r2, [r3, #0]
 8008de2:	1e3b      	subs	r3, r7, #0
 8008de4:	bfaf      	iteee	ge
 8008de6:	2300      	movge	r3, #0
 8008de8:	2201      	movlt	r2, #1
 8008dea:	f023 4300 	biclt.w	r3, r3, #2147483648	; 0x80000000
 8008dee:	9305      	strlt	r3, [sp, #20]
 8008df0:	bfa8      	it	ge
 8008df2:	f8c8 3000 	strge.w	r3, [r8]
 8008df6:	f8dd 9014 	ldr.w	r9, [sp, #20]
 8008dfa:	4b9d      	ldr	r3, [pc, #628]	; (8009070 <_dtoa_r+0x2e0>)
 8008dfc:	bfb8      	it	lt
 8008dfe:	f8c8 2000 	strlt.w	r2, [r8]
 8008e02:	ea33 0309 	bics.w	r3, r3, r9
 8008e06:	d119      	bne.n	8008e3c <_dtoa_r+0xac>
 8008e08:	f242 730f 	movw	r3, #9999	; 0x270f
 8008e0c:	9a24      	ldr	r2, [sp, #144]	; 0x90
 8008e0e:	6013      	str	r3, [r2, #0]
 8008e10:	f3c9 0313 	ubfx	r3, r9, #0, #20
 8008e14:	4333      	orrs	r3, r6
 8008e16:	f000 8589 	beq.w	800992c <_dtoa_r+0xb9c>
 8008e1a:	9b26      	ldr	r3, [sp, #152]	; 0x98
 8008e1c:	b953      	cbnz	r3, 8008e34 <_dtoa_r+0xa4>
 8008e1e:	4b95      	ldr	r3, [pc, #596]	; (8009074 <_dtoa_r+0x2e4>)
 8008e20:	e023      	b.n	8008e6a <_dtoa_r+0xda>
 8008e22:	4b95      	ldr	r3, [pc, #596]	; (8009078 <_dtoa_r+0x2e8>)
 8008e24:	9303      	str	r3, [sp, #12]
 8008e26:	3308      	adds	r3, #8
 8008e28:	9a26      	ldr	r2, [sp, #152]	; 0x98
 8008e2a:	6013      	str	r3, [r2, #0]
 8008e2c:	9803      	ldr	r0, [sp, #12]
 8008e2e:	b019      	add	sp, #100	; 0x64
 8008e30:	e8bd 8ff0 	ldmia.w	sp!, {r4, r5, r6, r7, r8, r9, sl, fp, pc}
 8008e34:	4b8f      	ldr	r3, [pc, #572]	; (8009074 <_dtoa_r+0x2e4>)
 8008e36:	9303      	str	r3, [sp, #12]
 8008e38:	3303      	adds	r3, #3
 8008e3a:	e7f5      	b.n	8008e28 <_dtoa_r+0x98>
 8008e3c:	e9dd 3404 	ldrd	r3, r4, [sp, #16]
 8008e40:	e9cd 340c 	strd	r3, r4, [sp, #48]	; 0x30
 8008e44:	e9dd 010c 	ldrd	r0, r1, [sp, #48]	; 0x30
 8008e48:	2200      	movs	r2, #0
 8008e4a:	2300      	movs	r3, #0
 8008e4c:	f7f7 fdac 	bl	80009a8 <__aeabi_dcmpeq>
 8008e50:	4680      	mov	r8, r0
 8008e52:	b160      	cbz	r0, 8008e6e <_dtoa_r+0xde>
 8008e54:	2301      	movs	r3, #1
 8008e56:	9a24      	ldr	r2, [sp, #144]	; 0x90
 8008e58:	6013      	str	r3, [r2, #0]
 8008e5a:	9b26      	ldr	r3, [sp, #152]	; 0x98
 8008e5c:	2b00      	cmp	r3, #0
 8008e5e:	f000 8562 	beq.w	8009926 <_dtoa_r+0xb96>
 8008e62:	4b86      	ldr	r3, [pc, #536]	; (800907c <_dtoa_r+0x2ec>)
 8008e64:	9a26      	ldr	r2, [sp, #152]	; 0x98
 8008e66:	6013      	str	r3, [r2, #0]
 8008e68:	3b01      	subs	r3, #1
 8008e6a:	9303      	str	r3, [sp, #12]
 8008e6c:	e7de      	b.n	8008e2c <_dtoa_r+0x9c>
 8008e6e:	ab16      	add	r3, sp, #88	; 0x58
 8008e70:	9301      	str	r3, [sp, #4]
 8008e72:	ab17      	add	r3, sp, #92	; 0x5c
 8008e74:	9300      	str	r3, [sp, #0]
 8008e76:	4628      	mov	r0, r5
 8008e78:	e9dd 230c 	ldrd	r2, r3, [sp, #48]	; 0x30
 8008e7c:	f001 f98a 	bl	800a194 <__d2b>
 8008e80:	f3c9 540a 	ubfx	r4, r9, #20, #11
 8008e84:	4682      	mov	sl, r0
 8008e86:	2c00      	cmp	r4, #0
 8008e88:	d07e      	beq.n	8008f88 <_dtoa_r+0x1f8>
 8008e8a:	e9dd 010c 	ldrd	r0, r1, [sp, #48]	; 0x30
 8008e8e:	9b0d      	ldr	r3, [sp, #52]	; 0x34
 8008e90:	f2a4 34ff 	subw	r4, r4, #1023	; 0x3ff
 8008e94:	f3c3 0313 	ubfx	r3, r3, #0, #20
 8008e98:	f043 537f 	orr.w	r3, r3, #1069547520	; 0x3fc00000
 8008e9c:	f443 1340 	orr.w	r3, r3, #3145728	; 0x300000
 8008ea0:	f8cd 804c 	str.w	r8, [sp, #76]	; 0x4c
 8008ea4:	4619      	mov	r1, r3
 8008ea6:	2200      	movs	r2, #0
 8008ea8:	4b75      	ldr	r3, [pc, #468]	; (8009080 <_dtoa_r+0x2f0>)
 8008eaa:	f7f7 f95d 	bl	8000168 <__aeabi_dsub>
 8008eae:	a368      	add	r3, pc, #416	; (adr r3, 8009050 <_dtoa_r+0x2c0>)
 8008eb0:	e9d3 2300 	ldrd	r2, r3, [r3]
 8008eb4:	f7f7 fb10 	bl	80004d8 <__aeabi_dmul>
 8008eb8:	a367      	add	r3, pc, #412	; (adr r3, 8009058 <_dtoa_r+0x2c8>)
 8008eba:	e9d3 2300 	ldrd	r2, r3, [r3]
 8008ebe:	f7f7 f955 	bl	800016c <__adddf3>
 8008ec2:	4606      	mov	r6, r0
 8008ec4:	4620      	mov	r0, r4
 8008ec6:	460f      	mov	r7, r1
 8008ec8:	f7f7 fa9c 	bl	8000404 <__aeabi_i2d>
 8008ecc:	a364      	add	r3, pc, #400	; (adr r3, 8009060 <_dtoa_r+0x2d0>)
 8008ece:	e9d3 2300 	ldrd	r2, r3, [r3]
 8008ed2:	f7f7 fb01 	bl	80004d8 <__aeabi_dmul>
 8008ed6:	4602      	mov	r2, r0
 8008ed8:	460b      	mov	r3, r1
 8008eda:	4630      	mov	r0, r6
 8008edc:	4639      	mov	r1, r7
 8008ede:	f7f7 f945 	bl	800016c <__adddf3>
 8008ee2:	4606      	mov	r6, r0
 8008ee4:	460f      	mov	r7, r1
 8008ee6:	f7f7 fda7 	bl	8000a38 <__aeabi_d2iz>
 8008eea:	2200      	movs	r2, #0
 8008eec:	4683      	mov	fp, r0
 8008eee:	2300      	movs	r3, #0
 8008ef0:	4630      	mov	r0, r6
 8008ef2:	4639      	mov	r1, r7
 8008ef4:	f7f7 fd62 	bl	80009bc <__aeabi_dcmplt>
 8008ef8:	b148      	cbz	r0, 8008f0e <_dtoa_r+0x17e>
 8008efa:	4658      	mov	r0, fp
 8008efc:	f7f7 fa82 	bl	8000404 <__aeabi_i2d>
 8008f00:	4632      	mov	r2, r6
 8008f02:	463b      	mov	r3, r7
 8008f04:	f7f7 fd50 	bl	80009a8 <__aeabi_dcmpeq>
 8008f08:	b908      	cbnz	r0, 8008f0e <_dtoa_r+0x17e>
 8008f0a:	f10b 3bff 	add.w	fp, fp, #4294967295
 8008f0e:	f1bb 0f16 	cmp.w	fp, #22
 8008f12:	d857      	bhi.n	8008fc4 <_dtoa_r+0x234>
 8008f14:	e9dd 010c 	ldrd	r0, r1, [sp, #48]	; 0x30
 8008f18:	4b5a      	ldr	r3, [pc, #360]	; (8009084 <_dtoa_r+0x2f4>)
 8008f1a:	eb03 03cb 	add.w	r3, r3, fp, lsl #3
 8008f1e:	e9d3 2300 	ldrd	r2, r3, [r3]
 8008f22:	f7f7 fd4b 	bl	80009bc <__aeabi_dcmplt>
 8008f26:	2800      	cmp	r0, #0
 8008f28:	d04e      	beq.n	8008fc8 <_dtoa_r+0x238>
 8008f2a:	2300      	movs	r3, #0
 8008f2c:	f10b 3bff 	add.w	fp, fp, #4294967295
 8008f30:	930f      	str	r3, [sp, #60]	; 0x3c
 8008f32:	9b16      	ldr	r3, [sp, #88]	; 0x58
 8008f34:	1b1b      	subs	r3, r3, r4
 8008f36:	1e5a      	subs	r2, r3, #1
 8008f38:	bf46      	itte	mi
 8008f3a:	f1c3 0901 	rsbmi	r9, r3, #1
 8008f3e:	2300      	movmi	r3, #0
 8008f40:	f04f 0900 	movpl.w	r9, #0
 8008f44:	9209      	str	r2, [sp, #36]	; 0x24
 8008f46:	bf48      	it	mi
 8008f48:	9309      	strmi	r3, [sp, #36]	; 0x24
 8008f4a:	f1bb 0f00 	cmp.w	fp, #0
 8008f4e:	db3d      	blt.n	8008fcc <_dtoa_r+0x23c>
 8008f50:	9b09      	ldr	r3, [sp, #36]	; 0x24
 8008f52:	f8cd b038 	str.w	fp, [sp, #56]	; 0x38
 8008f56:	445b      	add	r3, fp
 8008f58:	9309      	str	r3, [sp, #36]	; 0x24
 8008f5a:	2300      	movs	r3, #0
 8008f5c:	930a      	str	r3, [sp, #40]	; 0x28
 8008f5e:	9b22      	ldr	r3, [sp, #136]	; 0x88
 8008f60:	2b09      	cmp	r3, #9
 8008f62:	d867      	bhi.n	8009034 <_dtoa_r+0x2a4>
 8008f64:	2b05      	cmp	r3, #5
 8008f66:	bfc4      	itt	gt
 8008f68:	3b04      	subgt	r3, #4
 8008f6a:	9322      	strgt	r3, [sp, #136]	; 0x88
 8008f6c:	9b22      	ldr	r3, [sp, #136]	; 0x88
 8008f6e:	bfc8      	it	gt
 8008f70:	2400      	movgt	r4, #0
 8008f72:	f1a3 0302 	sub.w	r3, r3, #2
 8008f76:	bfd8      	it	le
 8008f78:	2401      	movle	r4, #1
 8008f7a:	2b03      	cmp	r3, #3
 8008f7c:	f200 8086 	bhi.w	800908c <_dtoa_r+0x2fc>
 8008f80:	e8df f003 	tbb	[pc, r3]
 8008f84:	5637392c 	.word	0x5637392c
 8008f88:	e9dd 4316 	ldrd	r4, r3, [sp, #88]	; 0x58
 8008f8c:	441c      	add	r4, r3
 8008f8e:	f204 4332 	addw	r3, r4, #1074	; 0x432
 8008f92:	2b20      	cmp	r3, #32
 8008f94:	bfc1      	itttt	gt
 8008f96:	f1c3 0340 	rsbgt	r3, r3, #64	; 0x40
 8008f9a:	fa09 f903 	lslgt.w	r9, r9, r3
 8008f9e:	f204 4312 	addwgt	r3, r4, #1042	; 0x412
 8008fa2:	fa26 f303 	lsrgt.w	r3, r6, r3
 8008fa6:	bfd6      	itet	le
 8008fa8:	f1c3 0320 	rsble	r3, r3, #32
 8008fac:	ea49 0003 	orrgt.w	r0, r9, r3
 8008fb0:	fa06 f003 	lslle.w	r0, r6, r3
 8008fb4:	f7f7 fa16 	bl	80003e4 <__aeabi_ui2d>
 8008fb8:	2201      	movs	r2, #1
 8008fba:	f1a1 73f8 	sub.w	r3, r1, #32505856	; 0x1f00000
 8008fbe:	3c01      	subs	r4, #1
 8008fc0:	9213      	str	r2, [sp, #76]	; 0x4c
 8008fc2:	e76f      	b.n	8008ea4 <_dtoa_r+0x114>
 8008fc4:	2301      	movs	r3, #1
 8008fc6:	e7b3      	b.n	8008f30 <_dtoa_r+0x1a0>
 8008fc8:	900f      	str	r0, [sp, #60]	; 0x3c
 8008fca:	e7b2      	b.n	8008f32 <_dtoa_r+0x1a2>
 8008fcc:	f1cb 0300 	rsb	r3, fp, #0
 8008fd0:	930a      	str	r3, [sp, #40]	; 0x28
 8008fd2:	2300      	movs	r3, #0
 8008fd4:	eba9 090b 	sub.w	r9, r9, fp
 8008fd8:	930e      	str	r3, [sp, #56]	; 0x38
 8008fda:	e7c0      	b.n	8008f5e <_dtoa_r+0x1ce>
 8008fdc:	2300      	movs	r3, #0
 8008fde:	930b      	str	r3, [sp, #44]	; 0x2c
 8008fe0:	9b23      	ldr	r3, [sp, #140]	; 0x8c
 8008fe2:	2b00      	cmp	r3, #0
 8008fe4:	dc55      	bgt.n	8009092 <_dtoa_r+0x302>
 8008fe6:	2301      	movs	r3, #1
 8008fe8:	461a      	mov	r2, r3
 8008fea:	9306      	str	r3, [sp, #24]
 8008fec:	9308      	str	r3, [sp, #32]
 8008fee:	9223      	str	r2, [sp, #140]	; 0x8c
 8008ff0:	e00b      	b.n	800900a <_dtoa_r+0x27a>
 8008ff2:	2301      	movs	r3, #1
 8008ff4:	e7f3      	b.n	8008fde <_dtoa_r+0x24e>
 8008ff6:	2300      	movs	r3, #0
 8008ff8:	930b      	str	r3, [sp, #44]	; 0x2c
 8008ffa:	9b23      	ldr	r3, [sp, #140]	; 0x8c
 8008ffc:	445b      	add	r3, fp
 8008ffe:	9306      	str	r3, [sp, #24]
 8009000:	3301      	adds	r3, #1
 8009002:	2b01      	cmp	r3, #1
 8009004:	9308      	str	r3, [sp, #32]
 8009006:	bfb8      	it	lt
 8009008:	2301      	movlt	r3, #1
 800900a:	2100      	movs	r1, #0
 800900c:	2204      	movs	r2, #4
 800900e:	69e8      	ldr	r0, [r5, #28]
 8009010:	f102 0614 	add.w	r6, r2, #20
 8009014:	429e      	cmp	r6, r3
 8009016:	d940      	bls.n	800909a <_dtoa_r+0x30a>
 8009018:	6041      	str	r1, [r0, #4]
 800901a:	4628      	mov	r0, r5
 800901c:	f000 fd98 	bl	8009b50 <_Balloc>
 8009020:	9003      	str	r0, [sp, #12]
 8009022:	2800      	cmp	r0, #0
 8009024:	d13c      	bne.n	80090a0 <_dtoa_r+0x310>
 8009026:	4602      	mov	r2, r0
 8009028:	f240 11af 	movw	r1, #431	; 0x1af
 800902c:	4b16      	ldr	r3, [pc, #88]	; (8009088 <_dtoa_r+0x2f8>)
 800902e:	e6c3      	b.n	8008db8 <_dtoa_r+0x28>
 8009030:	2301      	movs	r3, #1
 8009032:	e7e1      	b.n	8008ff8 <_dtoa_r+0x268>
 8009034:	2401      	movs	r4, #1
 8009036:	2300      	movs	r3, #0
 8009038:	940b      	str	r4, [sp, #44]	; 0x2c
 800903a:	9322      	str	r3, [sp, #136]	; 0x88
 800903c:	f04f 33ff 	mov.w	r3, #4294967295
 8009040:	2200      	movs	r2, #0
 8009042:	9306      	str	r3, [sp, #24]
 8009044:	9308      	str	r3, [sp, #32]
 8009046:	2312      	movs	r3, #18
 8009048:	e7d1      	b.n	8008fee <_dtoa_r+0x25e>
 800904a:	bf00      	nop
 800904c:	f3af 8000 	nop.w
 8009050:	636f4361 	.word	0x636f4361
 8009054:	3fd287a7 	.word	0x3fd287a7
 8009058:	8b60c8b3 	.word	0x8b60c8b3
 800905c:	3fc68a28 	.word	0x3fc68a28
 8009060:	509f79fb 	.word	0x509f79fb
 8009064:	3fd34413 	.word	0x3fd34413
 8009068:	0800da6d 	.word	0x0800da6d
 800906c:	0800da84 	.word	0x0800da84
 8009070:	7ff00000 	.word	0x7ff00000
 8009074:	0800da69 	.word	0x0800da69
 8009078:	0800da60 	.word	0x0800da60
 800907c:	0800da3d 	.word	0x0800da3d
 8009080:	3ff80000 	.word	0x3ff80000
 8009084:	0800db70 	.word	0x0800db70
 8009088:	0800dadc 	.word	0x0800dadc
 800908c:	2301      	movs	r3, #1
 800908e:	930b      	str	r3, [sp, #44]	; 0x2c
 8009090:	e7d4      	b.n	800903c <_dtoa_r+0x2ac>
 8009092:	9b23      	ldr	r3, [sp, #140]	; 0x8c
 8009094:	9306      	str	r3, [sp, #24]
 8009096:	9308      	str	r3, [sp, #32]
 8009098:	e7b7      	b.n	800900a <_dtoa_r+0x27a>
 800909a:	3101      	adds	r1, #1
 800909c:	0052      	lsls	r2, r2, #1
 800909e:	e7b7      	b.n	8009010 <_dtoa_r+0x280>
 80090a0:	69eb      	ldr	r3, [r5, #28]
 80090a2:	9a03      	ldr	r2, [sp, #12]
 80090a4:	601a      	str	r2, [r3, #0]
 80090a6:	9b08      	ldr	r3, [sp, #32]
 80090a8:	2b0e      	cmp	r3, #14
 80090aa:	f200 80a8 	bhi.w	80091fe <_dtoa_r+0x46e>
 80090ae:	2c00      	cmp	r4, #0
 80090b0:	f000 80a5 	beq.w	80091fe <_dtoa_r+0x46e>
 80090b4:	f1bb 0f00 	cmp.w	fp, #0
 80090b8:	dd34      	ble.n	8009124 <_dtoa_r+0x394>
 80090ba:	4b9a      	ldr	r3, [pc, #616]	; (8009324 <_dtoa_r+0x594>)
 80090bc:	f00b 020f 	and.w	r2, fp, #15
 80090c0:	eb03 03c2 	add.w	r3, r3, r2, lsl #3
 80090c4:	f41b 7f80 	tst.w	fp, #256	; 0x100
 80090c8:	e9d3 3400 	ldrd	r3, r4, [r3]
 80090cc:	e9cd 3410 	strd	r3, r4, [sp, #64]	; 0x40
 80090d0:	ea4f 142b 	mov.w	r4, fp, asr #4
 80090d4:	d016      	beq.n	8009104 <_dtoa_r+0x374>
 80090d6:	e9dd 010c 	ldrd	r0, r1, [sp, #48]	; 0x30
 80090da:	4b93      	ldr	r3, [pc, #588]	; (8009328 <_dtoa_r+0x598>)
 80090dc:	2703      	movs	r7, #3
 80090de:	e9d3 2308 	ldrd	r2, r3, [r3, #32]
 80090e2:	f7f7 fb23 	bl	800072c <__aeabi_ddiv>
 80090e6:	e9cd 0104 	strd	r0, r1, [sp, #16]
 80090ea:	f004 040f 	and.w	r4, r4, #15
 80090ee:	4e8e      	ldr	r6, [pc, #568]	; (8009328 <_dtoa_r+0x598>)
 80090f0:	b954      	cbnz	r4, 8009108 <_dtoa_r+0x378>
 80090f2:	e9dd 2310 	ldrd	r2, r3, [sp, #64]	; 0x40
 80090f6:	e9dd 0104 	ldrd	r0, r1, [sp, #16]
 80090fa:	f7f7 fb17 	bl	800072c <__aeabi_ddiv>
 80090fe:	e9cd 0104 	strd	r0, r1, [sp, #16]
 8009102:	e029      	b.n	8009158 <_dtoa_r+0x3c8>
 8009104:	2702      	movs	r7, #2
 8009106:	e7f2      	b.n	80090ee <_dtoa_r+0x35e>
 8009108:	07e1      	lsls	r1, r4, #31
 800910a:	d508      	bpl.n	800911e <_dtoa_r+0x38e>
 800910c:	e9dd 0110 	ldrd	r0, r1, [sp, #64]	; 0x40
 8009110:	e9d6 2300 	ldrd	r2, r3, [r6]
 8009114:	f7f7 f9e0 	bl	80004d8 <__aeabi_dmul>
 8009118:	e9cd 0110 	strd	r0, r1, [sp, #64]	; 0x40
 800911c:	3701      	adds	r7, #1
 800911e:	1064      	asrs	r4, r4, #1
 8009120:	3608      	adds	r6, #8
 8009122:	e7e5      	b.n	80090f0 <_dtoa_r+0x360>
 8009124:	f000 80a5 	beq.w	8009272 <_dtoa_r+0x4e2>
 8009128:	e9dd 010c 	ldrd	r0, r1, [sp, #48]	; 0x30
 800912c:	f1cb 0400 	rsb	r4, fp, #0
 8009130:	4b7c      	ldr	r3, [pc, #496]	; (8009324 <_dtoa_r+0x594>)
 8009132:	f004 020f 	and.w	r2, r4, #15
 8009136:	eb03 03c2 	add.w	r3, r3, r2, lsl #3
 800913a:	e9d3 2300 	ldrd	r2, r3, [r3]
 800913e:	f7f7 f9cb 	bl	80004d8 <__aeabi_dmul>
 8009142:	2702      	movs	r7, #2
 8009144:	2300      	movs	r3, #0
 8009146:	e9cd 0104 	strd	r0, r1, [sp, #16]
 800914a:	4e77      	ldr	r6, [pc, #476]	; (8009328 <_dtoa_r+0x598>)
 800914c:	1124      	asrs	r4, r4, #4
 800914e:	2c00      	cmp	r4, #0
 8009150:	f040 8084 	bne.w	800925c <_dtoa_r+0x4cc>
 8009154:	2b00      	cmp	r3, #0
 8009156:	d1d2      	bne.n	80090fe <_dtoa_r+0x36e>
 8009158:	e9dd 3404 	ldrd	r3, r4, [sp, #16]
 800915c:	e9cd 3410 	strd	r3, r4, [sp, #64]	; 0x40
 8009160:	9b0f      	ldr	r3, [sp, #60]	; 0x3c
 8009162:	2b00      	cmp	r3, #0
 8009164:	f000 8087 	beq.w	8009276 <_dtoa_r+0x4e6>
 8009168:	e9dd 0110 	ldrd	r0, r1, [sp, #64]	; 0x40
 800916c:	2200      	movs	r2, #0
 800916e:	4b6f      	ldr	r3, [pc, #444]	; (800932c <_dtoa_r+0x59c>)
 8009170:	f7f7 fc24 	bl	80009bc <__aeabi_dcmplt>
 8009174:	2800      	cmp	r0, #0
 8009176:	d07e      	beq.n	8009276 <_dtoa_r+0x4e6>
 8009178:	9b08      	ldr	r3, [sp, #32]
 800917a:	2b00      	cmp	r3, #0
 800917c:	d07b      	beq.n	8009276 <_dtoa_r+0x4e6>
 800917e:	9b06      	ldr	r3, [sp, #24]
 8009180:	2b00      	cmp	r3, #0
 8009182:	dd38      	ble.n	80091f6 <_dtoa_r+0x466>
 8009184:	e9dd 0110 	ldrd	r0, r1, [sp, #64]	; 0x40
 8009188:	2200      	movs	r2, #0
 800918a:	4b69      	ldr	r3, [pc, #420]	; (8009330 <_dtoa_r+0x5a0>)
 800918c:	f7f7 f9a4 	bl	80004d8 <__aeabi_dmul>
 8009190:	e9cd 0104 	strd	r0, r1, [sp, #16]
 8009194:	9c06      	ldr	r4, [sp, #24]
 8009196:	f10b 38ff 	add.w	r8, fp, #4294967295
 800919a:	3701      	adds	r7, #1
 800919c:	4638      	mov	r0, r7
 800919e:	f7f7 f931 	bl	8000404 <__aeabi_i2d>
 80091a2:	e9dd 2304 	ldrd	r2, r3, [sp, #16]
 80091a6:	f7f7 f997 	bl	80004d8 <__aeabi_dmul>
 80091aa:	2200      	movs	r2, #0
 80091ac:	4b61      	ldr	r3, [pc, #388]	; (8009334 <_dtoa_r+0x5a4>)
 80091ae:	f7f6 ffdd 	bl	800016c <__adddf3>
 80091b2:	f1a1 7650 	sub.w	r6, r1, #54525952	; 0x3400000
 80091b6:	e9cd 0110 	strd	r0, r1, [sp, #64]	; 0x40
 80091ba:	9611      	str	r6, [sp, #68]	; 0x44
 80091bc:	2c00      	cmp	r4, #0
 80091be:	d15d      	bne.n	800927c <_dtoa_r+0x4ec>
 80091c0:	e9dd 0104 	ldrd	r0, r1, [sp, #16]
 80091c4:	2200      	movs	r2, #0
 80091c6:	4b5c      	ldr	r3, [pc, #368]	; (8009338 <_dtoa_r+0x5a8>)
 80091c8:	f7f6 ffce 	bl	8000168 <__aeabi_dsub>
 80091cc:	4602      	mov	r2, r0
 80091ce:	460b      	mov	r3, r1
 80091d0:	e9cd 2304 	strd	r2, r3, [sp, #16]
 80091d4:	4633      	mov	r3, r6
 80091d6:	9a10      	ldr	r2, [sp, #64]	; 0x40
 80091d8:	f7f7 fc0e 	bl	80009f8 <__aeabi_dcmpgt>
 80091dc:	2800      	cmp	r0, #0
 80091de:	f040 8295 	bne.w	800970c <_dtoa_r+0x97c>
 80091e2:	e9dd 0104 	ldrd	r0, r1, [sp, #16]
 80091e6:	9a10      	ldr	r2, [sp, #64]	; 0x40
 80091e8:	f106 4300 	add.w	r3, r6, #2147483648	; 0x80000000
 80091ec:	f7f7 fbe6 	bl	80009bc <__aeabi_dcmplt>
 80091f0:	2800      	cmp	r0, #0
 80091f2:	f040 8289 	bne.w	8009708 <_dtoa_r+0x978>
 80091f6:	e9dd 340c 	ldrd	r3, r4, [sp, #48]	; 0x30
 80091fa:	e9cd 3404 	strd	r3, r4, [sp, #16]
 80091fe:	9b17      	ldr	r3, [sp, #92]	; 0x5c
 8009200:	2b00      	cmp	r3, #0
 8009202:	f2c0 8151 	blt.w	80094a8 <_dtoa_r+0x718>
 8009206:	f1bb 0f0e 	cmp.w	fp, #14
 800920a:	f300 814d 	bgt.w	80094a8 <_dtoa_r+0x718>
 800920e:	4b45      	ldr	r3, [pc, #276]	; (8009324 <_dtoa_r+0x594>)
 8009210:	eb03 03cb 	add.w	r3, r3, fp, lsl #3
 8009214:	e9d3 3400 	ldrd	r3, r4, [r3]
 8009218:	e9cd 3406 	strd	r3, r4, [sp, #24]
 800921c:	9b23      	ldr	r3, [sp, #140]	; 0x8c
 800921e:	2b00      	cmp	r3, #0
 8009220:	f280 80da 	bge.w	80093d8 <_dtoa_r+0x648>
 8009224:	9b08      	ldr	r3, [sp, #32]
 8009226:	2b00      	cmp	r3, #0
 8009228:	f300 80d6 	bgt.w	80093d8 <_dtoa_r+0x648>
 800922c:	f040 826b 	bne.w	8009706 <_dtoa_r+0x976>
 8009230:	e9dd 0106 	ldrd	r0, r1, [sp, #24]
 8009234:	2200      	movs	r2, #0
 8009236:	4b40      	ldr	r3, [pc, #256]	; (8009338 <_dtoa_r+0x5a8>)
 8009238:	f7f7 f94e 	bl	80004d8 <__aeabi_dmul>
 800923c:	e9dd 2304 	ldrd	r2, r3, [sp, #16]
 8009240:	f7f7 fbd0 	bl	80009e4 <__aeabi_dcmpge>
 8009244:	9c08      	ldr	r4, [sp, #32]
 8009246:	4626      	mov	r6, r4
 8009248:	2800      	cmp	r0, #0
 800924a:	f040 8241 	bne.w	80096d0 <_dtoa_r+0x940>
 800924e:	2331      	movs	r3, #49	; 0x31
 8009250:	9f03      	ldr	r7, [sp, #12]
 8009252:	f10b 0b01 	add.w	fp, fp, #1
 8009256:	f807 3b01 	strb.w	r3, [r7], #1
 800925a:	e23d      	b.n	80096d8 <_dtoa_r+0x948>
 800925c:	07e2      	lsls	r2, r4, #31
 800925e:	d505      	bpl.n	800926c <_dtoa_r+0x4dc>
 8009260:	e9d6 2300 	ldrd	r2, r3, [r6]
 8009264:	f7f7 f938 	bl	80004d8 <__aeabi_dmul>
 8009268:	2301      	movs	r3, #1
 800926a:	3701      	adds	r7, #1
 800926c:	1064      	asrs	r4, r4, #1
 800926e:	3608      	adds	r6, #8
 8009270:	e76d      	b.n	800914e <_dtoa_r+0x3be>
 8009272:	2702      	movs	r7, #2
 8009274:	e770      	b.n	8009158 <_dtoa_r+0x3c8>
 8009276:	46d8      	mov	r8, fp
 8009278:	9c08      	ldr	r4, [sp, #32]
 800927a:	e78f      	b.n	800919c <_dtoa_r+0x40c>
 800927c:	9903      	ldr	r1, [sp, #12]
 800927e:	4b29      	ldr	r3, [pc, #164]	; (8009324 <_dtoa_r+0x594>)
 8009280:	4421      	add	r1, r4
 8009282:	9112      	str	r1, [sp, #72]	; 0x48
 8009284:	990b      	ldr	r1, [sp, #44]	; 0x2c
 8009286:	eb03 03c4 	add.w	r3, r3, r4, lsl #3
 800928a:	e9dd 6710 	ldrd	r6, r7, [sp, #64]	; 0x40
 800928e:	e953 2302 	ldrd	r2, r3, [r3, #-8]
 8009292:	2900      	cmp	r1, #0
 8009294:	d054      	beq.n	8009340 <_dtoa_r+0x5b0>
 8009296:	2000      	movs	r0, #0
 8009298:	4928      	ldr	r1, [pc, #160]	; (800933c <_dtoa_r+0x5ac>)
 800929a:	f7f7 fa47 	bl	800072c <__aeabi_ddiv>
 800929e:	463b      	mov	r3, r7
 80092a0:	4632      	mov	r2, r6
 80092a2:	f7f6 ff61 	bl	8000168 <__aeabi_dsub>
 80092a6:	e9cd 0110 	strd	r0, r1, [sp, #64]	; 0x40
 80092aa:	9f03      	ldr	r7, [sp, #12]
 80092ac:	e9dd 0104 	ldrd	r0, r1, [sp, #16]
 80092b0:	f7f7 fbc2 	bl	8000a38 <__aeabi_d2iz>
 80092b4:	4604      	mov	r4, r0
 80092b6:	f7f7 f8a5 	bl	8000404 <__aeabi_i2d>
 80092ba:	4602      	mov	r2, r0
 80092bc:	460b      	mov	r3, r1
 80092be:	e9dd 0104 	ldrd	r0, r1, [sp, #16]
 80092c2:	f7f6 ff51 	bl	8000168 <__aeabi_dsub>
 80092c6:	4602      	mov	r2, r0
 80092c8:	460b      	mov	r3, r1
 80092ca:	3430      	adds	r4, #48	; 0x30
 80092cc:	e9cd 2304 	strd	r2, r3, [sp, #16]
 80092d0:	e9dd 2310 	ldrd	r2, r3, [sp, #64]	; 0x40
 80092d4:	f807 4b01 	strb.w	r4, [r7], #1
 80092d8:	f7f7 fb70 	bl	80009bc <__aeabi_dcmplt>
 80092dc:	2800      	cmp	r0, #0
 80092de:	d173      	bne.n	80093c8 <_dtoa_r+0x638>
 80092e0:	e9dd 2304 	ldrd	r2, r3, [sp, #16]
 80092e4:	2000      	movs	r0, #0
 80092e6:	4911      	ldr	r1, [pc, #68]	; (800932c <_dtoa_r+0x59c>)
 80092e8:	f7f6 ff3e 	bl	8000168 <__aeabi_dsub>
 80092ec:	e9dd 2310 	ldrd	r2, r3, [sp, #64]	; 0x40
 80092f0:	f7f7 fb64 	bl	80009bc <__aeabi_dcmplt>
 80092f4:	2800      	cmp	r0, #0
 80092f6:	f040 80b6 	bne.w	8009466 <_dtoa_r+0x6d6>
 80092fa:	9b12      	ldr	r3, [sp, #72]	; 0x48
 80092fc:	429f      	cmp	r7, r3
 80092fe:	f43f af7a 	beq.w	80091f6 <_dtoa_r+0x466>
 8009302:	e9dd 0110 	ldrd	r0, r1, [sp, #64]	; 0x40
 8009306:	2200      	movs	r2, #0
 8009308:	4b09      	ldr	r3, [pc, #36]	; (8009330 <_dtoa_r+0x5a0>)
 800930a:	f7f7 f8e5 	bl	80004d8 <__aeabi_dmul>
 800930e:	2200      	movs	r2, #0
 8009310:	e9cd 0110 	strd	r0, r1, [sp, #64]	; 0x40
 8009314:	e9dd 0104 	ldrd	r0, r1, [sp, #16]
 8009318:	4b05      	ldr	r3, [pc, #20]	; (8009330 <_dtoa_r+0x5a0>)
 800931a:	f7f7 f8dd 	bl	80004d8 <__aeabi_dmul>
 800931e:	e9cd 0104 	strd	r0, r1, [sp, #16]
 8009322:	e7c3      	b.n	80092ac <_dtoa_r+0x51c>
 8009324:	0800db70 	.word	0x0800db70
 8009328:	0800db48 	.word	0x0800db48
 800932c:	3ff00000 	.word	0x3ff00000
 8009330:	40240000 	.word	0x40240000
 8009334:	401c0000 	.word	0x401c0000
 8009338:	40140000 	.word	0x40140000
 800933c:	3fe00000 	.word	0x3fe00000
 8009340:	4630      	mov	r0, r6
 8009342:	4639      	mov	r1, r7
 8009344:	f7f7 f8c8 	bl	80004d8 <__aeabi_dmul>
 8009348:	9b12      	ldr	r3, [sp, #72]	; 0x48
 800934a:	e9cd 0110 	strd	r0, r1, [sp, #64]	; 0x40
 800934e:	9c03      	ldr	r4, [sp, #12]
 8009350:	9314      	str	r3, [sp, #80]	; 0x50
 8009352:	e9dd 0104 	ldrd	r0, r1, [sp, #16]
 8009356:	f7f7 fb6f 	bl	8000a38 <__aeabi_d2iz>
 800935a:	9015      	str	r0, [sp, #84]	; 0x54
 800935c:	f7f7 f852 	bl	8000404 <__aeabi_i2d>
 8009360:	4602      	mov	r2, r0
 8009362:	460b      	mov	r3, r1
 8009364:	e9dd 0104 	ldrd	r0, r1, [sp, #16]
 8009368:	f7f6 fefe 	bl	8000168 <__aeabi_dsub>
 800936c:	9b15      	ldr	r3, [sp, #84]	; 0x54
 800936e:	4606      	mov	r6, r0
 8009370:	3330      	adds	r3, #48	; 0x30
 8009372:	f804 3b01 	strb.w	r3, [r4], #1
 8009376:	9b12      	ldr	r3, [sp, #72]	; 0x48
 8009378:	460f      	mov	r7, r1
 800937a:	429c      	cmp	r4, r3
 800937c:	f04f 0200 	mov.w	r2, #0
 8009380:	d124      	bne.n	80093cc <_dtoa_r+0x63c>
 8009382:	e9dd 0110 	ldrd	r0, r1, [sp, #64]	; 0x40
 8009386:	4baf      	ldr	r3, [pc, #700]	; (8009644 <_dtoa_r+0x8b4>)
 8009388:	f7f6 fef0 	bl	800016c <__adddf3>
 800938c:	4602      	mov	r2, r0
 800938e:	460b      	mov	r3, r1
 8009390:	4630      	mov	r0, r6
 8009392:	4639      	mov	r1, r7
 8009394:	f7f7 fb30 	bl	80009f8 <__aeabi_dcmpgt>
 8009398:	2800      	cmp	r0, #0
 800939a:	d163      	bne.n	8009464 <_dtoa_r+0x6d4>
 800939c:	e9dd 2310 	ldrd	r2, r3, [sp, #64]	; 0x40
 80093a0:	2000      	movs	r0, #0
 80093a2:	49a8      	ldr	r1, [pc, #672]	; (8009644 <_dtoa_r+0x8b4>)
 80093a4:	f7f6 fee0 	bl	8000168 <__aeabi_dsub>
 80093a8:	4602      	mov	r2, r0
 80093aa:	460b      	mov	r3, r1
 80093ac:	4630      	mov	r0, r6
 80093ae:	4639      	mov	r1, r7
 80093b0:	f7f7 fb04 	bl	80009bc <__aeabi_dcmplt>
 80093b4:	2800      	cmp	r0, #0
 80093b6:	f43f af1e 	beq.w	80091f6 <_dtoa_r+0x466>
 80093ba:	9f14      	ldr	r7, [sp, #80]	; 0x50
 80093bc:	1e7b      	subs	r3, r7, #1
 80093be:	9314      	str	r3, [sp, #80]	; 0x50
 80093c0:	f817 3c01 	ldrb.w	r3, [r7, #-1]
 80093c4:	2b30      	cmp	r3, #48	; 0x30
 80093c6:	d0f8      	beq.n	80093ba <_dtoa_r+0x62a>
 80093c8:	46c3      	mov	fp, r8
 80093ca:	e03b      	b.n	8009444 <_dtoa_r+0x6b4>
 80093cc:	4b9e      	ldr	r3, [pc, #632]	; (8009648 <_dtoa_r+0x8b8>)
 80093ce:	f7f7 f883 	bl	80004d8 <__aeabi_dmul>
 80093d2:	e9cd 0104 	strd	r0, r1, [sp, #16]
 80093d6:	e7bc      	b.n	8009352 <_dtoa_r+0x5c2>
 80093d8:	9f03      	ldr	r7, [sp, #12]
 80093da:	e9dd 8904 	ldrd	r8, r9, [sp, #16]
 80093de:	e9dd 2306 	ldrd	r2, r3, [sp, #24]
 80093e2:	4640      	mov	r0, r8
 80093e4:	4649      	mov	r1, r9
 80093e6:	f7f7 f9a1 	bl	800072c <__aeabi_ddiv>
 80093ea:	f7f7 fb25 	bl	8000a38 <__aeabi_d2iz>
 80093ee:	4604      	mov	r4, r0
 80093f0:	f7f7 f808 	bl	8000404 <__aeabi_i2d>
 80093f4:	e9dd 2306 	ldrd	r2, r3, [sp, #24]
 80093f8:	f7f7 f86e 	bl	80004d8 <__aeabi_dmul>
 80093fc:	4602      	mov	r2, r0
 80093fe:	460b      	mov	r3, r1
 8009400:	4640      	mov	r0, r8
 8009402:	4649      	mov	r1, r9
 8009404:	f7f6 feb0 	bl	8000168 <__aeabi_dsub>
 8009408:	f104 0630 	add.w	r6, r4, #48	; 0x30
 800940c:	f807 6b01 	strb.w	r6, [r7], #1
 8009410:	9e03      	ldr	r6, [sp, #12]
 8009412:	f8dd c020 	ldr.w	ip, [sp, #32]
 8009416:	1bbe      	subs	r6, r7, r6
 8009418:	45b4      	cmp	ip, r6
 800941a:	4602      	mov	r2, r0
 800941c:	460b      	mov	r3, r1
 800941e:	d136      	bne.n	800948e <_dtoa_r+0x6fe>
 8009420:	f7f6 fea4 	bl	800016c <__adddf3>
 8009424:	e9dd 2306 	ldrd	r2, r3, [sp, #24]
 8009428:	4680      	mov	r8, r0
 800942a:	4689      	mov	r9, r1
 800942c:	f7f7 fae4 	bl	80009f8 <__aeabi_dcmpgt>
 8009430:	bb58      	cbnz	r0, 800948a <_dtoa_r+0x6fa>
 8009432:	e9dd 2306 	ldrd	r2, r3, [sp, #24]
 8009436:	4640      	mov	r0, r8
 8009438:	4649      	mov	r1, r9
 800943a:	f7f7 fab5 	bl	80009a8 <__aeabi_dcmpeq>
 800943e:	b108      	cbz	r0, 8009444 <_dtoa_r+0x6b4>
 8009440:	07e3      	lsls	r3, r4, #31
 8009442:	d422      	bmi.n	800948a <_dtoa_r+0x6fa>
 8009444:	4651      	mov	r1, sl
 8009446:	4628      	mov	r0, r5
 8009448:	f000 fbc2 	bl	8009bd0 <_Bfree>
 800944c:	2300      	movs	r3, #0
 800944e:	9a24      	ldr	r2, [sp, #144]	; 0x90
 8009450:	703b      	strb	r3, [r7, #0]
 8009452:	f10b 0301 	add.w	r3, fp, #1
 8009456:	6013      	str	r3, [r2, #0]
 8009458:	9b26      	ldr	r3, [sp, #152]	; 0x98
 800945a:	2b00      	cmp	r3, #0
 800945c:	f43f ace6 	beq.w	8008e2c <_dtoa_r+0x9c>
 8009460:	601f      	str	r7, [r3, #0]
 8009462:	e4e3      	b.n	8008e2c <_dtoa_r+0x9c>
 8009464:	4627      	mov	r7, r4
 8009466:	463b      	mov	r3, r7
 8009468:	461f      	mov	r7, r3
 800946a:	f813 2d01 	ldrb.w	r2, [r3, #-1]!
 800946e:	2a39      	cmp	r2, #57	; 0x39
 8009470:	d107      	bne.n	8009482 <_dtoa_r+0x6f2>
 8009472:	9a03      	ldr	r2, [sp, #12]
 8009474:	429a      	cmp	r2, r3
 8009476:	d1f7      	bne.n	8009468 <_dtoa_r+0x6d8>
 8009478:	2230      	movs	r2, #48	; 0x30
 800947a:	9903      	ldr	r1, [sp, #12]
 800947c:	f108 0801 	add.w	r8, r8, #1
 8009480:	700a      	strb	r2, [r1, #0]
 8009482:	781a      	ldrb	r2, [r3, #0]
 8009484:	3201      	adds	r2, #1
 8009486:	701a      	strb	r2, [r3, #0]
 8009488:	e79e      	b.n	80093c8 <_dtoa_r+0x638>
 800948a:	46d8      	mov	r8, fp
 800948c:	e7eb      	b.n	8009466 <_dtoa_r+0x6d6>
 800948e:	2200      	movs	r2, #0
 8009490:	4b6d      	ldr	r3, [pc, #436]	; (8009648 <_dtoa_r+0x8b8>)
 8009492:	f7f7 f821 	bl	80004d8 <__aeabi_dmul>
 8009496:	2200      	movs	r2, #0
 8009498:	2300      	movs	r3, #0
 800949a:	4680      	mov	r8, r0
 800949c:	4689      	mov	r9, r1
 800949e:	f7f7 fa83 	bl	80009a8 <__aeabi_dcmpeq>
 80094a2:	2800      	cmp	r0, #0
 80094a4:	d09b      	beq.n	80093de <_dtoa_r+0x64e>
 80094a6:	e7cd      	b.n	8009444 <_dtoa_r+0x6b4>
 80094a8:	9a0b      	ldr	r2, [sp, #44]	; 0x2c
 80094aa:	2a00      	cmp	r2, #0
 80094ac:	f000 80c4 	beq.w	8009638 <_dtoa_r+0x8a8>
 80094b0:	9a22      	ldr	r2, [sp, #136]	; 0x88
 80094b2:	2a01      	cmp	r2, #1
 80094b4:	f300 80a8 	bgt.w	8009608 <_dtoa_r+0x878>
 80094b8:	9a13      	ldr	r2, [sp, #76]	; 0x4c
 80094ba:	2a00      	cmp	r2, #0
 80094bc:	f000 80a0 	beq.w	8009600 <_dtoa_r+0x870>
 80094c0:	f203 4333 	addw	r3, r3, #1075	; 0x433
 80094c4:	464f      	mov	r7, r9
 80094c6:	9c0a      	ldr	r4, [sp, #40]	; 0x28
 80094c8:	9a09      	ldr	r2, [sp, #36]	; 0x24
 80094ca:	2101      	movs	r1, #1
 80094cc:	441a      	add	r2, r3
 80094ce:	4628      	mov	r0, r5
 80094d0:	4499      	add	r9, r3
 80094d2:	9209      	str	r2, [sp, #36]	; 0x24
 80094d4:	f000 fc32 	bl	8009d3c <__i2b>
 80094d8:	4606      	mov	r6, r0
 80094da:	b15f      	cbz	r7, 80094f4 <_dtoa_r+0x764>
 80094dc:	9b09      	ldr	r3, [sp, #36]	; 0x24
 80094de:	2b00      	cmp	r3, #0
 80094e0:	dd08      	ble.n	80094f4 <_dtoa_r+0x764>
 80094e2:	42bb      	cmp	r3, r7
 80094e4:	bfa8      	it	ge
 80094e6:	463b      	movge	r3, r7
 80094e8:	9a09      	ldr	r2, [sp, #36]	; 0x24
 80094ea:	eba9 0903 	sub.w	r9, r9, r3
 80094ee:	1aff      	subs	r7, r7, r3
 80094f0:	1ad3      	subs	r3, r2, r3
 80094f2:	9309      	str	r3, [sp, #36]	; 0x24
 80094f4:	9b0a      	ldr	r3, [sp, #40]	; 0x28
 80094f6:	b1f3      	cbz	r3, 8009536 <_dtoa_r+0x7a6>
 80094f8:	9b0b      	ldr	r3, [sp, #44]	; 0x2c
 80094fa:	2b00      	cmp	r3, #0
 80094fc:	f000 80a0 	beq.w	8009640 <_dtoa_r+0x8b0>
 8009500:	2c00      	cmp	r4, #0
 8009502:	dd10      	ble.n	8009526 <_dtoa_r+0x796>
 8009504:	4631      	mov	r1, r6
 8009506:	4622      	mov	r2, r4
 8009508:	4628      	mov	r0, r5
 800950a:	f000 fcd5 	bl	8009eb8 <__pow5mult>
 800950e:	4652      	mov	r2, sl
 8009510:	4601      	mov	r1, r0
 8009512:	4606      	mov	r6, r0
 8009514:	4628      	mov	r0, r5
 8009516:	f000 fc27 	bl	8009d68 <__multiply>
 800951a:	4680      	mov	r8, r0
 800951c:	4651      	mov	r1, sl
 800951e:	4628      	mov	r0, r5
 8009520:	f000 fb56 	bl	8009bd0 <_Bfree>
 8009524:	46c2      	mov	sl, r8
 8009526:	9b0a      	ldr	r3, [sp, #40]	; 0x28
 8009528:	1b1a      	subs	r2, r3, r4
 800952a:	d004      	beq.n	8009536 <_dtoa_r+0x7a6>
 800952c:	4651      	mov	r1, sl
 800952e:	4628      	mov	r0, r5
 8009530:	f000 fcc2 	bl	8009eb8 <__pow5mult>
 8009534:	4682      	mov	sl, r0
 8009536:	2101      	movs	r1, #1
 8009538:	4628      	mov	r0, r5
 800953a:	f000 fbff 	bl	8009d3c <__i2b>
 800953e:	9b0e      	ldr	r3, [sp, #56]	; 0x38
 8009540:	4604      	mov	r4, r0
 8009542:	2b00      	cmp	r3, #0
 8009544:	f340 8082 	ble.w	800964c <_dtoa_r+0x8bc>
 8009548:	461a      	mov	r2, r3
 800954a:	4601      	mov	r1, r0
 800954c:	4628      	mov	r0, r5
 800954e:	f000 fcb3 	bl	8009eb8 <__pow5mult>
 8009552:	9b22      	ldr	r3, [sp, #136]	; 0x88
 8009554:	4604      	mov	r4, r0
 8009556:	2b01      	cmp	r3, #1
 8009558:	dd7b      	ble.n	8009652 <_dtoa_r+0x8c2>
 800955a:	f04f 0800 	mov.w	r8, #0
 800955e:	6923      	ldr	r3, [r4, #16]
 8009560:	eb04 0383 	add.w	r3, r4, r3, lsl #2
 8009564:	6918      	ldr	r0, [r3, #16]
 8009566:	f000 fb9b 	bl	8009ca0 <__hi0bits>
 800956a:	f1c0 0020 	rsb	r0, r0, #32
 800956e:	9b09      	ldr	r3, [sp, #36]	; 0x24
 8009570:	4418      	add	r0, r3
 8009572:	f010 001f 	ands.w	r0, r0, #31
 8009576:	f000 8092 	beq.w	800969e <_dtoa_r+0x90e>
 800957a:	f1c0 0320 	rsb	r3, r0, #32
 800957e:	2b04      	cmp	r3, #4
 8009580:	f340 8085 	ble.w	800968e <_dtoa_r+0x8fe>
 8009584:	9b09      	ldr	r3, [sp, #36]	; 0x24
 8009586:	f1c0 001c 	rsb	r0, r0, #28
 800958a:	4403      	add	r3, r0
 800958c:	4481      	add	r9, r0
 800958e:	4407      	add	r7, r0
 8009590:	9309      	str	r3, [sp, #36]	; 0x24
 8009592:	f1b9 0f00 	cmp.w	r9, #0
 8009596:	dd05      	ble.n	80095a4 <_dtoa_r+0x814>
 8009598:	4651      	mov	r1, sl
 800959a:	464a      	mov	r2, r9
 800959c:	4628      	mov	r0, r5
 800959e:	f000 fce5 	bl	8009f6c <__lshift>
 80095a2:	4682      	mov	sl, r0
 80095a4:	9b09      	ldr	r3, [sp, #36]	; 0x24
 80095a6:	2b00      	cmp	r3, #0
 80095a8:	dd05      	ble.n	80095b6 <_dtoa_r+0x826>
 80095aa:	4621      	mov	r1, r4
 80095ac:	461a      	mov	r2, r3
 80095ae:	4628      	mov	r0, r5
 80095b0:	f000 fcdc 	bl	8009f6c <__lshift>
 80095b4:	4604      	mov	r4, r0
 80095b6:	9b0f      	ldr	r3, [sp, #60]	; 0x3c
 80095b8:	2b00      	cmp	r3, #0
 80095ba:	d072      	beq.n	80096a2 <_dtoa_r+0x912>
 80095bc:	4621      	mov	r1, r4
 80095be:	4650      	mov	r0, sl
 80095c0:	f000 fd40 	bl	800a044 <__mcmp>
 80095c4:	2800      	cmp	r0, #0
 80095c6:	da6c      	bge.n	80096a2 <_dtoa_r+0x912>
 80095c8:	2300      	movs	r3, #0
 80095ca:	4651      	mov	r1, sl
 80095cc:	220a      	movs	r2, #10
 80095ce:	4628      	mov	r0, r5
 80095d0:	f000 fb20 	bl	8009c14 <__multadd>
 80095d4:	9b0b      	ldr	r3, [sp, #44]	; 0x2c
 80095d6:	4682      	mov	sl, r0
 80095d8:	f10b 3bff 	add.w	fp, fp, #4294967295
 80095dc:	2b00      	cmp	r3, #0
 80095de:	f000 81ac 	beq.w	800993a <_dtoa_r+0xbaa>
 80095e2:	2300      	movs	r3, #0
 80095e4:	4631      	mov	r1, r6
 80095e6:	220a      	movs	r2, #10
 80095e8:	4628      	mov	r0, r5
 80095ea:	f000 fb13 	bl	8009c14 <__multadd>
 80095ee:	9b06      	ldr	r3, [sp, #24]
 80095f0:	4606      	mov	r6, r0
 80095f2:	2b00      	cmp	r3, #0
 80095f4:	f300 8093 	bgt.w	800971e <_dtoa_r+0x98e>
 80095f8:	9b22      	ldr	r3, [sp, #136]	; 0x88
 80095fa:	2b02      	cmp	r3, #2
 80095fc:	dc59      	bgt.n	80096b2 <_dtoa_r+0x922>
 80095fe:	e08e      	b.n	800971e <_dtoa_r+0x98e>
 8009600:	9b16      	ldr	r3, [sp, #88]	; 0x58
 8009602:	f1c3 0336 	rsb	r3, r3, #54	; 0x36
 8009606:	e75d      	b.n	80094c4 <_dtoa_r+0x734>
 8009608:	9b08      	ldr	r3, [sp, #32]
 800960a:	1e5c      	subs	r4, r3, #1
 800960c:	9b0a      	ldr	r3, [sp, #40]	; 0x28
 800960e:	42a3      	cmp	r3, r4
 8009610:	bfbf      	itttt	lt
 8009612:	9b0a      	ldrlt	r3, [sp, #40]	; 0x28
 8009614:	9a0e      	ldrlt	r2, [sp, #56]	; 0x38
 8009616:	1ae3      	sublt	r3, r4, r3
 8009618:	18d2      	addlt	r2, r2, r3
 800961a:	bfa8      	it	ge
 800961c:	1b1c      	subge	r4, r3, r4
 800961e:	9b08      	ldr	r3, [sp, #32]
 8009620:	bfbe      	ittt	lt
 8009622:	940a      	strlt	r4, [sp, #40]	; 0x28
 8009624:	920e      	strlt	r2, [sp, #56]	; 0x38
 8009626:	2400      	movlt	r4, #0
 8009628:	2b00      	cmp	r3, #0
 800962a:	bfb5      	itete	lt
 800962c:	eba9 0703 	sublt.w	r7, r9, r3
 8009630:	464f      	movge	r7, r9
 8009632:	2300      	movlt	r3, #0
 8009634:	9b08      	ldrge	r3, [sp, #32]
 8009636:	e747      	b.n	80094c8 <_dtoa_r+0x738>
 8009638:	464f      	mov	r7, r9
 800963a:	9c0a      	ldr	r4, [sp, #40]	; 0x28
 800963c:	9e0b      	ldr	r6, [sp, #44]	; 0x2c
 800963e:	e74c      	b.n	80094da <_dtoa_r+0x74a>
 8009640:	9a0a      	ldr	r2, [sp, #40]	; 0x28
 8009642:	e773      	b.n	800952c <_dtoa_r+0x79c>
 8009644:	3fe00000 	.word	0x3fe00000
 8009648:	40240000 	.word	0x40240000
 800964c:	9b22      	ldr	r3, [sp, #136]	; 0x88
 800964e:	2b01      	cmp	r3, #1
 8009650:	dc18      	bgt.n	8009684 <_dtoa_r+0x8f4>
 8009652:	9b04      	ldr	r3, [sp, #16]
 8009654:	b9b3      	cbnz	r3, 8009684 <_dtoa_r+0x8f4>
 8009656:	9b05      	ldr	r3, [sp, #20]
 8009658:	f3c3 0313 	ubfx	r3, r3, #0, #20
 800965c:	b993      	cbnz	r3, 8009684 <_dtoa_r+0x8f4>
 800965e:	9b05      	ldr	r3, [sp, #20]
 8009660:	f023 4300 	bic.w	r3, r3, #2147483648	; 0x80000000
 8009664:	0d1b      	lsrs	r3, r3, #20
 8009666:	051b      	lsls	r3, r3, #20
 8009668:	b17b      	cbz	r3, 800968a <_dtoa_r+0x8fa>
 800966a:	f04f 0801 	mov.w	r8, #1
 800966e:	9b09      	ldr	r3, [sp, #36]	; 0x24
 8009670:	f109 0901 	add.w	r9, r9, #1
 8009674:	3301      	adds	r3, #1
 8009676:	9309      	str	r3, [sp, #36]	; 0x24
 8009678:	9b0e      	ldr	r3, [sp, #56]	; 0x38
 800967a:	2b00      	cmp	r3, #0
 800967c:	f47f af6f 	bne.w	800955e <_dtoa_r+0x7ce>
 8009680:	2001      	movs	r0, #1
 8009682:	e774      	b.n	800956e <_dtoa_r+0x7de>
 8009684:	f04f 0800 	mov.w	r8, #0
 8009688:	e7f6      	b.n	8009678 <_dtoa_r+0x8e8>
 800968a:	4698      	mov	r8, r3
 800968c:	e7f4      	b.n	8009678 <_dtoa_r+0x8e8>
 800968e:	d080      	beq.n	8009592 <_dtoa_r+0x802>
 8009690:	9a09      	ldr	r2, [sp, #36]	; 0x24
 8009692:	331c      	adds	r3, #28
 8009694:	441a      	add	r2, r3
 8009696:	4499      	add	r9, r3
 8009698:	441f      	add	r7, r3
 800969a:	9209      	str	r2, [sp, #36]	; 0x24
 800969c:	e779      	b.n	8009592 <_dtoa_r+0x802>
 800969e:	4603      	mov	r3, r0
 80096a0:	e7f6      	b.n	8009690 <_dtoa_r+0x900>
 80096a2:	9b08      	ldr	r3, [sp, #32]
 80096a4:	2b00      	cmp	r3, #0
 80096a6:	dc34      	bgt.n	8009712 <_dtoa_r+0x982>
 80096a8:	9b22      	ldr	r3, [sp, #136]	; 0x88
 80096aa:	2b02      	cmp	r3, #2
 80096ac:	dd31      	ble.n	8009712 <_dtoa_r+0x982>
 80096ae:	9b08      	ldr	r3, [sp, #32]
 80096b0:	9306      	str	r3, [sp, #24]
 80096b2:	9b06      	ldr	r3, [sp, #24]
 80096b4:	b963      	cbnz	r3, 80096d0 <_dtoa_r+0x940>
 80096b6:	4621      	mov	r1, r4
 80096b8:	2205      	movs	r2, #5
 80096ba:	4628      	mov	r0, r5
 80096bc:	f000 faaa 	bl	8009c14 <__multadd>
 80096c0:	4601      	mov	r1, r0
 80096c2:	4604      	mov	r4, r0
 80096c4:	4650      	mov	r0, sl
 80096c6:	f000 fcbd 	bl	800a044 <__mcmp>
 80096ca:	2800      	cmp	r0, #0
 80096cc:	f73f adbf 	bgt.w	800924e <_dtoa_r+0x4be>
 80096d0:	9b23      	ldr	r3, [sp, #140]	; 0x8c
 80096d2:	9f03      	ldr	r7, [sp, #12]
 80096d4:	ea6f 0b03 	mvn.w	fp, r3
 80096d8:	f04f 0800 	mov.w	r8, #0
 80096dc:	4621      	mov	r1, r4
 80096de:	4628      	mov	r0, r5
 80096e0:	f000 fa76 	bl	8009bd0 <_Bfree>
 80096e4:	2e00      	cmp	r6, #0
 80096e6:	f43f aead 	beq.w	8009444 <_dtoa_r+0x6b4>
 80096ea:	f1b8 0f00 	cmp.w	r8, #0
 80096ee:	d005      	beq.n	80096fc <_dtoa_r+0x96c>
 80096f0:	45b0      	cmp	r8, r6
 80096f2:	d003      	beq.n	80096fc <_dtoa_r+0x96c>
 80096f4:	4641      	mov	r1, r8
 80096f6:	4628      	mov	r0, r5
 80096f8:	f000 fa6a 	bl	8009bd0 <_Bfree>
 80096fc:	4631      	mov	r1, r6
 80096fe:	4628      	mov	r0, r5
 8009700:	f000 fa66 	bl	8009bd0 <_Bfree>
 8009704:	e69e      	b.n	8009444 <_dtoa_r+0x6b4>
 8009706:	2400      	movs	r4, #0
 8009708:	4626      	mov	r6, r4
 800970a:	e7e1      	b.n	80096d0 <_dtoa_r+0x940>
 800970c:	46c3      	mov	fp, r8
 800970e:	4626      	mov	r6, r4
 8009710:	e59d      	b.n	800924e <_dtoa_r+0x4be>
 8009712:	9b0b      	ldr	r3, [sp, #44]	; 0x2c
 8009714:	2b00      	cmp	r3, #0
 8009716:	f000 80c8 	beq.w	80098aa <_dtoa_r+0xb1a>
 800971a:	9b08      	ldr	r3, [sp, #32]
 800971c:	9306      	str	r3, [sp, #24]
 800971e:	2f00      	cmp	r7, #0
 8009720:	dd05      	ble.n	800972e <_dtoa_r+0x99e>
 8009722:	4631      	mov	r1, r6
 8009724:	463a      	mov	r2, r7
 8009726:	4628      	mov	r0, r5
 8009728:	f000 fc20 	bl	8009f6c <__lshift>
 800972c:	4606      	mov	r6, r0
 800972e:	f1b8 0f00 	cmp.w	r8, #0
 8009732:	d05b      	beq.n	80097ec <_dtoa_r+0xa5c>
 8009734:	4628      	mov	r0, r5
 8009736:	6871      	ldr	r1, [r6, #4]
 8009738:	f000 fa0a 	bl	8009b50 <_Balloc>
 800973c:	4607      	mov	r7, r0
 800973e:	b928      	cbnz	r0, 800974c <_dtoa_r+0x9bc>
 8009740:	4602      	mov	r2, r0
 8009742:	f240 21ef 	movw	r1, #751	; 0x2ef
 8009746:	4b81      	ldr	r3, [pc, #516]	; (800994c <_dtoa_r+0xbbc>)
 8009748:	f7ff bb36 	b.w	8008db8 <_dtoa_r+0x28>
 800974c:	6932      	ldr	r2, [r6, #16]
 800974e:	f106 010c 	add.w	r1, r6, #12
 8009752:	3202      	adds	r2, #2
 8009754:	0092      	lsls	r2, r2, #2
 8009756:	300c      	adds	r0, #12
 8009758:	f7ff fa82 	bl	8008c60 <memcpy>
 800975c:	2201      	movs	r2, #1
 800975e:	4639      	mov	r1, r7
 8009760:	4628      	mov	r0, r5
 8009762:	f000 fc03 	bl	8009f6c <__lshift>
 8009766:	46b0      	mov	r8, r6
 8009768:	4606      	mov	r6, r0
 800976a:	9b03      	ldr	r3, [sp, #12]
 800976c:	9a03      	ldr	r2, [sp, #12]
 800976e:	3301      	adds	r3, #1
 8009770:	9308      	str	r3, [sp, #32]
 8009772:	9b06      	ldr	r3, [sp, #24]
 8009774:	4413      	add	r3, r2
 8009776:	930b      	str	r3, [sp, #44]	; 0x2c
 8009778:	9b04      	ldr	r3, [sp, #16]
 800977a:	f003 0301 	and.w	r3, r3, #1
 800977e:	930a      	str	r3, [sp, #40]	; 0x28
 8009780:	9b08      	ldr	r3, [sp, #32]
 8009782:	4621      	mov	r1, r4
 8009784:	3b01      	subs	r3, #1
 8009786:	4650      	mov	r0, sl
 8009788:	9304      	str	r3, [sp, #16]
 800978a:	f7ff fa77 	bl	8008c7c <quorem>
 800978e:	4641      	mov	r1, r8
 8009790:	9006      	str	r0, [sp, #24]
 8009792:	f100 0930 	add.w	r9, r0, #48	; 0x30
 8009796:	4650      	mov	r0, sl
 8009798:	f000 fc54 	bl	800a044 <__mcmp>
 800979c:	4632      	mov	r2, r6
 800979e:	9009      	str	r0, [sp, #36]	; 0x24
 80097a0:	4621      	mov	r1, r4
 80097a2:	4628      	mov	r0, r5
 80097a4:	f000 fc6a 	bl	800a07c <__mdiff>
 80097a8:	68c2      	ldr	r2, [r0, #12]
 80097aa:	4607      	mov	r7, r0
 80097ac:	bb02      	cbnz	r2, 80097f0 <_dtoa_r+0xa60>
 80097ae:	4601      	mov	r1, r0
 80097b0:	4650      	mov	r0, sl
 80097b2:	f000 fc47 	bl	800a044 <__mcmp>
 80097b6:	4602      	mov	r2, r0
 80097b8:	4639      	mov	r1, r7
 80097ba:	4628      	mov	r0, r5
 80097bc:	920c      	str	r2, [sp, #48]	; 0x30
 80097be:	f000 fa07 	bl	8009bd0 <_Bfree>
 80097c2:	9b22      	ldr	r3, [sp, #136]	; 0x88
 80097c4:	9a0c      	ldr	r2, [sp, #48]	; 0x30
 80097c6:	9f08      	ldr	r7, [sp, #32]
 80097c8:	ea43 0102 	orr.w	r1, r3, r2
 80097cc:	9b0a      	ldr	r3, [sp, #40]	; 0x28
 80097ce:	4319      	orrs	r1, r3
 80097d0:	d110      	bne.n	80097f4 <_dtoa_r+0xa64>
 80097d2:	f1b9 0f39 	cmp.w	r9, #57	; 0x39
 80097d6:	d029      	beq.n	800982c <_dtoa_r+0xa9c>
 80097d8:	9b09      	ldr	r3, [sp, #36]	; 0x24
 80097da:	2b00      	cmp	r3, #0
 80097dc:	dd02      	ble.n	80097e4 <_dtoa_r+0xa54>
 80097de:	9b06      	ldr	r3, [sp, #24]
 80097e0:	f103 0931 	add.w	r9, r3, #49	; 0x31
 80097e4:	9b04      	ldr	r3, [sp, #16]
 80097e6:	f883 9000 	strb.w	r9, [r3]
 80097ea:	e777      	b.n	80096dc <_dtoa_r+0x94c>
 80097ec:	4630      	mov	r0, r6
 80097ee:	e7ba      	b.n	8009766 <_dtoa_r+0x9d6>
 80097f0:	2201      	movs	r2, #1
 80097f2:	e7e1      	b.n	80097b8 <_dtoa_r+0xa28>
 80097f4:	9b09      	ldr	r3, [sp, #36]	; 0x24
 80097f6:	2b00      	cmp	r3, #0
 80097f8:	db04      	blt.n	8009804 <_dtoa_r+0xa74>
 80097fa:	9922      	ldr	r1, [sp, #136]	; 0x88
 80097fc:	430b      	orrs	r3, r1
 80097fe:	990a      	ldr	r1, [sp, #40]	; 0x28
 8009800:	430b      	orrs	r3, r1
 8009802:	d120      	bne.n	8009846 <_dtoa_r+0xab6>
 8009804:	2a00      	cmp	r2, #0
 8009806:	dded      	ble.n	80097e4 <_dtoa_r+0xa54>
 8009808:	4651      	mov	r1, sl
 800980a:	2201      	movs	r2, #1
 800980c:	4628      	mov	r0, r5
 800980e:	f000 fbad 	bl	8009f6c <__lshift>
 8009812:	4621      	mov	r1, r4
 8009814:	4682      	mov	sl, r0
 8009816:	f000 fc15 	bl	800a044 <__mcmp>
 800981a:	2800      	cmp	r0, #0
 800981c:	dc03      	bgt.n	8009826 <_dtoa_r+0xa96>
 800981e:	d1e1      	bne.n	80097e4 <_dtoa_r+0xa54>
 8009820:	f019 0f01 	tst.w	r9, #1
 8009824:	d0de      	beq.n	80097e4 <_dtoa_r+0xa54>
 8009826:	f1b9 0f39 	cmp.w	r9, #57	; 0x39
 800982a:	d1d8      	bne.n	80097de <_dtoa_r+0xa4e>
 800982c:	2339      	movs	r3, #57	; 0x39
 800982e:	9a04      	ldr	r2, [sp, #16]
 8009830:	7013      	strb	r3, [r2, #0]
 8009832:	463b      	mov	r3, r7
 8009834:	461f      	mov	r7, r3
 8009836:	f817 2c01 	ldrb.w	r2, [r7, #-1]
 800983a:	3b01      	subs	r3, #1
 800983c:	2a39      	cmp	r2, #57	; 0x39
 800983e:	d06b      	beq.n	8009918 <_dtoa_r+0xb88>
 8009840:	3201      	adds	r2, #1
 8009842:	701a      	strb	r2, [r3, #0]
 8009844:	e74a      	b.n	80096dc <_dtoa_r+0x94c>
 8009846:	2a00      	cmp	r2, #0
 8009848:	dd07      	ble.n	800985a <_dtoa_r+0xaca>
 800984a:	f1b9 0f39 	cmp.w	r9, #57	; 0x39
 800984e:	d0ed      	beq.n	800982c <_dtoa_r+0xa9c>
 8009850:	9a04      	ldr	r2, [sp, #16]
 8009852:	f109 0301 	add.w	r3, r9, #1
 8009856:	7013      	strb	r3, [r2, #0]
 8009858:	e740      	b.n	80096dc <_dtoa_r+0x94c>
 800985a:	9b08      	ldr	r3, [sp, #32]
 800985c:	9a0b      	ldr	r2, [sp, #44]	; 0x2c
 800985e:	f803 9c01 	strb.w	r9, [r3, #-1]
 8009862:	4293      	cmp	r3, r2
 8009864:	d042      	beq.n	80098ec <_dtoa_r+0xb5c>
 8009866:	4651      	mov	r1, sl
 8009868:	2300      	movs	r3, #0
 800986a:	220a      	movs	r2, #10
 800986c:	4628      	mov	r0, r5
 800986e:	f000 f9d1 	bl	8009c14 <__multadd>
 8009872:	45b0      	cmp	r8, r6
 8009874:	4682      	mov	sl, r0
 8009876:	f04f 0300 	mov.w	r3, #0
 800987a:	f04f 020a 	mov.w	r2, #10
 800987e:	4641      	mov	r1, r8
 8009880:	4628      	mov	r0, r5
 8009882:	d107      	bne.n	8009894 <_dtoa_r+0xb04>
 8009884:	f000 f9c6 	bl	8009c14 <__multadd>
 8009888:	4680      	mov	r8, r0
 800988a:	4606      	mov	r6, r0
 800988c:	9b08      	ldr	r3, [sp, #32]
 800988e:	3301      	adds	r3, #1
 8009890:	9308      	str	r3, [sp, #32]
 8009892:	e775      	b.n	8009780 <_dtoa_r+0x9f0>
 8009894:	f000 f9be 	bl	8009c14 <__multadd>
 8009898:	4631      	mov	r1, r6
 800989a:	4680      	mov	r8, r0
 800989c:	2300      	movs	r3, #0
 800989e:	220a      	movs	r2, #10
 80098a0:	4628      	mov	r0, r5
 80098a2:	f000 f9b7 	bl	8009c14 <__multadd>
 80098a6:	4606      	mov	r6, r0
 80098a8:	e7f0      	b.n	800988c <_dtoa_r+0xafc>
 80098aa:	9b08      	ldr	r3, [sp, #32]
 80098ac:	9306      	str	r3, [sp, #24]
 80098ae:	9f03      	ldr	r7, [sp, #12]
 80098b0:	4621      	mov	r1, r4
 80098b2:	4650      	mov	r0, sl
 80098b4:	f7ff f9e2 	bl	8008c7c <quorem>
 80098b8:	9b03      	ldr	r3, [sp, #12]
 80098ba:	f100 0930 	add.w	r9, r0, #48	; 0x30
 80098be:	f807 9b01 	strb.w	r9, [r7], #1
 80098c2:	1afa      	subs	r2, r7, r3
 80098c4:	9b06      	ldr	r3, [sp, #24]
 80098c6:	4293      	cmp	r3, r2
 80098c8:	dd07      	ble.n	80098da <_dtoa_r+0xb4a>
 80098ca:	4651      	mov	r1, sl
 80098cc:	2300      	movs	r3, #0
 80098ce:	220a      	movs	r2, #10
 80098d0:	4628      	mov	r0, r5
 80098d2:	f000 f99f 	bl	8009c14 <__multadd>
 80098d6:	4682      	mov	sl, r0
 80098d8:	e7ea      	b.n	80098b0 <_dtoa_r+0xb20>
 80098da:	9b06      	ldr	r3, [sp, #24]
 80098dc:	f04f 0800 	mov.w	r8, #0
 80098e0:	2b00      	cmp	r3, #0
 80098e2:	bfcc      	ite	gt
 80098e4:	461f      	movgt	r7, r3
 80098e6:	2701      	movle	r7, #1
 80098e8:	9b03      	ldr	r3, [sp, #12]
 80098ea:	441f      	add	r7, r3
 80098ec:	4651      	mov	r1, sl
 80098ee:	2201      	movs	r2, #1
 80098f0:	4628      	mov	r0, r5
 80098f2:	f000 fb3b 	bl	8009f6c <__lshift>
 80098f6:	4621      	mov	r1, r4
 80098f8:	4682      	mov	sl, r0
 80098fa:	f000 fba3 	bl	800a044 <__mcmp>
 80098fe:	2800      	cmp	r0, #0
 8009900:	dc97      	bgt.n	8009832 <_dtoa_r+0xaa2>
 8009902:	d102      	bne.n	800990a <_dtoa_r+0xb7a>
 8009904:	f019 0f01 	tst.w	r9, #1
 8009908:	d193      	bne.n	8009832 <_dtoa_r+0xaa2>
 800990a:	463b      	mov	r3, r7
 800990c:	461f      	mov	r7, r3
 800990e:	f813 2d01 	ldrb.w	r2, [r3, #-1]!
 8009912:	2a30      	cmp	r2, #48	; 0x30
 8009914:	d0fa      	beq.n	800990c <_dtoa_r+0xb7c>
 8009916:	e6e1      	b.n	80096dc <_dtoa_r+0x94c>
 8009918:	9a03      	ldr	r2, [sp, #12]
 800991a:	429a      	cmp	r2, r3
 800991c:	d18a      	bne.n	8009834 <_dtoa_r+0xaa4>
 800991e:	2331      	movs	r3, #49	; 0x31
 8009920:	f10b 0b01 	add.w	fp, fp, #1
 8009924:	e797      	b.n	8009856 <_dtoa_r+0xac6>
 8009926:	4b0a      	ldr	r3, [pc, #40]	; (8009950 <_dtoa_r+0xbc0>)
 8009928:	f7ff ba9f 	b.w	8008e6a <_dtoa_r+0xda>
 800992c:	9b26      	ldr	r3, [sp, #152]	; 0x98
 800992e:	2b00      	cmp	r3, #0
 8009930:	f47f aa77 	bne.w	8008e22 <_dtoa_r+0x92>
 8009934:	4b07      	ldr	r3, [pc, #28]	; (8009954 <_dtoa_r+0xbc4>)
 8009936:	f7ff ba98 	b.w	8008e6a <_dtoa_r+0xda>
 800993a:	9b06      	ldr	r3, [sp, #24]
 800993c:	2b00      	cmp	r3, #0
 800993e:	dcb6      	bgt.n	80098ae <_dtoa_r+0xb1e>
 8009940:	9b22      	ldr	r3, [sp, #136]	; 0x88
 8009942:	2b02      	cmp	r3, #2
 8009944:	f73f aeb5 	bgt.w	80096b2 <_dtoa_r+0x922>
 8009948:	e7b1      	b.n	80098ae <_dtoa_r+0xb1e>
 800994a:	bf00      	nop
 800994c:	0800dadc 	.word	0x0800dadc
 8009950:	0800da3c 	.word	0x0800da3c
 8009954:	0800da60 	.word	0x0800da60

08009958 <_free_r>:
 8009958:	b538      	push	{r3, r4, r5, lr}
 800995a:	4605      	mov	r5, r0
 800995c:	2900      	cmp	r1, #0
 800995e:	d040      	beq.n	80099e2 <_free_r+0x8a>
 8009960:	f851 3c04 	ldr.w	r3, [r1, #-4]
 8009964:	1f0c      	subs	r4, r1, #4
 8009966:	2b00      	cmp	r3, #0
 8009968:	bfb8      	it	lt
 800996a:	18e4      	addlt	r4, r4, r3
 800996c:	f000 f8e4 	bl	8009b38 <__malloc_lock>
 8009970:	4a1c      	ldr	r2, [pc, #112]	; (80099e4 <_free_r+0x8c>)
 8009972:	6813      	ldr	r3, [r2, #0]
 8009974:	b933      	cbnz	r3, 8009984 <_free_r+0x2c>
 8009976:	6063      	str	r3, [r4, #4]
 8009978:	6014      	str	r4, [r2, #0]
 800997a:	4628      	mov	r0, r5
 800997c:	e8bd 4038 	ldmia.w	sp!, {r3, r4, r5, lr}
 8009980:	f000 b8e0 	b.w	8009b44 <__malloc_unlock>
 8009984:	42a3      	cmp	r3, r4
 8009986:	d908      	bls.n	800999a <_free_r+0x42>
 8009988:	6820      	ldr	r0, [r4, #0]
 800998a:	1821      	adds	r1, r4, r0
 800998c:	428b      	cmp	r3, r1
 800998e:	bf01      	itttt	eq
 8009990:	6819      	ldreq	r1, [r3, #0]
 8009992:	685b      	ldreq	r3, [r3, #4]
 8009994:	1809      	addeq	r1, r1, r0
 8009996:	6021      	streq	r1, [r4, #0]
 8009998:	e7ed      	b.n	8009976 <_free_r+0x1e>
 800999a:	461a      	mov	r2, r3
 800999c:	685b      	ldr	r3, [r3, #4]
 800999e:	b10b      	cbz	r3, 80099a4 <_free_r+0x4c>
 80099a0:	42a3      	cmp	r3, r4
 80099a2:	d9fa      	bls.n	800999a <_free_r+0x42>
 80099a4:	6811      	ldr	r1, [r2, #0]
 80099a6:	1850      	adds	r0, r2, r1
 80099a8:	42a0      	cmp	r0, r4
 80099aa:	d10b      	bne.n	80099c4 <_free_r+0x6c>
 80099ac:	6820      	ldr	r0, [r4, #0]
 80099ae:	4401      	add	r1, r0
 80099b0:	1850      	adds	r0, r2, r1
 80099b2:	4283      	cmp	r3, r0
 80099b4:	6011      	str	r1, [r2, #0]
 80099b6:	d1e0      	bne.n	800997a <_free_r+0x22>
 80099b8:	6818      	ldr	r0, [r3, #0]
 80099ba:	685b      	ldr	r3, [r3, #4]
 80099bc:	4408      	add	r0, r1
 80099be:	6010      	str	r0, [r2, #0]
 80099c0:	6053      	str	r3, [r2, #4]
 80099c2:	e7da      	b.n	800997a <_free_r+0x22>
 80099c4:	d902      	bls.n	80099cc <_free_r+0x74>
 80099c6:	230c      	movs	r3, #12
 80099c8:	602b      	str	r3, [r5, #0]
 80099ca:	e7d6      	b.n	800997a <_free_r+0x22>
 80099cc:	6820      	ldr	r0, [r4, #0]
 80099ce:	1821      	adds	r1, r4, r0
 80099d0:	428b      	cmp	r3, r1
 80099d2:	bf01      	itttt	eq
 80099d4:	6819      	ldreq	r1, [r3, #0]
 80099d6:	685b      	ldreq	r3, [r3, #4]
 80099d8:	1809      	addeq	r1, r1, r0
 80099da:	6021      	streq	r1, [r4, #0]
 80099dc:	6063      	str	r3, [r4, #4]
 80099de:	6054      	str	r4, [r2, #4]
 80099e0:	e7cb      	b.n	800997a <_free_r+0x22>
 80099e2:	bd38      	pop	{r3, r4, r5, pc}
 80099e4:	20002978 	.word	0x20002978

080099e8 <malloc>:
 80099e8:	4b02      	ldr	r3, [pc, #8]	; (80099f4 <malloc+0xc>)
 80099ea:	4601      	mov	r1, r0
 80099ec:	6818      	ldr	r0, [r3, #0]
 80099ee:	f000 b823 	b.w	8009a38 <_malloc_r>
 80099f2:	bf00      	nop
 80099f4:	20000098 	.word	0x20000098

080099f8 <sbrk_aligned>:
 80099f8:	b570      	push	{r4, r5, r6, lr}
 80099fa:	4e0e      	ldr	r6, [pc, #56]	; (8009a34 <sbrk_aligned+0x3c>)
 80099fc:	460c      	mov	r4, r1
 80099fe:	6831      	ldr	r1, [r6, #0]
 8009a00:	4605      	mov	r5, r0
 8009a02:	b911      	cbnz	r1, 8009a0a <sbrk_aligned+0x12>
 8009a04:	f001 f810 	bl	800aa28 <_sbrk_r>
 8009a08:	6030      	str	r0, [r6, #0]
 8009a0a:	4621      	mov	r1, r4
 8009a0c:	4628      	mov	r0, r5
 8009a0e:	f001 f80b 	bl	800aa28 <_sbrk_r>
 8009a12:	1c43      	adds	r3, r0, #1
 8009a14:	d00a      	beq.n	8009a2c <sbrk_aligned+0x34>
 8009a16:	1cc4      	adds	r4, r0, #3
 8009a18:	f024 0403 	bic.w	r4, r4, #3
 8009a1c:	42a0      	cmp	r0, r4
 8009a1e:	d007      	beq.n	8009a30 <sbrk_aligned+0x38>
 8009a20:	1a21      	subs	r1, r4, r0
 8009a22:	4628      	mov	r0, r5
 8009a24:	f001 f800 	bl	800aa28 <_sbrk_r>
 8009a28:	3001      	adds	r0, #1
 8009a2a:	d101      	bne.n	8009a30 <sbrk_aligned+0x38>
 8009a2c:	f04f 34ff 	mov.w	r4, #4294967295
 8009a30:	4620      	mov	r0, r4
 8009a32:	bd70      	pop	{r4, r5, r6, pc}
 8009a34:	2000297c 	.word	0x2000297c

08009a38 <_malloc_r>:
 8009a38:	e92d 43f8 	stmdb	sp!, {r3, r4, r5, r6, r7, r8, r9, lr}
 8009a3c:	1ccd      	adds	r5, r1, #3
 8009a3e:	f025 0503 	bic.w	r5, r5, #3
 8009a42:	3508      	adds	r5, #8
 8009a44:	2d0c      	cmp	r5, #12
 8009a46:	bf38      	it	cc
 8009a48:	250c      	movcc	r5, #12
 8009a4a:	2d00      	cmp	r5, #0
 8009a4c:	4607      	mov	r7, r0
 8009a4e:	db01      	blt.n	8009a54 <_malloc_r+0x1c>
 8009a50:	42a9      	cmp	r1, r5
 8009a52:	d905      	bls.n	8009a60 <_malloc_r+0x28>
 8009a54:	230c      	movs	r3, #12
 8009a56:	2600      	movs	r6, #0
 8009a58:	603b      	str	r3, [r7, #0]
 8009a5a:	4630      	mov	r0, r6
 8009a5c:	e8bd 83f8 	ldmia.w	sp!, {r3, r4, r5, r6, r7, r8, r9, pc}
 8009a60:	f8df 80d0 	ldr.w	r8, [pc, #208]	; 8009b34 <_malloc_r+0xfc>
 8009a64:	f000 f868 	bl	8009b38 <__malloc_lock>
 8009a68:	f8d8 3000 	ldr.w	r3, [r8]
 8009a6c:	461c      	mov	r4, r3
 8009a6e:	bb5c      	cbnz	r4, 8009ac8 <_malloc_r+0x90>
 8009a70:	4629      	mov	r1, r5
 8009a72:	4638      	mov	r0, r7
 8009a74:	f7ff ffc0 	bl	80099f8 <sbrk_aligned>
 8009a78:	1c43      	adds	r3, r0, #1
 8009a7a:	4604      	mov	r4, r0
 8009a7c:	d155      	bne.n	8009b2a <_malloc_r+0xf2>
 8009a7e:	f8d8 4000 	ldr.w	r4, [r8]
 8009a82:	4626      	mov	r6, r4
 8009a84:	2e00      	cmp	r6, #0
 8009a86:	d145      	bne.n	8009b14 <_malloc_r+0xdc>
 8009a88:	2c00      	cmp	r4, #0
 8009a8a:	d048      	beq.n	8009b1e <_malloc_r+0xe6>
 8009a8c:	6823      	ldr	r3, [r4, #0]
 8009a8e:	4631      	mov	r1, r6
 8009a90:	4638      	mov	r0, r7
 8009a92:	eb04 0903 	add.w	r9, r4, r3
 8009a96:	f000 ffc7 	bl	800aa28 <_sbrk_r>
 8009a9a:	4581      	cmp	r9, r0
 8009a9c:	d13f      	bne.n	8009b1e <_malloc_r+0xe6>
 8009a9e:	6821      	ldr	r1, [r4, #0]
 8009aa0:	4638      	mov	r0, r7
 8009aa2:	1a6d      	subs	r5, r5, r1
 8009aa4:	4629      	mov	r1, r5
 8009aa6:	f7ff ffa7 	bl	80099f8 <sbrk_aligned>
 8009aaa:	3001      	adds	r0, #1
 8009aac:	d037      	beq.n	8009b1e <_malloc_r+0xe6>
 8009aae:	6823      	ldr	r3, [r4, #0]
 8009ab0:	442b      	add	r3, r5
 8009ab2:	6023      	str	r3, [r4, #0]
 8009ab4:	f8d8 3000 	ldr.w	r3, [r8]
 8009ab8:	2b00      	cmp	r3, #0
 8009aba:	d038      	beq.n	8009b2e <_malloc_r+0xf6>
 8009abc:	685a      	ldr	r2, [r3, #4]
 8009abe:	42a2      	cmp	r2, r4
 8009ac0:	d12b      	bne.n	8009b1a <_malloc_r+0xe2>
 8009ac2:	2200      	movs	r2, #0
 8009ac4:	605a      	str	r2, [r3, #4]
 8009ac6:	e00f      	b.n	8009ae8 <_malloc_r+0xb0>
 8009ac8:	6822      	ldr	r2, [r4, #0]
 8009aca:	1b52      	subs	r2, r2, r5
 8009acc:	d41f      	bmi.n	8009b0e <_malloc_r+0xd6>
 8009ace:	2a0b      	cmp	r2, #11
 8009ad0:	d917      	bls.n	8009b02 <_malloc_r+0xca>
 8009ad2:	1961      	adds	r1, r4, r5
 8009ad4:	42a3      	cmp	r3, r4
 8009ad6:	6025      	str	r5, [r4, #0]
 8009ad8:	bf18      	it	ne
 8009ada:	6059      	strne	r1, [r3, #4]
 8009adc:	6863      	ldr	r3, [r4, #4]
 8009ade:	bf08      	it	eq
 8009ae0:	f8c8 1000 	streq.w	r1, [r8]
 8009ae4:	5162      	str	r2, [r4, r5]
 8009ae6:	604b      	str	r3, [r1, #4]
 8009ae8:	4638      	mov	r0, r7
 8009aea:	f104 060b 	add.w	r6, r4, #11
 8009aee:	f000 f829 	bl	8009b44 <__malloc_unlock>
 8009af2:	f026 0607 	bic.w	r6, r6, #7
 8009af6:	1d23      	adds	r3, r4, #4
 8009af8:	1af2      	subs	r2, r6, r3
 8009afa:	d0ae      	beq.n	8009a5a <_malloc_r+0x22>
 8009afc:	1b9b      	subs	r3, r3, r6
 8009afe:	50a3      	str	r3, [r4, r2]
 8009b00:	e7ab      	b.n	8009a5a <_malloc_r+0x22>
 8009b02:	42a3      	cmp	r3, r4
 8009b04:	6862      	ldr	r2, [r4, #4]
 8009b06:	d1dd      	bne.n	8009ac4 <_malloc_r+0x8c>
 8009b08:	f8c8 2000 	str.w	r2, [r8]
 8009b0c:	e7ec      	b.n	8009ae8 <_malloc_r+0xb0>
 8009b0e:	4623      	mov	r3, r4
 8009b10:	6864      	ldr	r4, [r4, #4]
 8009b12:	e7ac      	b.n	8009a6e <_malloc_r+0x36>
 8009b14:	4634      	mov	r4, r6
 8009b16:	6876      	ldr	r6, [r6, #4]
 8009b18:	e7b4      	b.n	8009a84 <_malloc_r+0x4c>
 8009b1a:	4613      	mov	r3, r2
 8009b1c:	e7cc      	b.n	8009ab8 <_malloc_r+0x80>
 8009b1e:	230c      	movs	r3, #12
 8009b20:	4638      	mov	r0, r7
 8009b22:	603b      	str	r3, [r7, #0]
 8009b24:	f000 f80e 	bl	8009b44 <__malloc_unlock>
 8009b28:	e797      	b.n	8009a5a <_malloc_r+0x22>
 8009b2a:	6025      	str	r5, [r4, #0]
 8009b2c:	e7dc      	b.n	8009ae8 <_malloc_r+0xb0>
 8009b2e:	605b      	str	r3, [r3, #4]
 8009b30:	deff      	udf	#255	; 0xff
 8009b32:	bf00      	nop
 8009b34:	20002978 	.word	0x20002978

08009b38 <__malloc_lock>:
 8009b38:	4801      	ldr	r0, [pc, #4]	; (8009b40 <__malloc_lock+0x8>)
 8009b3a:	f7ff b881 	b.w	8008c40 <__retarget_lock_acquire_recursive>
 8009b3e:	bf00      	nop
 8009b40:	20002974 	.word	0x20002974

08009b44 <__malloc_unlock>:
 8009b44:	4801      	ldr	r0, [pc, #4]	; (8009b4c <__malloc_unlock+0x8>)
 8009b46:	f7ff b87c 	b.w	8008c42 <__retarget_lock_release_recursive>
 8009b4a:	bf00      	nop
 8009b4c:	20002974 	.word	0x20002974

08009b50 <_Balloc>:
 8009b50:	b570      	push	{r4, r5, r6, lr}
 8009b52:	69c6      	ldr	r6, [r0, #28]
 8009b54:	4604      	mov	r4, r0
 8009b56:	460d      	mov	r5, r1
 8009b58:	b976      	cbnz	r6, 8009b78 <_Balloc+0x28>
 8009b5a:	2010      	movs	r0, #16
 8009b5c:	f7ff ff44 	bl	80099e8 <malloc>
 8009b60:	4602      	mov	r2, r0
 8009b62:	61e0      	str	r0, [r4, #28]
 8009b64:	b920      	cbnz	r0, 8009b70 <_Balloc+0x20>
 8009b66:	216b      	movs	r1, #107	; 0x6b
 8009b68:	4b17      	ldr	r3, [pc, #92]	; (8009bc8 <_Balloc+0x78>)
 8009b6a:	4818      	ldr	r0, [pc, #96]	; (8009bcc <_Balloc+0x7c>)
 8009b6c:	f000 ff6c 	bl	800aa48 <__assert_func>
 8009b70:	e9c0 6601 	strd	r6, r6, [r0, #4]
 8009b74:	6006      	str	r6, [r0, #0]
 8009b76:	60c6      	str	r6, [r0, #12]
 8009b78:	69e6      	ldr	r6, [r4, #28]
 8009b7a:	68f3      	ldr	r3, [r6, #12]
 8009b7c:	b183      	cbz	r3, 8009ba0 <_Balloc+0x50>
 8009b7e:	69e3      	ldr	r3, [r4, #28]
 8009b80:	68db      	ldr	r3, [r3, #12]
 8009b82:	f853 0025 	ldr.w	r0, [r3, r5, lsl #2]
 8009b86:	b9b8      	cbnz	r0, 8009bb8 <_Balloc+0x68>
 8009b88:	2101      	movs	r1, #1
 8009b8a:	fa01 f605 	lsl.w	r6, r1, r5
 8009b8e:	1d72      	adds	r2, r6, #5
 8009b90:	4620      	mov	r0, r4
 8009b92:	0092      	lsls	r2, r2, #2
 8009b94:	f000 ff76 	bl	800aa84 <_calloc_r>
 8009b98:	b160      	cbz	r0, 8009bb4 <_Balloc+0x64>
 8009b9a:	e9c0 5601 	strd	r5, r6, [r0, #4]
 8009b9e:	e00e      	b.n	8009bbe <_Balloc+0x6e>
 8009ba0:	2221      	movs	r2, #33	; 0x21
 8009ba2:	2104      	movs	r1, #4
 8009ba4:	4620      	mov	r0, r4
 8009ba6:	f000 ff6d 	bl	800aa84 <_calloc_r>
 8009baa:	69e3      	ldr	r3, [r4, #28]
 8009bac:	60f0      	str	r0, [r6, #12]
 8009bae:	68db      	ldr	r3, [r3, #12]
 8009bb0:	2b00      	cmp	r3, #0
 8009bb2:	d1e4      	bne.n	8009b7e <_Balloc+0x2e>
 8009bb4:	2000      	movs	r0, #0
 8009bb6:	bd70      	pop	{r4, r5, r6, pc}
 8009bb8:	6802      	ldr	r2, [r0, #0]
 8009bba:	f843 2025 	str.w	r2, [r3, r5, lsl #2]
 8009bbe:	2300      	movs	r3, #0
 8009bc0:	e9c0 3303 	strd	r3, r3, [r0, #12]
 8009bc4:	e7f7      	b.n	8009bb6 <_Balloc+0x66>
 8009bc6:	bf00      	nop
 8009bc8:	0800da6d 	.word	0x0800da6d
 8009bcc:	0800daed 	.word	0x0800daed

08009bd0 <_Bfree>:
 8009bd0:	b570      	push	{r4, r5, r6, lr}
 8009bd2:	69c6      	ldr	r6, [r0, #28]
 8009bd4:	4605      	mov	r5, r0
 8009bd6:	460c      	mov	r4, r1
 8009bd8:	b976      	cbnz	r6, 8009bf8 <_Bfree+0x28>
 8009bda:	2010      	movs	r0, #16
 8009bdc:	f7ff ff04 	bl	80099e8 <malloc>
 8009be0:	4602      	mov	r2, r0
 8009be2:	61e8      	str	r0, [r5, #28]
 8009be4:	b920      	cbnz	r0, 8009bf0 <_Bfree+0x20>
 8009be6:	218f      	movs	r1, #143	; 0x8f
 8009be8:	4b08      	ldr	r3, [pc, #32]	; (8009c0c <_Bfree+0x3c>)
 8009bea:	4809      	ldr	r0, [pc, #36]	; (8009c10 <_Bfree+0x40>)
 8009bec:	f000 ff2c 	bl	800aa48 <__assert_func>
 8009bf0:	e9c0 6601 	strd	r6, r6, [r0, #4]
 8009bf4:	6006      	str	r6, [r0, #0]
 8009bf6:	60c6      	str	r6, [r0, #12]
 8009bf8:	b13c      	cbz	r4, 8009c0a <_Bfree+0x3a>
 8009bfa:	69eb      	ldr	r3, [r5, #28]
 8009bfc:	6862      	ldr	r2, [r4, #4]
 8009bfe:	68db      	ldr	r3, [r3, #12]
 8009c00:	f853 1022 	ldr.w	r1, [r3, r2, lsl #2]
 8009c04:	6021      	str	r1, [r4, #0]
 8009c06:	f843 4022 	str.w	r4, [r3, r2, lsl #2]
 8009c0a:	bd70      	pop	{r4, r5, r6, pc}
 8009c0c:	0800da6d 	.word	0x0800da6d
 8009c10:	0800daed 	.word	0x0800daed

08009c14 <__multadd>:
 8009c14:	e92d 41f0 	stmdb	sp!, {r4, r5, r6, r7, r8, lr}
 8009c18:	4607      	mov	r7, r0
 8009c1a:	460c      	mov	r4, r1
 8009c1c:	461e      	mov	r6, r3
 8009c1e:	2000      	movs	r0, #0
 8009c20:	690d      	ldr	r5, [r1, #16]
 8009c22:	f101 0c14 	add.w	ip, r1, #20
 8009c26:	f8dc 3000 	ldr.w	r3, [ip]
 8009c2a:	3001      	adds	r0, #1
 8009c2c:	b299      	uxth	r1, r3
 8009c2e:	fb02 6101 	mla	r1, r2, r1, r6
 8009c32:	0c1e      	lsrs	r6, r3, #16
 8009c34:	0c0b      	lsrs	r3, r1, #16
 8009c36:	fb02 3306 	mla	r3, r2, r6, r3
 8009c3a:	b289      	uxth	r1, r1
 8009c3c:	eb01 4103 	add.w	r1, r1, r3, lsl #16
 8009c40:	4285      	cmp	r5, r0
 8009c42:	ea4f 4613 	mov.w	r6, r3, lsr #16
 8009c46:	f84c 1b04 	str.w	r1, [ip], #4
 8009c4a:	dcec      	bgt.n	8009c26 <__multadd+0x12>
 8009c4c:	b30e      	cbz	r6, 8009c92 <__multadd+0x7e>
 8009c4e:	68a3      	ldr	r3, [r4, #8]
 8009c50:	42ab      	cmp	r3, r5
 8009c52:	dc19      	bgt.n	8009c88 <__multadd+0x74>
 8009c54:	6861      	ldr	r1, [r4, #4]
 8009c56:	4638      	mov	r0, r7
 8009c58:	3101      	adds	r1, #1
 8009c5a:	f7ff ff79 	bl	8009b50 <_Balloc>
 8009c5e:	4680      	mov	r8, r0
 8009c60:	b928      	cbnz	r0, 8009c6e <__multadd+0x5a>
 8009c62:	4602      	mov	r2, r0
 8009c64:	21ba      	movs	r1, #186	; 0xba
 8009c66:	4b0c      	ldr	r3, [pc, #48]	; (8009c98 <__multadd+0x84>)
 8009c68:	480c      	ldr	r0, [pc, #48]	; (8009c9c <__multadd+0x88>)
 8009c6a:	f000 feed 	bl	800aa48 <__assert_func>
 8009c6e:	6922      	ldr	r2, [r4, #16]
 8009c70:	f104 010c 	add.w	r1, r4, #12
 8009c74:	3202      	adds	r2, #2
 8009c76:	0092      	lsls	r2, r2, #2
 8009c78:	300c      	adds	r0, #12
 8009c7a:	f7fe fff1 	bl	8008c60 <memcpy>
 8009c7e:	4621      	mov	r1, r4
 8009c80:	4638      	mov	r0, r7
 8009c82:	f7ff ffa5 	bl	8009bd0 <_Bfree>
 8009c86:	4644      	mov	r4, r8
 8009c88:	eb04 0385 	add.w	r3, r4, r5, lsl #2
 8009c8c:	3501      	adds	r5, #1
 8009c8e:	615e      	str	r6, [r3, #20]
 8009c90:	6125      	str	r5, [r4, #16]
 8009c92:	4620      	mov	r0, r4
 8009c94:	e8bd 81f0 	ldmia.w	sp!, {r4, r5, r6, r7, r8, pc}
 8009c98:	0800dadc 	.word	0x0800dadc
 8009c9c:	0800daed 	.word	0x0800daed

08009ca0 <__hi0bits>:
 8009ca0:	0c02      	lsrs	r2, r0, #16
 8009ca2:	0412      	lsls	r2, r2, #16
 8009ca4:	4603      	mov	r3, r0
 8009ca6:	b9ca      	cbnz	r2, 8009cdc <__hi0bits+0x3c>
 8009ca8:	0403      	lsls	r3, r0, #16
 8009caa:	2010      	movs	r0, #16
 8009cac:	f013 4f7f 	tst.w	r3, #4278190080	; 0xff000000
 8009cb0:	bf04      	itt	eq
 8009cb2:	021b      	lsleq	r3, r3, #8
 8009cb4:	3008      	addeq	r0, #8
 8009cb6:	f013 4f70 	tst.w	r3, #4026531840	; 0xf0000000
 8009cba:	bf04      	itt	eq
 8009cbc:	011b      	lsleq	r3, r3, #4
 8009cbe:	3004      	addeq	r0, #4
 8009cc0:	f013 4f40 	tst.w	r3, #3221225472	; 0xc0000000
 8009cc4:	bf04      	itt	eq
 8009cc6:	009b      	lsleq	r3, r3, #2
 8009cc8:	3002      	addeq	r0, #2
 8009cca:	2b00      	cmp	r3, #0
 8009ccc:	db05      	blt.n	8009cda <__hi0bits+0x3a>
 8009cce:	f013 4f80 	tst.w	r3, #1073741824	; 0x40000000
 8009cd2:	f100 0001 	add.w	r0, r0, #1
 8009cd6:	bf08      	it	eq
 8009cd8:	2020      	moveq	r0, #32
 8009cda:	4770      	bx	lr
 8009cdc:	2000      	movs	r0, #0
 8009cde:	e7e5      	b.n	8009cac <__hi0bits+0xc>

08009ce0 <__lo0bits>:
 8009ce0:	6803      	ldr	r3, [r0, #0]
 8009ce2:	4602      	mov	r2, r0
 8009ce4:	f013 0007 	ands.w	r0, r3, #7
 8009ce8:	d00b      	beq.n	8009d02 <__lo0bits+0x22>
 8009cea:	07d9      	lsls	r1, r3, #31
 8009cec:	d421      	bmi.n	8009d32 <__lo0bits+0x52>
 8009cee:	0798      	lsls	r0, r3, #30
 8009cf0:	bf49      	itett	mi
 8009cf2:	085b      	lsrmi	r3, r3, #1
 8009cf4:	089b      	lsrpl	r3, r3, #2
 8009cf6:	2001      	movmi	r0, #1
 8009cf8:	6013      	strmi	r3, [r2, #0]
 8009cfa:	bf5c      	itt	pl
 8009cfc:	2002      	movpl	r0, #2
 8009cfe:	6013      	strpl	r3, [r2, #0]
 8009d00:	4770      	bx	lr
 8009d02:	b299      	uxth	r1, r3
 8009d04:	b909      	cbnz	r1, 8009d0a <__lo0bits+0x2a>
 8009d06:	2010      	movs	r0, #16
 8009d08:	0c1b      	lsrs	r3, r3, #16
 8009d0a:	b2d9      	uxtb	r1, r3
 8009d0c:	b909      	cbnz	r1, 8009d12 <__lo0bits+0x32>
 8009d0e:	3008      	adds	r0, #8
 8009d10:	0a1b      	lsrs	r3, r3, #8
 8009d12:	0719      	lsls	r1, r3, #28
 8009d14:	bf04      	itt	eq
 8009d16:	091b      	lsreq	r3, r3, #4
 8009d18:	3004      	addeq	r0, #4
 8009d1a:	0799      	lsls	r1, r3, #30
 8009d1c:	bf04      	itt	eq
 8009d1e:	089b      	lsreq	r3, r3, #2
 8009d20:	3002      	addeq	r0, #2
 8009d22:	07d9      	lsls	r1, r3, #31
 8009d24:	d403      	bmi.n	8009d2e <__lo0bits+0x4e>
 8009d26:	085b      	lsrs	r3, r3, #1
 8009d28:	f100 0001 	add.w	r0, r0, #1
 8009d2c:	d003      	beq.n	8009d36 <__lo0bits+0x56>
 8009d2e:	6013      	str	r3, [r2, #0]
 8009d30:	4770      	bx	lr
 8009d32:	2000      	movs	r0, #0
 8009d34:	4770      	bx	lr
 8009d36:	2020      	movs	r0, #32
 8009d38:	4770      	bx	lr
	...

08009d3c <__i2b>:
 8009d3c:	b510      	push	{r4, lr}
 8009d3e:	460c      	mov	r4, r1
 8009d40:	2101      	movs	r1, #1
 8009d42:	f7ff ff05 	bl	8009b50 <_Balloc>
 8009d46:	4602      	mov	r2, r0
 8009d48:	b928      	cbnz	r0, 8009d56 <__i2b+0x1a>
 8009d4a:	f240 1145 	movw	r1, #325	; 0x145
 8009d4e:	4b04      	ldr	r3, [pc, #16]	; (8009d60 <__i2b+0x24>)
 8009d50:	4804      	ldr	r0, [pc, #16]	; (8009d64 <__i2b+0x28>)
 8009d52:	f000 fe79 	bl	800aa48 <__assert_func>
 8009d56:	2301      	movs	r3, #1
 8009d58:	6144      	str	r4, [r0, #20]
 8009d5a:	6103      	str	r3, [r0, #16]
 8009d5c:	bd10      	pop	{r4, pc}
 8009d5e:	bf00      	nop
 8009d60:	0800dadc 	.word	0x0800dadc
 8009d64:	0800daed 	.word	0x0800daed

08009d68 <__multiply>:
 8009d68:	e92d 4ff0 	stmdb	sp!, {r4, r5, r6, r7, r8, r9, sl, fp, lr}
 8009d6c:	4691      	mov	r9, r2
 8009d6e:	690a      	ldr	r2, [r1, #16]
 8009d70:	f8d9 3010 	ldr.w	r3, [r9, #16]
 8009d74:	460c      	mov	r4, r1
 8009d76:	429a      	cmp	r2, r3
 8009d78:	bfbe      	ittt	lt
 8009d7a:	460b      	movlt	r3, r1
 8009d7c:	464c      	movlt	r4, r9
 8009d7e:	4699      	movlt	r9, r3
 8009d80:	6927      	ldr	r7, [r4, #16]
 8009d82:	f8d9 a010 	ldr.w	sl, [r9, #16]
 8009d86:	68a3      	ldr	r3, [r4, #8]
 8009d88:	6861      	ldr	r1, [r4, #4]
 8009d8a:	eb07 060a 	add.w	r6, r7, sl
 8009d8e:	42b3      	cmp	r3, r6
 8009d90:	b085      	sub	sp, #20
 8009d92:	bfb8      	it	lt
 8009d94:	3101      	addlt	r1, #1
 8009d96:	f7ff fedb 	bl	8009b50 <_Balloc>
 8009d9a:	b930      	cbnz	r0, 8009daa <__multiply+0x42>
 8009d9c:	4602      	mov	r2, r0
 8009d9e:	f44f 71b1 	mov.w	r1, #354	; 0x162
 8009da2:	4b43      	ldr	r3, [pc, #268]	; (8009eb0 <__multiply+0x148>)
 8009da4:	4843      	ldr	r0, [pc, #268]	; (8009eb4 <__multiply+0x14c>)
 8009da6:	f000 fe4f 	bl	800aa48 <__assert_func>
 8009daa:	f100 0514 	add.w	r5, r0, #20
 8009dae:	462b      	mov	r3, r5
 8009db0:	2200      	movs	r2, #0
 8009db2:	eb05 0886 	add.w	r8, r5, r6, lsl #2
 8009db6:	4543      	cmp	r3, r8
 8009db8:	d321      	bcc.n	8009dfe <__multiply+0x96>
 8009dba:	f104 0314 	add.w	r3, r4, #20
 8009dbe:	eb03 0787 	add.w	r7, r3, r7, lsl #2
 8009dc2:	f109 0314 	add.w	r3, r9, #20
 8009dc6:	eb03 028a 	add.w	r2, r3, sl, lsl #2
 8009dca:	9202      	str	r2, [sp, #8]
 8009dcc:	1b3a      	subs	r2, r7, r4
 8009dce:	3a15      	subs	r2, #21
 8009dd0:	f022 0203 	bic.w	r2, r2, #3
 8009dd4:	3204      	adds	r2, #4
 8009dd6:	f104 0115 	add.w	r1, r4, #21
 8009dda:	428f      	cmp	r7, r1
 8009ddc:	bf38      	it	cc
 8009dde:	2204      	movcc	r2, #4
 8009de0:	9201      	str	r2, [sp, #4]
 8009de2:	9a02      	ldr	r2, [sp, #8]
 8009de4:	9303      	str	r3, [sp, #12]
 8009de6:	429a      	cmp	r2, r3
 8009de8:	d80c      	bhi.n	8009e04 <__multiply+0x9c>
 8009dea:	2e00      	cmp	r6, #0
 8009dec:	dd03      	ble.n	8009df6 <__multiply+0x8e>
 8009dee:	f858 3d04 	ldr.w	r3, [r8, #-4]!
 8009df2:	2b00      	cmp	r3, #0
 8009df4:	d05a      	beq.n	8009eac <__multiply+0x144>
 8009df6:	6106      	str	r6, [r0, #16]
 8009df8:	b005      	add	sp, #20
 8009dfa:	e8bd 8ff0 	ldmia.w	sp!, {r4, r5, r6, r7, r8, r9, sl, fp, pc}
 8009dfe:	f843 2b04 	str.w	r2, [r3], #4
 8009e02:	e7d8      	b.n	8009db6 <__multiply+0x4e>
 8009e04:	f8b3 a000 	ldrh.w	sl, [r3]
 8009e08:	f1ba 0f00 	cmp.w	sl, #0
 8009e0c:	d023      	beq.n	8009e56 <__multiply+0xee>
 8009e0e:	46a9      	mov	r9, r5
 8009e10:	f04f 0c00 	mov.w	ip, #0
 8009e14:	f104 0e14 	add.w	lr, r4, #20
 8009e18:	f85e 2b04 	ldr.w	r2, [lr], #4
 8009e1c:	f8d9 1000 	ldr.w	r1, [r9]
 8009e20:	fa1f fb82 	uxth.w	fp, r2
 8009e24:	b289      	uxth	r1, r1
 8009e26:	fb0a 110b 	mla	r1, sl, fp, r1
 8009e2a:	4461      	add	r1, ip
 8009e2c:	f8d9 c000 	ldr.w	ip, [r9]
 8009e30:	0c12      	lsrs	r2, r2, #16
 8009e32:	ea4f 4c1c 	mov.w	ip, ip, lsr #16
 8009e36:	fb0a c202 	mla	r2, sl, r2, ip
 8009e3a:	eb02 4211 	add.w	r2, r2, r1, lsr #16
 8009e3e:	b289      	uxth	r1, r1
 8009e40:	ea41 4102 	orr.w	r1, r1, r2, lsl #16
 8009e44:	4577      	cmp	r7, lr
 8009e46:	ea4f 4c12 	mov.w	ip, r2, lsr #16
 8009e4a:	f849 1b04 	str.w	r1, [r9], #4
 8009e4e:	d8e3      	bhi.n	8009e18 <__multiply+0xb0>
 8009e50:	9a01      	ldr	r2, [sp, #4]
 8009e52:	f845 c002 	str.w	ip, [r5, r2]
 8009e56:	9a03      	ldr	r2, [sp, #12]
 8009e58:	3304      	adds	r3, #4
 8009e5a:	f8b2 9002 	ldrh.w	r9, [r2, #2]
 8009e5e:	f1b9 0f00 	cmp.w	r9, #0
 8009e62:	d021      	beq.n	8009ea8 <__multiply+0x140>
 8009e64:	46ae      	mov	lr, r5
 8009e66:	f04f 0a00 	mov.w	sl, #0
 8009e6a:	6829      	ldr	r1, [r5, #0]
 8009e6c:	f104 0c14 	add.w	ip, r4, #20
 8009e70:	f8bc b000 	ldrh.w	fp, [ip]
 8009e74:	f8be 2002 	ldrh.w	r2, [lr, #2]
 8009e78:	b289      	uxth	r1, r1
 8009e7a:	fb09 220b 	mla	r2, r9, fp, r2
 8009e7e:	4452      	add	r2, sl
 8009e80:	ea41 4102 	orr.w	r1, r1, r2, lsl #16
 8009e84:	f84e 1b04 	str.w	r1, [lr], #4
 8009e88:	f85c 1b04 	ldr.w	r1, [ip], #4
 8009e8c:	ea4f 4a11 	mov.w	sl, r1, lsr #16
 8009e90:	f8be 1000 	ldrh.w	r1, [lr]
 8009e94:	4567      	cmp	r7, ip
 8009e96:	fb09 110a 	mla	r1, r9, sl, r1
 8009e9a:	eb01 4112 	add.w	r1, r1, r2, lsr #16
 8009e9e:	ea4f 4a11 	mov.w	sl, r1, lsr #16
 8009ea2:	d8e5      	bhi.n	8009e70 <__multiply+0x108>
 8009ea4:	9a01      	ldr	r2, [sp, #4]
 8009ea6:	50a9      	str	r1, [r5, r2]
 8009ea8:	3504      	adds	r5, #4
 8009eaa:	e79a      	b.n	8009de2 <__multiply+0x7a>
 8009eac:	3e01      	subs	r6, #1
 8009eae:	e79c      	b.n	8009dea <__multiply+0x82>
 8009eb0:	0800dadc 	.word	0x0800dadc
 8009eb4:	0800daed 	.word	0x0800daed

08009eb8 <__pow5mult>:
 8009eb8:	e92d 43f8 	stmdb	sp!, {r3, r4, r5, r6, r7, r8, r9, lr}
 8009ebc:	4615      	mov	r5, r2
 8009ebe:	f012 0203 	ands.w	r2, r2, #3
 8009ec2:	4606      	mov	r6, r0
 8009ec4:	460f      	mov	r7, r1
 8009ec6:	d007      	beq.n	8009ed8 <__pow5mult+0x20>
 8009ec8:	4c25      	ldr	r4, [pc, #148]	; (8009f60 <__pow5mult+0xa8>)
 8009eca:	3a01      	subs	r2, #1
 8009ecc:	2300      	movs	r3, #0
 8009ece:	f854 2022 	ldr.w	r2, [r4, r2, lsl #2]
 8009ed2:	f7ff fe9f 	bl	8009c14 <__multadd>
 8009ed6:	4607      	mov	r7, r0
 8009ed8:	10ad      	asrs	r5, r5, #2
 8009eda:	d03d      	beq.n	8009f58 <__pow5mult+0xa0>
 8009edc:	69f4      	ldr	r4, [r6, #28]
 8009ede:	b97c      	cbnz	r4, 8009f00 <__pow5mult+0x48>
 8009ee0:	2010      	movs	r0, #16
 8009ee2:	f7ff fd81 	bl	80099e8 <malloc>
 8009ee6:	4602      	mov	r2, r0
 8009ee8:	61f0      	str	r0, [r6, #28]
 8009eea:	b928      	cbnz	r0, 8009ef8 <__pow5mult+0x40>
 8009eec:	f240 11b3 	movw	r1, #435	; 0x1b3
 8009ef0:	4b1c      	ldr	r3, [pc, #112]	; (8009f64 <__pow5mult+0xac>)
 8009ef2:	481d      	ldr	r0, [pc, #116]	; (8009f68 <__pow5mult+0xb0>)
 8009ef4:	f000 fda8 	bl	800aa48 <__assert_func>
 8009ef8:	e9c0 4401 	strd	r4, r4, [r0, #4]
 8009efc:	6004      	str	r4, [r0, #0]
 8009efe:	60c4      	str	r4, [r0, #12]
 8009f00:	f8d6 801c 	ldr.w	r8, [r6, #28]
 8009f04:	f8d8 4008 	ldr.w	r4, [r8, #8]
 8009f08:	b94c      	cbnz	r4, 8009f1e <__pow5mult+0x66>
 8009f0a:	f240 2171 	movw	r1, #625	; 0x271
 8009f0e:	4630      	mov	r0, r6
 8009f10:	f7ff ff14 	bl	8009d3c <__i2b>
 8009f14:	2300      	movs	r3, #0
 8009f16:	4604      	mov	r4, r0
 8009f18:	f8c8 0008 	str.w	r0, [r8, #8]
 8009f1c:	6003      	str	r3, [r0, #0]
 8009f1e:	f04f 0900 	mov.w	r9, #0
 8009f22:	07eb      	lsls	r3, r5, #31
 8009f24:	d50a      	bpl.n	8009f3c <__pow5mult+0x84>
 8009f26:	4639      	mov	r1, r7
 8009f28:	4622      	mov	r2, r4
 8009f2a:	4630      	mov	r0, r6
 8009f2c:	f7ff ff1c 	bl	8009d68 <__multiply>
 8009f30:	4680      	mov	r8, r0
 8009f32:	4639      	mov	r1, r7
 8009f34:	4630      	mov	r0, r6
 8009f36:	f7ff fe4b 	bl	8009bd0 <_Bfree>
 8009f3a:	4647      	mov	r7, r8
 8009f3c:	106d      	asrs	r5, r5, #1
 8009f3e:	d00b      	beq.n	8009f58 <__pow5mult+0xa0>
 8009f40:	6820      	ldr	r0, [r4, #0]
 8009f42:	b938      	cbnz	r0, 8009f54 <__pow5mult+0x9c>
 8009f44:	4622      	mov	r2, r4
 8009f46:	4621      	mov	r1, r4
 8009f48:	4630      	mov	r0, r6
 8009f4a:	f7ff ff0d 	bl	8009d68 <__multiply>
 8009f4e:	6020      	str	r0, [r4, #0]
 8009f50:	f8c0 9000 	str.w	r9, [r0]
 8009f54:	4604      	mov	r4, r0
 8009f56:	e7e4      	b.n	8009f22 <__pow5mult+0x6a>
 8009f58:	4638      	mov	r0, r7
 8009f5a:	e8bd 83f8 	ldmia.w	sp!, {r3, r4, r5, r6, r7, r8, r9, pc}
 8009f5e:	bf00      	nop
 8009f60:	0800dc38 	.word	0x0800dc38
 8009f64:	0800da6d 	.word	0x0800da6d
 8009f68:	0800daed 	.word	0x0800daed

08009f6c <__lshift>:
 8009f6c:	e92d 47f0 	stmdb	sp!, {r4, r5, r6, r7, r8, r9, sl, lr}
 8009f70:	460c      	mov	r4, r1
 8009f72:	4607      	mov	r7, r0
 8009f74:	4691      	mov	r9, r2
 8009f76:	6923      	ldr	r3, [r4, #16]
 8009f78:	6849      	ldr	r1, [r1, #4]
 8009f7a:	eb03 1862 	add.w	r8, r3, r2, asr #5
 8009f7e:	68a3      	ldr	r3, [r4, #8]
 8009f80:	ea4f 1a62 	mov.w	sl, r2, asr #5
 8009f84:	f108 0601 	add.w	r6, r8, #1
 8009f88:	42b3      	cmp	r3, r6
 8009f8a:	db0b      	blt.n	8009fa4 <__lshift+0x38>
 8009f8c:	4638      	mov	r0, r7
 8009f8e:	f7ff fddf 	bl	8009b50 <_Balloc>
 8009f92:	4605      	mov	r5, r0
 8009f94:	b948      	cbnz	r0, 8009faa <__lshift+0x3e>
 8009f96:	4602      	mov	r2, r0
 8009f98:	f44f 71ef 	mov.w	r1, #478	; 0x1de
 8009f9c:	4b27      	ldr	r3, [pc, #156]	; (800a03c <__lshift+0xd0>)
 8009f9e:	4828      	ldr	r0, [pc, #160]	; (800a040 <__lshift+0xd4>)
 8009fa0:	f000 fd52 	bl	800aa48 <__assert_func>
 8009fa4:	3101      	adds	r1, #1
 8009fa6:	005b      	lsls	r3, r3, #1
 8009fa8:	e7ee      	b.n	8009f88 <__lshift+0x1c>
 8009faa:	2300      	movs	r3, #0
 8009fac:	f100 0114 	add.w	r1, r0, #20
 8009fb0:	f100 0210 	add.w	r2, r0, #16
 8009fb4:	4618      	mov	r0, r3
 8009fb6:	4553      	cmp	r3, sl
 8009fb8:	db33      	blt.n	800a022 <__lshift+0xb6>
 8009fba:	6920      	ldr	r0, [r4, #16]
 8009fbc:	ea2a 7aea 	bic.w	sl, sl, sl, asr #31
 8009fc0:	f104 0314 	add.w	r3, r4, #20
 8009fc4:	f019 091f 	ands.w	r9, r9, #31
 8009fc8:	eb01 018a 	add.w	r1, r1, sl, lsl #2
 8009fcc:	eb03 0c80 	add.w	ip, r3, r0, lsl #2
 8009fd0:	d02b      	beq.n	800a02a <__lshift+0xbe>
 8009fd2:	468a      	mov	sl, r1
 8009fd4:	2200      	movs	r2, #0
 8009fd6:	f1c9 0e20 	rsb	lr, r9, #32
 8009fda:	6818      	ldr	r0, [r3, #0]
 8009fdc:	fa00 f009 	lsl.w	r0, r0, r9
 8009fe0:	4310      	orrs	r0, r2
 8009fe2:	f84a 0b04 	str.w	r0, [sl], #4
 8009fe6:	f853 2b04 	ldr.w	r2, [r3], #4
 8009fea:	459c      	cmp	ip, r3
 8009fec:	fa22 f20e 	lsr.w	r2, r2, lr
 8009ff0:	d8f3      	bhi.n	8009fda <__lshift+0x6e>
 8009ff2:	ebac 0304 	sub.w	r3, ip, r4
 8009ff6:	3b15      	subs	r3, #21
 8009ff8:	f023 0303 	bic.w	r3, r3, #3
 8009ffc:	3304      	adds	r3, #4
 8009ffe:	f104 0015 	add.w	r0, r4, #21
 800a002:	4584      	cmp	ip, r0
 800a004:	bf38      	it	cc
 800a006:	2304      	movcc	r3, #4
 800a008:	50ca      	str	r2, [r1, r3]
 800a00a:	b10a      	cbz	r2, 800a010 <__lshift+0xa4>
 800a00c:	f108 0602 	add.w	r6, r8, #2
 800a010:	3e01      	subs	r6, #1
 800a012:	4638      	mov	r0, r7
 800a014:	4621      	mov	r1, r4
 800a016:	612e      	str	r6, [r5, #16]
 800a018:	f7ff fdda 	bl	8009bd0 <_Bfree>
 800a01c:	4628      	mov	r0, r5
 800a01e:	e8bd 87f0 	ldmia.w	sp!, {r4, r5, r6, r7, r8, r9, sl, pc}
 800a022:	f842 0f04 	str.w	r0, [r2, #4]!
 800a026:	3301      	adds	r3, #1
 800a028:	e7c5      	b.n	8009fb6 <__lshift+0x4a>
 800a02a:	3904      	subs	r1, #4
 800a02c:	f853 2b04 	ldr.w	r2, [r3], #4
 800a030:	459c      	cmp	ip, r3
 800a032:	f841 2f04 	str.w	r2, [r1, #4]!
 800a036:	d8f9      	bhi.n	800a02c <__lshift+0xc0>
 800a038:	e7ea      	b.n	800a010 <__lshift+0xa4>
 800a03a:	bf00      	nop
 800a03c:	0800dadc 	.word	0x0800dadc
 800a040:	0800daed 	.word	0x0800daed

0800a044 <__mcmp>:
 800a044:	4603      	mov	r3, r0
 800a046:	690a      	ldr	r2, [r1, #16]
 800a048:	6900      	ldr	r0, [r0, #16]
 800a04a:	b530      	push	{r4, r5, lr}
 800a04c:	1a80      	subs	r0, r0, r2
 800a04e:	d10d      	bne.n	800a06c <__mcmp+0x28>
 800a050:	3314      	adds	r3, #20
 800a052:	3114      	adds	r1, #20
 800a054:	eb03 0482 	add.w	r4, r3, r2, lsl #2
 800a058:	eb01 0182 	add.w	r1, r1, r2, lsl #2
 800a05c:	f854 5d04 	ldr.w	r5, [r4, #-4]!
 800a060:	f851 2d04 	ldr.w	r2, [r1, #-4]!
 800a064:	4295      	cmp	r5, r2
 800a066:	d002      	beq.n	800a06e <__mcmp+0x2a>
 800a068:	d304      	bcc.n	800a074 <__mcmp+0x30>
 800a06a:	2001      	movs	r0, #1
 800a06c:	bd30      	pop	{r4, r5, pc}
 800a06e:	42a3      	cmp	r3, r4
 800a070:	d3f4      	bcc.n	800a05c <__mcmp+0x18>
 800a072:	e7fb      	b.n	800a06c <__mcmp+0x28>
 800a074:	f04f 30ff 	mov.w	r0, #4294967295
 800a078:	e7f8      	b.n	800a06c <__mcmp+0x28>
	...

0800a07c <__mdiff>:
 800a07c:	e92d 4ff8 	stmdb	sp!, {r3, r4, r5, r6, r7, r8, r9, sl, fp, lr}
 800a080:	460d      	mov	r5, r1
 800a082:	4607      	mov	r7, r0
 800a084:	4611      	mov	r1, r2
 800a086:	4628      	mov	r0, r5
 800a088:	4614      	mov	r4, r2
 800a08a:	f7ff ffdb 	bl	800a044 <__mcmp>
 800a08e:	1e06      	subs	r6, r0, #0
 800a090:	d111      	bne.n	800a0b6 <__mdiff+0x3a>
 800a092:	4631      	mov	r1, r6
 800a094:	4638      	mov	r0, r7
 800a096:	f7ff fd5b 	bl	8009b50 <_Balloc>
 800a09a:	4602      	mov	r2, r0
 800a09c:	b928      	cbnz	r0, 800a0aa <__mdiff+0x2e>
 800a09e:	f240 2137 	movw	r1, #567	; 0x237
 800a0a2:	4b3a      	ldr	r3, [pc, #232]	; (800a18c <__mdiff+0x110>)
 800a0a4:	483a      	ldr	r0, [pc, #232]	; (800a190 <__mdiff+0x114>)
 800a0a6:	f000 fccf 	bl	800aa48 <__assert_func>
 800a0aa:	2301      	movs	r3, #1
 800a0ac:	e9c0 3604 	strd	r3, r6, [r0, #16]
 800a0b0:	4610      	mov	r0, r2
 800a0b2:	e8bd 8ff8 	ldmia.w	sp!, {r3, r4, r5, r6, r7, r8, r9, sl, fp, pc}
 800a0b6:	bfa4      	itt	ge
 800a0b8:	4623      	movge	r3, r4
 800a0ba:	462c      	movge	r4, r5
 800a0bc:	4638      	mov	r0, r7
 800a0be:	6861      	ldr	r1, [r4, #4]
 800a0c0:	bfa6      	itte	ge
 800a0c2:	461d      	movge	r5, r3
 800a0c4:	2600      	movge	r6, #0
 800a0c6:	2601      	movlt	r6, #1
 800a0c8:	f7ff fd42 	bl	8009b50 <_Balloc>
 800a0cc:	4602      	mov	r2, r0
 800a0ce:	b918      	cbnz	r0, 800a0d8 <__mdiff+0x5c>
 800a0d0:	f240 2145 	movw	r1, #581	; 0x245
 800a0d4:	4b2d      	ldr	r3, [pc, #180]	; (800a18c <__mdiff+0x110>)
 800a0d6:	e7e5      	b.n	800a0a4 <__mdiff+0x28>
 800a0d8:	f102 0814 	add.w	r8, r2, #20
 800a0dc:	46c2      	mov	sl, r8
 800a0de:	f04f 0c00 	mov.w	ip, #0
 800a0e2:	6927      	ldr	r7, [r4, #16]
 800a0e4:	60c6      	str	r6, [r0, #12]
 800a0e6:	692e      	ldr	r6, [r5, #16]
 800a0e8:	f104 0014 	add.w	r0, r4, #20
 800a0ec:	f105 0914 	add.w	r9, r5, #20
 800a0f0:	eb00 0e87 	add.w	lr, r0, r7, lsl #2
 800a0f4:	eb09 0686 	add.w	r6, r9, r6, lsl #2
 800a0f8:	3410      	adds	r4, #16
 800a0fa:	f854 bf04 	ldr.w	fp, [r4, #4]!
 800a0fe:	f859 3b04 	ldr.w	r3, [r9], #4
 800a102:	fa1f f18b 	uxth.w	r1, fp
 800a106:	4461      	add	r1, ip
 800a108:	fa1f fc83 	uxth.w	ip, r3
 800a10c:	0c1b      	lsrs	r3, r3, #16
 800a10e:	eba1 010c 	sub.w	r1, r1, ip
 800a112:	ebc3 431b 	rsb	r3, r3, fp, lsr #16
 800a116:	eb03 4321 	add.w	r3, r3, r1, asr #16
 800a11a:	b289      	uxth	r1, r1
 800a11c:	ea41 4103 	orr.w	r1, r1, r3, lsl #16
 800a120:	454e      	cmp	r6, r9
 800a122:	ea4f 4c23 	mov.w	ip, r3, asr #16
 800a126:	f84a 1b04 	str.w	r1, [sl], #4
 800a12a:	d8e6      	bhi.n	800a0fa <__mdiff+0x7e>
 800a12c:	1b73      	subs	r3, r6, r5
 800a12e:	3b15      	subs	r3, #21
 800a130:	f023 0303 	bic.w	r3, r3, #3
 800a134:	3515      	adds	r5, #21
 800a136:	3304      	adds	r3, #4
 800a138:	42ae      	cmp	r6, r5
 800a13a:	bf38      	it	cc
 800a13c:	2304      	movcc	r3, #4
 800a13e:	4418      	add	r0, r3
 800a140:	4443      	add	r3, r8
 800a142:	461e      	mov	r6, r3
 800a144:	4605      	mov	r5, r0
 800a146:	4575      	cmp	r5, lr
 800a148:	d30e      	bcc.n	800a168 <__mdiff+0xec>
 800a14a:	f10e 0103 	add.w	r1, lr, #3
 800a14e:	1a09      	subs	r1, r1, r0
 800a150:	f021 0103 	bic.w	r1, r1, #3
 800a154:	3803      	subs	r0, #3
 800a156:	4586      	cmp	lr, r0
 800a158:	bf38      	it	cc
 800a15a:	2100      	movcc	r1, #0
 800a15c:	440b      	add	r3, r1
 800a15e:	f853 1d04 	ldr.w	r1, [r3, #-4]!
 800a162:	b189      	cbz	r1, 800a188 <__mdiff+0x10c>
 800a164:	6117      	str	r7, [r2, #16]
 800a166:	e7a3      	b.n	800a0b0 <__mdiff+0x34>
 800a168:	f855 8b04 	ldr.w	r8, [r5], #4
 800a16c:	fa1f f188 	uxth.w	r1, r8
 800a170:	4461      	add	r1, ip
 800a172:	140c      	asrs	r4, r1, #16
 800a174:	eb04 4418 	add.w	r4, r4, r8, lsr #16
 800a178:	b289      	uxth	r1, r1
 800a17a:	ea41 4104 	orr.w	r1, r1, r4, lsl #16
 800a17e:	ea4f 4c24 	mov.w	ip, r4, asr #16
 800a182:	f846 1b04 	str.w	r1, [r6], #4
 800a186:	e7de      	b.n	800a146 <__mdiff+0xca>
 800a188:	3f01      	subs	r7, #1
 800a18a:	e7e8      	b.n	800a15e <__mdiff+0xe2>
 800a18c:	0800dadc 	.word	0x0800dadc
 800a190:	0800daed 	.word	0x0800daed

0800a194 <__d2b>:
 800a194:	b5f7      	push	{r0, r1, r2, r4, r5, r6, r7, lr}
 800a196:	2101      	movs	r1, #1
 800a198:	4617      	mov	r7, r2
 800a19a:	461c      	mov	r4, r3
 800a19c:	9e08      	ldr	r6, [sp, #32]
 800a19e:	f7ff fcd7 	bl	8009b50 <_Balloc>
 800a1a2:	4605      	mov	r5, r0
 800a1a4:	b930      	cbnz	r0, 800a1b4 <__d2b+0x20>
 800a1a6:	4602      	mov	r2, r0
 800a1a8:	f240 310f 	movw	r1, #783	; 0x30f
 800a1ac:	4b22      	ldr	r3, [pc, #136]	; (800a238 <__d2b+0xa4>)
 800a1ae:	4823      	ldr	r0, [pc, #140]	; (800a23c <__d2b+0xa8>)
 800a1b0:	f000 fc4a 	bl	800aa48 <__assert_func>
 800a1b4:	f3c4 0313 	ubfx	r3, r4, #0, #20
 800a1b8:	f3c4 540a 	ubfx	r4, r4, #20, #11
 800a1bc:	bb24      	cbnz	r4, 800a208 <__d2b+0x74>
 800a1be:	2f00      	cmp	r7, #0
 800a1c0:	9301      	str	r3, [sp, #4]
 800a1c2:	d026      	beq.n	800a212 <__d2b+0x7e>
 800a1c4:	4668      	mov	r0, sp
 800a1c6:	9700      	str	r7, [sp, #0]
 800a1c8:	f7ff fd8a 	bl	8009ce0 <__lo0bits>
 800a1cc:	e9dd 1200 	ldrd	r1, r2, [sp]
 800a1d0:	b1e8      	cbz	r0, 800a20e <__d2b+0x7a>
 800a1d2:	f1c0 0320 	rsb	r3, r0, #32
 800a1d6:	fa02 f303 	lsl.w	r3, r2, r3
 800a1da:	430b      	orrs	r3, r1
 800a1dc:	40c2      	lsrs	r2, r0
 800a1de:	616b      	str	r3, [r5, #20]
 800a1e0:	9201      	str	r2, [sp, #4]
 800a1e2:	9b01      	ldr	r3, [sp, #4]
 800a1e4:	2b00      	cmp	r3, #0
 800a1e6:	bf14      	ite	ne
 800a1e8:	2102      	movne	r1, #2
 800a1ea:	2101      	moveq	r1, #1
 800a1ec:	61ab      	str	r3, [r5, #24]
 800a1ee:	6129      	str	r1, [r5, #16]
 800a1f0:	b1bc      	cbz	r4, 800a222 <__d2b+0x8e>
 800a1f2:	f2a4 4433 	subw	r4, r4, #1075	; 0x433
 800a1f6:	4404      	add	r4, r0
 800a1f8:	6034      	str	r4, [r6, #0]
 800a1fa:	f1c0 0035 	rsb	r0, r0, #53	; 0x35
 800a1fe:	9b09      	ldr	r3, [sp, #36]	; 0x24
 800a200:	6018      	str	r0, [r3, #0]
 800a202:	4628      	mov	r0, r5
 800a204:	b003      	add	sp, #12
 800a206:	bdf0      	pop	{r4, r5, r6, r7, pc}
 800a208:	f443 1380 	orr.w	r3, r3, #1048576	; 0x100000
 800a20c:	e7d7      	b.n	800a1be <__d2b+0x2a>
 800a20e:	6169      	str	r1, [r5, #20]
 800a210:	e7e7      	b.n	800a1e2 <__d2b+0x4e>
 800a212:	a801      	add	r0, sp, #4
 800a214:	f7ff fd64 	bl	8009ce0 <__lo0bits>
 800a218:	9b01      	ldr	r3, [sp, #4]
 800a21a:	2101      	movs	r1, #1
 800a21c:	616b      	str	r3, [r5, #20]
 800a21e:	3020      	adds	r0, #32
 800a220:	e7e5      	b.n	800a1ee <__d2b+0x5a>
 800a222:	f2a0 4032 	subw	r0, r0, #1074	; 0x432
 800a226:	eb05 0381 	add.w	r3, r5, r1, lsl #2
 800a22a:	6030      	str	r0, [r6, #0]
 800a22c:	6918      	ldr	r0, [r3, #16]
 800a22e:	f7ff fd37 	bl	8009ca0 <__hi0bits>
 800a232:	ebc0 1041 	rsb	r0, r0, r1, lsl #5
 800a236:	e7e2      	b.n	800a1fe <__d2b+0x6a>
 800a238:	0800dadc 	.word	0x0800dadc
 800a23c:	0800daed 	.word	0x0800daed

0800a240 <__ssputs_r>:
 800a240:	e92d 47f0 	stmdb	sp!, {r4, r5, r6, r7, r8, r9, sl, lr}
 800a244:	461f      	mov	r7, r3
 800a246:	688e      	ldr	r6, [r1, #8]
 800a248:	4682      	mov	sl, r0
 800a24a:	42be      	cmp	r6, r7
 800a24c:	460c      	mov	r4, r1
 800a24e:	4690      	mov	r8, r2
 800a250:	680b      	ldr	r3, [r1, #0]
 800a252:	d82c      	bhi.n	800a2ae <__ssputs_r+0x6e>
 800a254:	898a      	ldrh	r2, [r1, #12]
 800a256:	f412 6f90 	tst.w	r2, #1152	; 0x480
 800a25a:	d026      	beq.n	800a2aa <__ssputs_r+0x6a>
 800a25c:	6965      	ldr	r5, [r4, #20]
 800a25e:	6909      	ldr	r1, [r1, #16]
 800a260:	eb05 0545 	add.w	r5, r5, r5, lsl #1
 800a264:	eba3 0901 	sub.w	r9, r3, r1
 800a268:	eb05 75d5 	add.w	r5, r5, r5, lsr #31
 800a26c:	1c7b      	adds	r3, r7, #1
 800a26e:	444b      	add	r3, r9
 800a270:	106d      	asrs	r5, r5, #1
 800a272:	429d      	cmp	r5, r3
 800a274:	bf38      	it	cc
 800a276:	461d      	movcc	r5, r3
 800a278:	0553      	lsls	r3, r2, #21
 800a27a:	d527      	bpl.n	800a2cc <__ssputs_r+0x8c>
 800a27c:	4629      	mov	r1, r5
 800a27e:	f7ff fbdb 	bl	8009a38 <_malloc_r>
 800a282:	4606      	mov	r6, r0
 800a284:	b360      	cbz	r0, 800a2e0 <__ssputs_r+0xa0>
 800a286:	464a      	mov	r2, r9
 800a288:	6921      	ldr	r1, [r4, #16]
 800a28a:	f7fe fce9 	bl	8008c60 <memcpy>
 800a28e:	89a3      	ldrh	r3, [r4, #12]
 800a290:	f423 6390 	bic.w	r3, r3, #1152	; 0x480
 800a294:	f043 0380 	orr.w	r3, r3, #128	; 0x80
 800a298:	81a3      	strh	r3, [r4, #12]
 800a29a:	6126      	str	r6, [r4, #16]
 800a29c:	444e      	add	r6, r9
 800a29e:	6026      	str	r6, [r4, #0]
 800a2a0:	463e      	mov	r6, r7
 800a2a2:	6165      	str	r5, [r4, #20]
 800a2a4:	eba5 0509 	sub.w	r5, r5, r9
 800a2a8:	60a5      	str	r5, [r4, #8]
 800a2aa:	42be      	cmp	r6, r7
 800a2ac:	d900      	bls.n	800a2b0 <__ssputs_r+0x70>
 800a2ae:	463e      	mov	r6, r7
 800a2b0:	4632      	mov	r2, r6
 800a2b2:	4641      	mov	r1, r8
 800a2b4:	6820      	ldr	r0, [r4, #0]
 800a2b6:	f000 fb9d 	bl	800a9f4 <memmove>
 800a2ba:	2000      	movs	r0, #0
 800a2bc:	68a3      	ldr	r3, [r4, #8]
 800a2be:	1b9b      	subs	r3, r3, r6
 800a2c0:	60a3      	str	r3, [r4, #8]
 800a2c2:	6823      	ldr	r3, [r4, #0]
 800a2c4:	4433      	add	r3, r6
 800a2c6:	6023      	str	r3, [r4, #0]
 800a2c8:	e8bd 87f0 	ldmia.w	sp!, {r4, r5, r6, r7, r8, r9, sl, pc}
 800a2cc:	462a      	mov	r2, r5
 800a2ce:	f000 fbff 	bl	800aad0 <_realloc_r>
 800a2d2:	4606      	mov	r6, r0
 800a2d4:	2800      	cmp	r0, #0
 800a2d6:	d1e0      	bne.n	800a29a <__ssputs_r+0x5a>
 800a2d8:	4650      	mov	r0, sl
 800a2da:	6921      	ldr	r1, [r4, #16]
 800a2dc:	f7ff fb3c 	bl	8009958 <_free_r>
 800a2e0:	230c      	movs	r3, #12
 800a2e2:	f8ca 3000 	str.w	r3, [sl]
 800a2e6:	89a3      	ldrh	r3, [r4, #12]
 800a2e8:	f04f 30ff 	mov.w	r0, #4294967295
 800a2ec:	f043 0340 	orr.w	r3, r3, #64	; 0x40
 800a2f0:	81a3      	strh	r3, [r4, #12]
 800a2f2:	e7e9      	b.n	800a2c8 <__ssputs_r+0x88>

0800a2f4 <_svfiprintf_r>:
 800a2f4:	e92d 4ff0 	stmdb	sp!, {r4, r5, r6, r7, r8, r9, sl, fp, lr}
 800a2f8:	4698      	mov	r8, r3
 800a2fa:	898b      	ldrh	r3, [r1, #12]
 800a2fc:	4607      	mov	r7, r0
 800a2fe:	061b      	lsls	r3, r3, #24
 800a300:	460d      	mov	r5, r1
 800a302:	4614      	mov	r4, r2
 800a304:	b09d      	sub	sp, #116	; 0x74
 800a306:	d50e      	bpl.n	800a326 <_svfiprintf_r+0x32>
 800a308:	690b      	ldr	r3, [r1, #16]
 800a30a:	b963      	cbnz	r3, 800a326 <_svfiprintf_r+0x32>
 800a30c:	2140      	movs	r1, #64	; 0x40
 800a30e:	f7ff fb93 	bl	8009a38 <_malloc_r>
 800a312:	6028      	str	r0, [r5, #0]
 800a314:	6128      	str	r0, [r5, #16]
 800a316:	b920      	cbnz	r0, 800a322 <_svfiprintf_r+0x2e>
 800a318:	230c      	movs	r3, #12
 800a31a:	603b      	str	r3, [r7, #0]
 800a31c:	f04f 30ff 	mov.w	r0, #4294967295
 800a320:	e0d0      	b.n	800a4c4 <_svfiprintf_r+0x1d0>
 800a322:	2340      	movs	r3, #64	; 0x40
 800a324:	616b      	str	r3, [r5, #20]
 800a326:	2300      	movs	r3, #0
 800a328:	9309      	str	r3, [sp, #36]	; 0x24
 800a32a:	2320      	movs	r3, #32
 800a32c:	f88d 3029 	strb.w	r3, [sp, #41]	; 0x29
 800a330:	2330      	movs	r3, #48	; 0x30
 800a332:	f04f 0901 	mov.w	r9, #1
 800a336:	f8cd 800c 	str.w	r8, [sp, #12]
 800a33a:	f8df 81a0 	ldr.w	r8, [pc, #416]	; 800a4dc <_svfiprintf_r+0x1e8>
 800a33e:	f88d 302a 	strb.w	r3, [sp, #42]	; 0x2a
 800a342:	4623      	mov	r3, r4
 800a344:	469a      	mov	sl, r3
 800a346:	f813 2b01 	ldrb.w	r2, [r3], #1
 800a34a:	b10a      	cbz	r2, 800a350 <_svfiprintf_r+0x5c>
 800a34c:	2a25      	cmp	r2, #37	; 0x25
 800a34e:	d1f9      	bne.n	800a344 <_svfiprintf_r+0x50>
 800a350:	ebba 0b04 	subs.w	fp, sl, r4
 800a354:	d00b      	beq.n	800a36e <_svfiprintf_r+0x7a>
 800a356:	465b      	mov	r3, fp
 800a358:	4622      	mov	r2, r4
 800a35a:	4629      	mov	r1, r5
 800a35c:	4638      	mov	r0, r7
 800a35e:	f7ff ff6f 	bl	800a240 <__ssputs_r>
 800a362:	3001      	adds	r0, #1
 800a364:	f000 80a9 	beq.w	800a4ba <_svfiprintf_r+0x1c6>
 800a368:	9a09      	ldr	r2, [sp, #36]	; 0x24
 800a36a:	445a      	add	r2, fp
 800a36c:	9209      	str	r2, [sp, #36]	; 0x24
 800a36e:	f89a 3000 	ldrb.w	r3, [sl]
 800a372:	2b00      	cmp	r3, #0
 800a374:	f000 80a1 	beq.w	800a4ba <_svfiprintf_r+0x1c6>
 800a378:	2300      	movs	r3, #0
 800a37a:	f04f 32ff 	mov.w	r2, #4294967295
 800a37e:	e9cd 2305 	strd	r2, r3, [sp, #20]
 800a382:	f10a 0a01 	add.w	sl, sl, #1
 800a386:	9304      	str	r3, [sp, #16]
 800a388:	9307      	str	r3, [sp, #28]
 800a38a:	f88d 3053 	strb.w	r3, [sp, #83]	; 0x53
 800a38e:	931a      	str	r3, [sp, #104]	; 0x68
 800a390:	4654      	mov	r4, sl
 800a392:	2205      	movs	r2, #5
 800a394:	f814 1b01 	ldrb.w	r1, [r4], #1
 800a398:	4850      	ldr	r0, [pc, #320]	; (800a4dc <_svfiprintf_r+0x1e8>)
 800a39a:	f7fe fc53 	bl	8008c44 <memchr>
 800a39e:	9a04      	ldr	r2, [sp, #16]
 800a3a0:	b9d8      	cbnz	r0, 800a3da <_svfiprintf_r+0xe6>
 800a3a2:	06d0      	lsls	r0, r2, #27
 800a3a4:	bf44      	itt	mi
 800a3a6:	2320      	movmi	r3, #32
 800a3a8:	f88d 3053 	strbmi.w	r3, [sp, #83]	; 0x53
 800a3ac:	0711      	lsls	r1, r2, #28
 800a3ae:	bf44      	itt	mi
 800a3b0:	232b      	movmi	r3, #43	; 0x2b
 800a3b2:	f88d 3053 	strbmi.w	r3, [sp, #83]	; 0x53
 800a3b6:	f89a 3000 	ldrb.w	r3, [sl]
 800a3ba:	2b2a      	cmp	r3, #42	; 0x2a
 800a3bc:	d015      	beq.n	800a3ea <_svfiprintf_r+0xf6>
 800a3be:	4654      	mov	r4, sl
 800a3c0:	2000      	movs	r0, #0
 800a3c2:	f04f 0c0a 	mov.w	ip, #10
 800a3c6:	9a07      	ldr	r2, [sp, #28]
 800a3c8:	4621      	mov	r1, r4
 800a3ca:	f811 3b01 	ldrb.w	r3, [r1], #1
 800a3ce:	3b30      	subs	r3, #48	; 0x30
 800a3d0:	2b09      	cmp	r3, #9
 800a3d2:	d94d      	bls.n	800a470 <_svfiprintf_r+0x17c>
 800a3d4:	b1b0      	cbz	r0, 800a404 <_svfiprintf_r+0x110>
 800a3d6:	9207      	str	r2, [sp, #28]
 800a3d8:	e014      	b.n	800a404 <_svfiprintf_r+0x110>
 800a3da:	eba0 0308 	sub.w	r3, r0, r8
 800a3de:	fa09 f303 	lsl.w	r3, r9, r3
 800a3e2:	4313      	orrs	r3, r2
 800a3e4:	46a2      	mov	sl, r4
 800a3e6:	9304      	str	r3, [sp, #16]
 800a3e8:	e7d2      	b.n	800a390 <_svfiprintf_r+0x9c>
 800a3ea:	9b03      	ldr	r3, [sp, #12]
 800a3ec:	1d19      	adds	r1, r3, #4
 800a3ee:	681b      	ldr	r3, [r3, #0]
 800a3f0:	9103      	str	r1, [sp, #12]
 800a3f2:	2b00      	cmp	r3, #0
 800a3f4:	bfbb      	ittet	lt
 800a3f6:	425b      	neglt	r3, r3
 800a3f8:	f042 0202 	orrlt.w	r2, r2, #2
 800a3fc:	9307      	strge	r3, [sp, #28]
 800a3fe:	9307      	strlt	r3, [sp, #28]
 800a400:	bfb8      	it	lt
 800a402:	9204      	strlt	r2, [sp, #16]
 800a404:	7823      	ldrb	r3, [r4, #0]
 800a406:	2b2e      	cmp	r3, #46	; 0x2e
 800a408:	d10c      	bne.n	800a424 <_svfiprintf_r+0x130>
 800a40a:	7863      	ldrb	r3, [r4, #1]
 800a40c:	2b2a      	cmp	r3, #42	; 0x2a
 800a40e:	d134      	bne.n	800a47a <_svfiprintf_r+0x186>
 800a410:	9b03      	ldr	r3, [sp, #12]
 800a412:	3402      	adds	r4, #2
 800a414:	1d1a      	adds	r2, r3, #4
 800a416:	681b      	ldr	r3, [r3, #0]
 800a418:	9203      	str	r2, [sp, #12]
 800a41a:	2b00      	cmp	r3, #0
 800a41c:	bfb8      	it	lt
 800a41e:	f04f 33ff 	movlt.w	r3, #4294967295
 800a422:	9305      	str	r3, [sp, #20]
 800a424:	f8df a0b8 	ldr.w	sl, [pc, #184]	; 800a4e0 <_svfiprintf_r+0x1ec>
 800a428:	2203      	movs	r2, #3
 800a42a:	4650      	mov	r0, sl
 800a42c:	7821      	ldrb	r1, [r4, #0]
 800a42e:	f7fe fc09 	bl	8008c44 <memchr>
 800a432:	b138      	cbz	r0, 800a444 <_svfiprintf_r+0x150>
 800a434:	2240      	movs	r2, #64	; 0x40
 800a436:	9b04      	ldr	r3, [sp, #16]
 800a438:	eba0 000a 	sub.w	r0, r0, sl
 800a43c:	4082      	lsls	r2, r0
 800a43e:	4313      	orrs	r3, r2
 800a440:	3401      	adds	r4, #1
 800a442:	9304      	str	r3, [sp, #16]
 800a444:	f814 1b01 	ldrb.w	r1, [r4], #1
 800a448:	2206      	movs	r2, #6
 800a44a:	4826      	ldr	r0, [pc, #152]	; (800a4e4 <_svfiprintf_r+0x1f0>)
 800a44c:	f88d 1028 	strb.w	r1, [sp, #40]	; 0x28
 800a450:	f7fe fbf8 	bl	8008c44 <memchr>
 800a454:	2800      	cmp	r0, #0
 800a456:	d038      	beq.n	800a4ca <_svfiprintf_r+0x1d6>
 800a458:	4b23      	ldr	r3, [pc, #140]	; (800a4e8 <_svfiprintf_r+0x1f4>)
 800a45a:	bb1b      	cbnz	r3, 800a4a4 <_svfiprintf_r+0x1b0>
 800a45c:	9b03      	ldr	r3, [sp, #12]
 800a45e:	3307      	adds	r3, #7
 800a460:	f023 0307 	bic.w	r3, r3, #7
 800a464:	3308      	adds	r3, #8
 800a466:	9303      	str	r3, [sp, #12]
 800a468:	9b09      	ldr	r3, [sp, #36]	; 0x24
 800a46a:	4433      	add	r3, r6
 800a46c:	9309      	str	r3, [sp, #36]	; 0x24
 800a46e:	e768      	b.n	800a342 <_svfiprintf_r+0x4e>
 800a470:	460c      	mov	r4, r1
 800a472:	2001      	movs	r0, #1
 800a474:	fb0c 3202 	mla	r2, ip, r2, r3
 800a478:	e7a6      	b.n	800a3c8 <_svfiprintf_r+0xd4>
 800a47a:	2300      	movs	r3, #0
 800a47c:	f04f 0c0a 	mov.w	ip, #10
 800a480:	4619      	mov	r1, r3
 800a482:	3401      	adds	r4, #1
 800a484:	9305      	str	r3, [sp, #20]
 800a486:	4620      	mov	r0, r4
 800a488:	f810 2b01 	ldrb.w	r2, [r0], #1
 800a48c:	3a30      	subs	r2, #48	; 0x30
 800a48e:	2a09      	cmp	r2, #9
 800a490:	d903      	bls.n	800a49a <_svfiprintf_r+0x1a6>
 800a492:	2b00      	cmp	r3, #0
 800a494:	d0c6      	beq.n	800a424 <_svfiprintf_r+0x130>
 800a496:	9105      	str	r1, [sp, #20]
 800a498:	e7c4      	b.n	800a424 <_svfiprintf_r+0x130>
 800a49a:	4604      	mov	r4, r0
 800a49c:	2301      	movs	r3, #1
 800a49e:	fb0c 2101 	mla	r1, ip, r1, r2
 800a4a2:	e7f0      	b.n	800a486 <_svfiprintf_r+0x192>
 800a4a4:	ab03      	add	r3, sp, #12
 800a4a6:	9300      	str	r3, [sp, #0]
 800a4a8:	462a      	mov	r2, r5
 800a4aa:	4638      	mov	r0, r7
 800a4ac:	4b0f      	ldr	r3, [pc, #60]	; (800a4ec <_svfiprintf_r+0x1f8>)
 800a4ae:	a904      	add	r1, sp, #16
 800a4b0:	f7fd fe62 	bl	8008178 <_printf_float>
 800a4b4:	1c42      	adds	r2, r0, #1
 800a4b6:	4606      	mov	r6, r0
 800a4b8:	d1d6      	bne.n	800a468 <_svfiprintf_r+0x174>
 800a4ba:	89ab      	ldrh	r3, [r5, #12]
 800a4bc:	065b      	lsls	r3, r3, #25
 800a4be:	f53f af2d 	bmi.w	800a31c <_svfiprintf_r+0x28>
 800a4c2:	9809      	ldr	r0, [sp, #36]	; 0x24
 800a4c4:	b01d      	add	sp, #116	; 0x74
 800a4c6:	e8bd 8ff0 	ldmia.w	sp!, {r4, r5, r6, r7, r8, r9, sl, fp, pc}
 800a4ca:	ab03      	add	r3, sp, #12
 800a4cc:	9300      	str	r3, [sp, #0]
 800a4ce:	462a      	mov	r2, r5
 800a4d0:	4638      	mov	r0, r7
 800a4d2:	4b06      	ldr	r3, [pc, #24]	; (800a4ec <_svfiprintf_r+0x1f8>)
 800a4d4:	a904      	add	r1, sp, #16
 800a4d6:	f7fe f8ef 	bl	80086b8 <_printf_i>
 800a4da:	e7eb      	b.n	800a4b4 <_svfiprintf_r+0x1c0>
 800a4dc:	0800dc44 	.word	0x0800dc44
 800a4e0:	0800dc4a 	.word	0x0800dc4a
 800a4e4:	0800dc4e 	.word	0x0800dc4e
 800a4e8:	08008179 	.word	0x08008179
 800a4ec:	0800a241 	.word	0x0800a241

0800a4f0 <__sfputc_r>:
 800a4f0:	6893      	ldr	r3, [r2, #8]
 800a4f2:	b410      	push	{r4}
 800a4f4:	3b01      	subs	r3, #1
 800a4f6:	2b00      	cmp	r3, #0
 800a4f8:	6093      	str	r3, [r2, #8]
 800a4fa:	da07      	bge.n	800a50c <__sfputc_r+0x1c>
 800a4fc:	6994      	ldr	r4, [r2, #24]
 800a4fe:	42a3      	cmp	r3, r4
 800a500:	db01      	blt.n	800a506 <__sfputc_r+0x16>
 800a502:	290a      	cmp	r1, #10
 800a504:	d102      	bne.n	800a50c <__sfputc_r+0x1c>
 800a506:	bc10      	pop	{r4}
 800a508:	f000 b9de 	b.w	800a8c8 <__swbuf_r>
 800a50c:	6813      	ldr	r3, [r2, #0]
 800a50e:	1c58      	adds	r0, r3, #1
 800a510:	6010      	str	r0, [r2, #0]
 800a512:	7019      	strb	r1, [r3, #0]
 800a514:	4608      	mov	r0, r1
 800a516:	bc10      	pop	{r4}
 800a518:	4770      	bx	lr

0800a51a <__sfputs_r>:
 800a51a:	b5f8      	push	{r3, r4, r5, r6, r7, lr}
 800a51c:	4606      	mov	r6, r0
 800a51e:	460f      	mov	r7, r1
 800a520:	4614      	mov	r4, r2
 800a522:	18d5      	adds	r5, r2, r3
 800a524:	42ac      	cmp	r4, r5
 800a526:	d101      	bne.n	800a52c <__sfputs_r+0x12>
 800a528:	2000      	movs	r0, #0
 800a52a:	e007      	b.n	800a53c <__sfputs_r+0x22>
 800a52c:	463a      	mov	r2, r7
 800a52e:	4630      	mov	r0, r6
 800a530:	f814 1b01 	ldrb.w	r1, [r4], #1
 800a534:	f7ff ffdc 	bl	800a4f0 <__sfputc_r>
 800a538:	1c43      	adds	r3, r0, #1
 800a53a:	d1f3      	bne.n	800a524 <__sfputs_r+0xa>
 800a53c:	bdf8      	pop	{r3, r4, r5, r6, r7, pc}
	...

0800a540 <_vfiprintf_r>:
 800a540:	e92d 4ff0 	stmdb	sp!, {r4, r5, r6, r7, r8, r9, sl, fp, lr}
 800a544:	460d      	mov	r5, r1
 800a546:	4614      	mov	r4, r2
 800a548:	4698      	mov	r8, r3
 800a54a:	4606      	mov	r6, r0
 800a54c:	b09d      	sub	sp, #116	; 0x74
 800a54e:	b118      	cbz	r0, 800a558 <_vfiprintf_r+0x18>
 800a550:	6a03      	ldr	r3, [r0, #32]
 800a552:	b90b      	cbnz	r3, 800a558 <_vfiprintf_r+0x18>
 800a554:	f7fe fa4c 	bl	80089f0 <__sinit>
 800a558:	6e6b      	ldr	r3, [r5, #100]	; 0x64
 800a55a:	07d9      	lsls	r1, r3, #31
 800a55c:	d405      	bmi.n	800a56a <_vfiprintf_r+0x2a>
 800a55e:	89ab      	ldrh	r3, [r5, #12]
 800a560:	059a      	lsls	r2, r3, #22
 800a562:	d402      	bmi.n	800a56a <_vfiprintf_r+0x2a>
 800a564:	6da8      	ldr	r0, [r5, #88]	; 0x58
 800a566:	f7fe fb6b 	bl	8008c40 <__retarget_lock_acquire_recursive>
 800a56a:	89ab      	ldrh	r3, [r5, #12]
 800a56c:	071b      	lsls	r3, r3, #28
 800a56e:	d501      	bpl.n	800a574 <_vfiprintf_r+0x34>
 800a570:	692b      	ldr	r3, [r5, #16]
 800a572:	b99b      	cbnz	r3, 800a59c <_vfiprintf_r+0x5c>
 800a574:	4629      	mov	r1, r5
 800a576:	4630      	mov	r0, r6
 800a578:	f000 f9e4 	bl	800a944 <__swsetup_r>
 800a57c:	b170      	cbz	r0, 800a59c <_vfiprintf_r+0x5c>
 800a57e:	6e6b      	ldr	r3, [r5, #100]	; 0x64
 800a580:	07dc      	lsls	r4, r3, #31
 800a582:	d504      	bpl.n	800a58e <_vfiprintf_r+0x4e>
 800a584:	f04f 30ff 	mov.w	r0, #4294967295
 800a588:	b01d      	add	sp, #116	; 0x74
 800a58a:	e8bd 8ff0 	ldmia.w	sp!, {r4, r5, r6, r7, r8, r9, sl, fp, pc}
 800a58e:	89ab      	ldrh	r3, [r5, #12]
 800a590:	0598      	lsls	r0, r3, #22
 800a592:	d4f7      	bmi.n	800a584 <_vfiprintf_r+0x44>
 800a594:	6da8      	ldr	r0, [r5, #88]	; 0x58
 800a596:	f7fe fb54 	bl	8008c42 <__retarget_lock_release_recursive>
 800a59a:	e7f3      	b.n	800a584 <_vfiprintf_r+0x44>
 800a59c:	2300      	movs	r3, #0
 800a59e:	9309      	str	r3, [sp, #36]	; 0x24
 800a5a0:	2320      	movs	r3, #32
 800a5a2:	f88d 3029 	strb.w	r3, [sp, #41]	; 0x29
 800a5a6:	2330      	movs	r3, #48	; 0x30
 800a5a8:	f04f 0901 	mov.w	r9, #1
 800a5ac:	f8cd 800c 	str.w	r8, [sp, #12]
 800a5b0:	f8df 81ac 	ldr.w	r8, [pc, #428]	; 800a760 <_vfiprintf_r+0x220>
 800a5b4:	f88d 302a 	strb.w	r3, [sp, #42]	; 0x2a
 800a5b8:	4623      	mov	r3, r4
 800a5ba:	469a      	mov	sl, r3
 800a5bc:	f813 2b01 	ldrb.w	r2, [r3], #1
 800a5c0:	b10a      	cbz	r2, 800a5c6 <_vfiprintf_r+0x86>
 800a5c2:	2a25      	cmp	r2, #37	; 0x25
 800a5c4:	d1f9      	bne.n	800a5ba <_vfiprintf_r+0x7a>
 800a5c6:	ebba 0b04 	subs.w	fp, sl, r4
 800a5ca:	d00b      	beq.n	800a5e4 <_vfiprintf_r+0xa4>
 800a5cc:	465b      	mov	r3, fp
 800a5ce:	4622      	mov	r2, r4
 800a5d0:	4629      	mov	r1, r5
 800a5d2:	4630      	mov	r0, r6
 800a5d4:	f7ff ffa1 	bl	800a51a <__sfputs_r>
 800a5d8:	3001      	adds	r0, #1
 800a5da:	f000 80a9 	beq.w	800a730 <_vfiprintf_r+0x1f0>
 800a5de:	9a09      	ldr	r2, [sp, #36]	; 0x24
 800a5e0:	445a      	add	r2, fp
 800a5e2:	9209      	str	r2, [sp, #36]	; 0x24
 800a5e4:	f89a 3000 	ldrb.w	r3, [sl]
 800a5e8:	2b00      	cmp	r3, #0
 800a5ea:	f000 80a1 	beq.w	800a730 <_vfiprintf_r+0x1f0>
 800a5ee:	2300      	movs	r3, #0
 800a5f0:	f04f 32ff 	mov.w	r2, #4294967295
 800a5f4:	e9cd 2305 	strd	r2, r3, [sp, #20]
 800a5f8:	f10a 0a01 	add.w	sl, sl, #1
 800a5fc:	9304      	str	r3, [sp, #16]
 800a5fe:	9307      	str	r3, [sp, #28]
 800a600:	f88d 3053 	strb.w	r3, [sp, #83]	; 0x53
 800a604:	931a      	str	r3, [sp, #104]	; 0x68
 800a606:	4654      	mov	r4, sl
 800a608:	2205      	movs	r2, #5
 800a60a:	f814 1b01 	ldrb.w	r1, [r4], #1
 800a60e:	4854      	ldr	r0, [pc, #336]	; (800a760 <_vfiprintf_r+0x220>)
 800a610:	f7fe fb18 	bl	8008c44 <memchr>
 800a614:	9a04      	ldr	r2, [sp, #16]
 800a616:	b9d8      	cbnz	r0, 800a650 <_vfiprintf_r+0x110>
 800a618:	06d1      	lsls	r1, r2, #27
 800a61a:	bf44      	itt	mi
 800a61c:	2320      	movmi	r3, #32
 800a61e:	f88d 3053 	strbmi.w	r3, [sp, #83]	; 0x53
 800a622:	0713      	lsls	r3, r2, #28
 800a624:	bf44      	itt	mi
 800a626:	232b      	movmi	r3, #43	; 0x2b
 800a628:	f88d 3053 	strbmi.w	r3, [sp, #83]	; 0x53
 800a62c:	f89a 3000 	ldrb.w	r3, [sl]
 800a630:	2b2a      	cmp	r3, #42	; 0x2a
 800a632:	d015      	beq.n	800a660 <_vfiprintf_r+0x120>
 800a634:	4654      	mov	r4, sl
 800a636:	2000      	movs	r0, #0
 800a638:	f04f 0c0a 	mov.w	ip, #10
 800a63c:	9a07      	ldr	r2, [sp, #28]
 800a63e:	4621      	mov	r1, r4
 800a640:	f811 3b01 	ldrb.w	r3, [r1], #1
 800a644:	3b30      	subs	r3, #48	; 0x30
 800a646:	2b09      	cmp	r3, #9
 800a648:	d94d      	bls.n	800a6e6 <_vfiprintf_r+0x1a6>
 800a64a:	b1b0      	cbz	r0, 800a67a <_vfiprintf_r+0x13a>
 800a64c:	9207      	str	r2, [sp, #28]
 800a64e:	e014      	b.n	800a67a <_vfiprintf_r+0x13a>
 800a650:	eba0 0308 	sub.w	r3, r0, r8
 800a654:	fa09 f303 	lsl.w	r3, r9, r3
 800a658:	4313      	orrs	r3, r2
 800a65a:	46a2      	mov	sl, r4
 800a65c:	9304      	str	r3, [sp, #16]
 800a65e:	e7d2      	b.n	800a606 <_vfiprintf_r+0xc6>
 800a660:	9b03      	ldr	r3, [sp, #12]
 800a662:	1d19      	adds	r1, r3, #4
 800a664:	681b      	ldr	r3, [r3, #0]
 800a666:	9103      	str	r1, [sp, #12]
 800a668:	2b00      	cmp	r3, #0
 800a66a:	bfbb      	ittet	lt
 800a66c:	425b      	neglt	r3, r3
 800a66e:	f042 0202 	orrlt.w	r2, r2, #2
 800a672:	9307      	strge	r3, [sp, #28]
 800a674:	9307      	strlt	r3, [sp, #28]
 800a676:	bfb8      	it	lt
 800a678:	9204      	strlt	r2, [sp, #16]
 800a67a:	7823      	ldrb	r3, [r4, #0]
 800a67c:	2b2e      	cmp	r3, #46	; 0x2e
 800a67e:	d10c      	bne.n	800a69a <_vfiprintf_r+0x15a>
 800a680:	7863      	ldrb	r3, [r4, #1]
 800a682:	2b2a      	cmp	r3, #42	; 0x2a
 800a684:	d134      	bne.n	800a6f0 <_vfiprintf_r+0x1b0>
 800a686:	9b03      	ldr	r3, [sp, #12]
 800a688:	3402      	adds	r4, #2
 800a68a:	1d1a      	adds	r2, r3, #4
 800a68c:	681b      	ldr	r3, [r3, #0]
 800a68e:	9203      	str	r2, [sp, #12]
 800a690:	2b00      	cmp	r3, #0
 800a692:	bfb8      	it	lt
 800a694:	f04f 33ff 	movlt.w	r3, #4294967295
 800a698:	9305      	str	r3, [sp, #20]
 800a69a:	f8df a0c8 	ldr.w	sl, [pc, #200]	; 800a764 <_vfiprintf_r+0x224>
 800a69e:	2203      	movs	r2, #3
 800a6a0:	4650      	mov	r0, sl
 800a6a2:	7821      	ldrb	r1, [r4, #0]
 800a6a4:	f7fe face 	bl	8008c44 <memchr>
 800a6a8:	b138      	cbz	r0, 800a6ba <_vfiprintf_r+0x17a>
 800a6aa:	2240      	movs	r2, #64	; 0x40
 800a6ac:	9b04      	ldr	r3, [sp, #16]
 800a6ae:	eba0 000a 	sub.w	r0, r0, sl
 800a6b2:	4082      	lsls	r2, r0
 800a6b4:	4313      	orrs	r3, r2
 800a6b6:	3401      	adds	r4, #1
 800a6b8:	9304      	str	r3, [sp, #16]
 800a6ba:	f814 1b01 	ldrb.w	r1, [r4], #1
 800a6be:	2206      	movs	r2, #6
 800a6c0:	4829      	ldr	r0, [pc, #164]	; (800a768 <_vfiprintf_r+0x228>)
 800a6c2:	f88d 1028 	strb.w	r1, [sp, #40]	; 0x28
 800a6c6:	f7fe fabd 	bl	8008c44 <memchr>
 800a6ca:	2800      	cmp	r0, #0
 800a6cc:	d03f      	beq.n	800a74e <_vfiprintf_r+0x20e>
 800a6ce:	4b27      	ldr	r3, [pc, #156]	; (800a76c <_vfiprintf_r+0x22c>)
 800a6d0:	bb1b      	cbnz	r3, 800a71a <_vfiprintf_r+0x1da>
 800a6d2:	9b03      	ldr	r3, [sp, #12]
 800a6d4:	3307      	adds	r3, #7
 800a6d6:	f023 0307 	bic.w	r3, r3, #7
 800a6da:	3308      	adds	r3, #8
 800a6dc:	9303      	str	r3, [sp, #12]
 800a6de:	9b09      	ldr	r3, [sp, #36]	; 0x24
 800a6e0:	443b      	add	r3, r7
 800a6e2:	9309      	str	r3, [sp, #36]	; 0x24
 800a6e4:	e768      	b.n	800a5b8 <_vfiprintf_r+0x78>
 800a6e6:	460c      	mov	r4, r1
 800a6e8:	2001      	movs	r0, #1
 800a6ea:	fb0c 3202 	mla	r2, ip, r2, r3
 800a6ee:	e7a6      	b.n	800a63e <_vfiprintf_r+0xfe>
 800a6f0:	2300      	movs	r3, #0
 800a6f2:	f04f 0c0a 	mov.w	ip, #10
 800a6f6:	4619      	mov	r1, r3
 800a6f8:	3401      	adds	r4, #1
 800a6fa:	9305      	str	r3, [sp, #20]
 800a6fc:	4620      	mov	r0, r4
 800a6fe:	f810 2b01 	ldrb.w	r2, [r0], #1
 800a702:	3a30      	subs	r2, #48	; 0x30
 800a704:	2a09      	cmp	r2, #9
 800a706:	d903      	bls.n	800a710 <_vfiprintf_r+0x1d0>
 800a708:	2b00      	cmp	r3, #0
 800a70a:	d0c6      	beq.n	800a69a <_vfiprintf_r+0x15a>
 800a70c:	9105      	str	r1, [sp, #20]
 800a70e:	e7c4      	b.n	800a69a <_vfiprintf_r+0x15a>
 800a710:	4604      	mov	r4, r0
 800a712:	2301      	movs	r3, #1
 800a714:	fb0c 2101 	mla	r1, ip, r1, r2
 800a718:	e7f0      	b.n	800a6fc <_vfiprintf_r+0x1bc>
 800a71a:	ab03      	add	r3, sp, #12
 800a71c:	9300      	str	r3, [sp, #0]
 800a71e:	462a      	mov	r2, r5
 800a720:	4630      	mov	r0, r6
 800a722:	4b13      	ldr	r3, [pc, #76]	; (800a770 <_vfiprintf_r+0x230>)
 800a724:	a904      	add	r1, sp, #16
 800a726:	f7fd fd27 	bl	8008178 <_printf_float>
 800a72a:	4607      	mov	r7, r0
 800a72c:	1c78      	adds	r0, r7, #1
 800a72e:	d1d6      	bne.n	800a6de <_vfiprintf_r+0x19e>
 800a730:	6e6b      	ldr	r3, [r5, #100]	; 0x64
 800a732:	07d9      	lsls	r1, r3, #31
 800a734:	d405      	bmi.n	800a742 <_vfiprintf_r+0x202>
 800a736:	89ab      	ldrh	r3, [r5, #12]
 800a738:	059a      	lsls	r2, r3, #22
 800a73a:	d402      	bmi.n	800a742 <_vfiprintf_r+0x202>
 800a73c:	6da8      	ldr	r0, [r5, #88]	; 0x58
 800a73e:	f7fe fa80 	bl	8008c42 <__retarget_lock_release_recursive>
 800a742:	89ab      	ldrh	r3, [r5, #12]
 800a744:	065b      	lsls	r3, r3, #25
 800a746:	f53f af1d 	bmi.w	800a584 <_vfiprintf_r+0x44>
 800a74a:	9809      	ldr	r0, [sp, #36]	; 0x24
 800a74c:	e71c      	b.n	800a588 <_vfiprintf_r+0x48>
 800a74e:	ab03      	add	r3, sp, #12
 800a750:	9300      	str	r3, [sp, #0]
 800a752:	462a      	mov	r2, r5
 800a754:	4630      	mov	r0, r6
 800a756:	4b06      	ldr	r3, [pc, #24]	; (800a770 <_vfiprintf_r+0x230>)
 800a758:	a904      	add	r1, sp, #16
 800a75a:	f7fd ffad 	bl	80086b8 <_printf_i>
 800a75e:	e7e4      	b.n	800a72a <_vfiprintf_r+0x1ea>
 800a760:	0800dc44 	.word	0x0800dc44
 800a764:	0800dc4a 	.word	0x0800dc4a
 800a768:	0800dc4e 	.word	0x0800dc4e
 800a76c:	08008179 	.word	0x08008179
 800a770:	0800a51b 	.word	0x0800a51b

0800a774 <__sflush_r>:
 800a774:	898a      	ldrh	r2, [r1, #12]
 800a776:	b5f8      	push	{r3, r4, r5, r6, r7, lr}
 800a778:	4605      	mov	r5, r0
 800a77a:	0710      	lsls	r0, r2, #28
 800a77c:	460c      	mov	r4, r1
 800a77e:	d457      	bmi.n	800a830 <__sflush_r+0xbc>
 800a780:	684b      	ldr	r3, [r1, #4]
 800a782:	2b00      	cmp	r3, #0
 800a784:	dc04      	bgt.n	800a790 <__sflush_r+0x1c>
 800a786:	6c0b      	ldr	r3, [r1, #64]	; 0x40
 800a788:	2b00      	cmp	r3, #0
 800a78a:	dc01      	bgt.n	800a790 <__sflush_r+0x1c>
 800a78c:	2000      	movs	r0, #0
 800a78e:	bdf8      	pop	{r3, r4, r5, r6, r7, pc}
 800a790:	6ae6      	ldr	r6, [r4, #44]	; 0x2c
 800a792:	2e00      	cmp	r6, #0
 800a794:	d0fa      	beq.n	800a78c <__sflush_r+0x18>
 800a796:	2300      	movs	r3, #0
 800a798:	f412 5280 	ands.w	r2, r2, #4096	; 0x1000
 800a79c:	682f      	ldr	r7, [r5, #0]
 800a79e:	6a21      	ldr	r1, [r4, #32]
 800a7a0:	602b      	str	r3, [r5, #0]
 800a7a2:	d032      	beq.n	800a80a <__sflush_r+0x96>
 800a7a4:	6d60      	ldr	r0, [r4, #84]	; 0x54
 800a7a6:	89a3      	ldrh	r3, [r4, #12]
 800a7a8:	075a      	lsls	r2, r3, #29
 800a7aa:	d505      	bpl.n	800a7b8 <__sflush_r+0x44>
 800a7ac:	6863      	ldr	r3, [r4, #4]
 800a7ae:	1ac0      	subs	r0, r0, r3
 800a7b0:	6b63      	ldr	r3, [r4, #52]	; 0x34
 800a7b2:	b10b      	cbz	r3, 800a7b8 <__sflush_r+0x44>
 800a7b4:	6c23      	ldr	r3, [r4, #64]	; 0x40
 800a7b6:	1ac0      	subs	r0, r0, r3
 800a7b8:	2300      	movs	r3, #0
 800a7ba:	4602      	mov	r2, r0
 800a7bc:	6ae6      	ldr	r6, [r4, #44]	; 0x2c
 800a7be:	4628      	mov	r0, r5
 800a7c0:	6a21      	ldr	r1, [r4, #32]
 800a7c2:	47b0      	blx	r6
 800a7c4:	1c43      	adds	r3, r0, #1
 800a7c6:	89a3      	ldrh	r3, [r4, #12]
 800a7c8:	d106      	bne.n	800a7d8 <__sflush_r+0x64>
 800a7ca:	6829      	ldr	r1, [r5, #0]
 800a7cc:	291d      	cmp	r1, #29
 800a7ce:	d82b      	bhi.n	800a828 <__sflush_r+0xb4>
 800a7d0:	4a28      	ldr	r2, [pc, #160]	; (800a874 <__sflush_r+0x100>)
 800a7d2:	410a      	asrs	r2, r1
 800a7d4:	07d6      	lsls	r6, r2, #31
 800a7d6:	d427      	bmi.n	800a828 <__sflush_r+0xb4>
 800a7d8:	2200      	movs	r2, #0
 800a7da:	6062      	str	r2, [r4, #4]
 800a7dc:	6922      	ldr	r2, [r4, #16]
 800a7de:	04d9      	lsls	r1, r3, #19
 800a7e0:	6022      	str	r2, [r4, #0]
 800a7e2:	d504      	bpl.n	800a7ee <__sflush_r+0x7a>
 800a7e4:	1c42      	adds	r2, r0, #1
 800a7e6:	d101      	bne.n	800a7ec <__sflush_r+0x78>
 800a7e8:	682b      	ldr	r3, [r5, #0]
 800a7ea:	b903      	cbnz	r3, 800a7ee <__sflush_r+0x7a>
 800a7ec:	6560      	str	r0, [r4, #84]	; 0x54
 800a7ee:	6b61      	ldr	r1, [r4, #52]	; 0x34
 800a7f0:	602f      	str	r7, [r5, #0]
 800a7f2:	2900      	cmp	r1, #0
 800a7f4:	d0ca      	beq.n	800a78c <__sflush_r+0x18>
 800a7f6:	f104 0344 	add.w	r3, r4, #68	; 0x44
 800a7fa:	4299      	cmp	r1, r3
 800a7fc:	d002      	beq.n	800a804 <__sflush_r+0x90>
 800a7fe:	4628      	mov	r0, r5
 800a800:	f7ff f8aa 	bl	8009958 <_free_r>
 800a804:	2000      	movs	r0, #0
 800a806:	6360      	str	r0, [r4, #52]	; 0x34
 800a808:	e7c1      	b.n	800a78e <__sflush_r+0x1a>
 800a80a:	2301      	movs	r3, #1
 800a80c:	4628      	mov	r0, r5
 800a80e:	47b0      	blx	r6
 800a810:	1c41      	adds	r1, r0, #1
 800a812:	d1c8      	bne.n	800a7a6 <__sflush_r+0x32>
 800a814:	682b      	ldr	r3, [r5, #0]
 800a816:	2b00      	cmp	r3, #0
 800a818:	d0c5      	beq.n	800a7a6 <__sflush_r+0x32>
 800a81a:	2b1d      	cmp	r3, #29
 800a81c:	d001      	beq.n	800a822 <__sflush_r+0xae>
 800a81e:	2b16      	cmp	r3, #22
 800a820:	d101      	bne.n	800a826 <__sflush_r+0xb2>
 800a822:	602f      	str	r7, [r5, #0]
 800a824:	e7b2      	b.n	800a78c <__sflush_r+0x18>
 800a826:	89a3      	ldrh	r3, [r4, #12]
 800a828:	f043 0340 	orr.w	r3, r3, #64	; 0x40
 800a82c:	81a3      	strh	r3, [r4, #12]
 800a82e:	e7ae      	b.n	800a78e <__sflush_r+0x1a>
 800a830:	690f      	ldr	r7, [r1, #16]
 800a832:	2f00      	cmp	r7, #0
 800a834:	d0aa      	beq.n	800a78c <__sflush_r+0x18>
 800a836:	0793      	lsls	r3, r2, #30
 800a838:	bf18      	it	ne
 800a83a:	2300      	movne	r3, #0
 800a83c:	680e      	ldr	r6, [r1, #0]
 800a83e:	bf08      	it	eq
 800a840:	694b      	ldreq	r3, [r1, #20]
 800a842:	1bf6      	subs	r6, r6, r7
 800a844:	600f      	str	r7, [r1, #0]
 800a846:	608b      	str	r3, [r1, #8]
 800a848:	2e00      	cmp	r6, #0
 800a84a:	dd9f      	ble.n	800a78c <__sflush_r+0x18>
 800a84c:	4633      	mov	r3, r6
 800a84e:	463a      	mov	r2, r7
 800a850:	4628      	mov	r0, r5
 800a852:	6a21      	ldr	r1, [r4, #32]
 800a854:	f8d4 c028 	ldr.w	ip, [r4, #40]	; 0x28
 800a858:	47e0      	blx	ip
 800a85a:	2800      	cmp	r0, #0
 800a85c:	dc06      	bgt.n	800a86c <__sflush_r+0xf8>
 800a85e:	89a3      	ldrh	r3, [r4, #12]
 800a860:	f04f 30ff 	mov.w	r0, #4294967295
 800a864:	f043 0340 	orr.w	r3, r3, #64	; 0x40
 800a868:	81a3      	strh	r3, [r4, #12]
 800a86a:	e790      	b.n	800a78e <__sflush_r+0x1a>
 800a86c:	4407      	add	r7, r0
 800a86e:	1a36      	subs	r6, r6, r0
 800a870:	e7ea      	b.n	800a848 <__sflush_r+0xd4>
 800a872:	bf00      	nop
 800a874:	dfbffffe 	.word	0xdfbffffe

0800a878 <_fflush_r>:
 800a878:	b538      	push	{r3, r4, r5, lr}
 800a87a:	690b      	ldr	r3, [r1, #16]
 800a87c:	4605      	mov	r5, r0
 800a87e:	460c      	mov	r4, r1
 800a880:	b913      	cbnz	r3, 800a888 <_fflush_r+0x10>
 800a882:	2500      	movs	r5, #0
 800a884:	4628      	mov	r0, r5
 800a886:	bd38      	pop	{r3, r4, r5, pc}
 800a888:	b118      	cbz	r0, 800a892 <_fflush_r+0x1a>
 800a88a:	6a03      	ldr	r3, [r0, #32]
 800a88c:	b90b      	cbnz	r3, 800a892 <_fflush_r+0x1a>
 800a88e:	f7fe f8af 	bl	80089f0 <__sinit>
 800a892:	f9b4 300c 	ldrsh.w	r3, [r4, #12]
 800a896:	2b00      	cmp	r3, #0
 800a898:	d0f3      	beq.n	800a882 <_fflush_r+0xa>
 800a89a:	6e62      	ldr	r2, [r4, #100]	; 0x64
 800a89c:	07d0      	lsls	r0, r2, #31
 800a89e:	d404      	bmi.n	800a8aa <_fflush_r+0x32>
 800a8a0:	0599      	lsls	r1, r3, #22
 800a8a2:	d402      	bmi.n	800a8aa <_fflush_r+0x32>
 800a8a4:	6da0      	ldr	r0, [r4, #88]	; 0x58
 800a8a6:	f7fe f9cb 	bl	8008c40 <__retarget_lock_acquire_recursive>
 800a8aa:	4628      	mov	r0, r5
 800a8ac:	4621      	mov	r1, r4
 800a8ae:	f7ff ff61 	bl	800a774 <__sflush_r>
 800a8b2:	6e63      	ldr	r3, [r4, #100]	; 0x64
 800a8b4:	4605      	mov	r5, r0
 800a8b6:	07da      	lsls	r2, r3, #31
 800a8b8:	d4e4      	bmi.n	800a884 <_fflush_r+0xc>
 800a8ba:	89a3      	ldrh	r3, [r4, #12]
 800a8bc:	059b      	lsls	r3, r3, #22
 800a8be:	d4e1      	bmi.n	800a884 <_fflush_r+0xc>
 800a8c0:	6da0      	ldr	r0, [r4, #88]	; 0x58
 800a8c2:	f7fe f9be 	bl	8008c42 <__retarget_lock_release_recursive>
 800a8c6:	e7dd      	b.n	800a884 <_fflush_r+0xc>

0800a8c8 <__swbuf_r>:
 800a8c8:	b5f8      	push	{r3, r4, r5, r6, r7, lr}
 800a8ca:	460e      	mov	r6, r1
 800a8cc:	4614      	mov	r4, r2
 800a8ce:	4605      	mov	r5, r0
 800a8d0:	b118      	cbz	r0, 800a8da <__swbuf_r+0x12>
 800a8d2:	6a03      	ldr	r3, [r0, #32]
 800a8d4:	b90b      	cbnz	r3, 800a8da <__swbuf_r+0x12>
 800a8d6:	f7fe f88b 	bl	80089f0 <__sinit>
 800a8da:	69a3      	ldr	r3, [r4, #24]
 800a8dc:	60a3      	str	r3, [r4, #8]
 800a8de:	89a3      	ldrh	r3, [r4, #12]
 800a8e0:	071a      	lsls	r2, r3, #28
 800a8e2:	d525      	bpl.n	800a930 <__swbuf_r+0x68>
 800a8e4:	6923      	ldr	r3, [r4, #16]
 800a8e6:	b31b      	cbz	r3, 800a930 <__swbuf_r+0x68>
 800a8e8:	6823      	ldr	r3, [r4, #0]
 800a8ea:	6922      	ldr	r2, [r4, #16]
 800a8ec:	b2f6      	uxtb	r6, r6
 800a8ee:	1a98      	subs	r0, r3, r2
 800a8f0:	6963      	ldr	r3, [r4, #20]
 800a8f2:	4637      	mov	r7, r6
 800a8f4:	4283      	cmp	r3, r0
 800a8f6:	dc04      	bgt.n	800a902 <__swbuf_r+0x3a>
 800a8f8:	4621      	mov	r1, r4
 800a8fa:	4628      	mov	r0, r5
 800a8fc:	f7ff ffbc 	bl	800a878 <_fflush_r>
 800a900:	b9e0      	cbnz	r0, 800a93c <__swbuf_r+0x74>
 800a902:	68a3      	ldr	r3, [r4, #8]
 800a904:	3b01      	subs	r3, #1
 800a906:	60a3      	str	r3, [r4, #8]
 800a908:	6823      	ldr	r3, [r4, #0]
 800a90a:	1c5a      	adds	r2, r3, #1
 800a90c:	6022      	str	r2, [r4, #0]
 800a90e:	701e      	strb	r6, [r3, #0]
 800a910:	6962      	ldr	r2, [r4, #20]
 800a912:	1c43      	adds	r3, r0, #1
 800a914:	429a      	cmp	r2, r3
 800a916:	d004      	beq.n	800a922 <__swbuf_r+0x5a>
 800a918:	89a3      	ldrh	r3, [r4, #12]
 800a91a:	07db      	lsls	r3, r3, #31
 800a91c:	d506      	bpl.n	800a92c <__swbuf_r+0x64>
 800a91e:	2e0a      	cmp	r6, #10
 800a920:	d104      	bne.n	800a92c <__swbuf_r+0x64>
 800a922:	4621      	mov	r1, r4
 800a924:	4628      	mov	r0, r5
 800a926:	f7ff ffa7 	bl	800a878 <_fflush_r>
 800a92a:	b938      	cbnz	r0, 800a93c <__swbuf_r+0x74>
 800a92c:	4638      	mov	r0, r7
 800a92e:	bdf8      	pop	{r3, r4, r5, r6, r7, pc}
 800a930:	4621      	mov	r1, r4
 800a932:	4628      	mov	r0, r5
 800a934:	f000 f806 	bl	800a944 <__swsetup_r>
 800a938:	2800      	cmp	r0, #0
 800a93a:	d0d5      	beq.n	800a8e8 <__swbuf_r+0x20>
 800a93c:	f04f 37ff 	mov.w	r7, #4294967295
 800a940:	e7f4      	b.n	800a92c <__swbuf_r+0x64>
	...

0800a944 <__swsetup_r>:
 800a944:	b538      	push	{r3, r4, r5, lr}
 800a946:	4b2a      	ldr	r3, [pc, #168]	; (800a9f0 <__swsetup_r+0xac>)
 800a948:	4605      	mov	r5, r0
 800a94a:	6818      	ldr	r0, [r3, #0]
 800a94c:	460c      	mov	r4, r1
 800a94e:	b118      	cbz	r0, 800a958 <__swsetup_r+0x14>
 800a950:	6a03      	ldr	r3, [r0, #32]
 800a952:	b90b      	cbnz	r3, 800a958 <__swsetup_r+0x14>
 800a954:	f7fe f84c 	bl	80089f0 <__sinit>
 800a958:	89a3      	ldrh	r3, [r4, #12]
 800a95a:	f9b4 200c 	ldrsh.w	r2, [r4, #12]
 800a95e:	0718      	lsls	r0, r3, #28
 800a960:	d422      	bmi.n	800a9a8 <__swsetup_r+0x64>
 800a962:	06d9      	lsls	r1, r3, #27
 800a964:	d407      	bmi.n	800a976 <__swsetup_r+0x32>
 800a966:	2309      	movs	r3, #9
 800a968:	602b      	str	r3, [r5, #0]
 800a96a:	f042 0340 	orr.w	r3, r2, #64	; 0x40
 800a96e:	f04f 30ff 	mov.w	r0, #4294967295
 800a972:	81a3      	strh	r3, [r4, #12]
 800a974:	e034      	b.n	800a9e0 <__swsetup_r+0x9c>
 800a976:	0758      	lsls	r0, r3, #29
 800a978:	d512      	bpl.n	800a9a0 <__swsetup_r+0x5c>
 800a97a:	6b61      	ldr	r1, [r4, #52]	; 0x34
 800a97c:	b141      	cbz	r1, 800a990 <__swsetup_r+0x4c>
 800a97e:	f104 0344 	add.w	r3, r4, #68	; 0x44
 800a982:	4299      	cmp	r1, r3
 800a984:	d002      	beq.n	800a98c <__swsetup_r+0x48>
 800a986:	4628      	mov	r0, r5
 800a988:	f7fe ffe6 	bl	8009958 <_free_r>
 800a98c:	2300      	movs	r3, #0
 800a98e:	6363      	str	r3, [r4, #52]	; 0x34
 800a990:	89a3      	ldrh	r3, [r4, #12]
 800a992:	f023 0324 	bic.w	r3, r3, #36	; 0x24
 800a996:	81a3      	strh	r3, [r4, #12]
 800a998:	2300      	movs	r3, #0
 800a99a:	6063      	str	r3, [r4, #4]
 800a99c:	6923      	ldr	r3, [r4, #16]
 800a99e:	6023      	str	r3, [r4, #0]
 800a9a0:	89a3      	ldrh	r3, [r4, #12]
 800a9a2:	f043 0308 	orr.w	r3, r3, #8
 800a9a6:	81a3      	strh	r3, [r4, #12]
 800a9a8:	6923      	ldr	r3, [r4, #16]
 800a9aa:	b94b      	cbnz	r3, 800a9c0 <__swsetup_r+0x7c>
 800a9ac:	89a3      	ldrh	r3, [r4, #12]
 800a9ae:	f403 7320 	and.w	r3, r3, #640	; 0x280
 800a9b2:	f5b3 7f00 	cmp.w	r3, #512	; 0x200
 800a9b6:	d003      	beq.n	800a9c0 <__swsetup_r+0x7c>
 800a9b8:	4621      	mov	r1, r4
 800a9ba:	4628      	mov	r0, r5
 800a9bc:	f000 f8fb 	bl	800abb6 <__smakebuf_r>
 800a9c0:	89a0      	ldrh	r0, [r4, #12]
 800a9c2:	f9b4 200c 	ldrsh.w	r2, [r4, #12]
 800a9c6:	f010 0301 	ands.w	r3, r0, #1
 800a9ca:	d00a      	beq.n	800a9e2 <__swsetup_r+0x9e>
 800a9cc:	2300      	movs	r3, #0
 800a9ce:	60a3      	str	r3, [r4, #8]
 800a9d0:	6963      	ldr	r3, [r4, #20]
 800a9d2:	425b      	negs	r3, r3
 800a9d4:	61a3      	str	r3, [r4, #24]
 800a9d6:	6923      	ldr	r3, [r4, #16]
 800a9d8:	b943      	cbnz	r3, 800a9ec <__swsetup_r+0xa8>
 800a9da:	f010 0080 	ands.w	r0, r0, #128	; 0x80
 800a9de:	d1c4      	bne.n	800a96a <__swsetup_r+0x26>
 800a9e0:	bd38      	pop	{r3, r4, r5, pc}
 800a9e2:	0781      	lsls	r1, r0, #30
 800a9e4:	bf58      	it	pl
 800a9e6:	6963      	ldrpl	r3, [r4, #20]
 800a9e8:	60a3      	str	r3, [r4, #8]
 800a9ea:	e7f4      	b.n	800a9d6 <__swsetup_r+0x92>
 800a9ec:	2000      	movs	r0, #0
 800a9ee:	e7f7      	b.n	800a9e0 <__swsetup_r+0x9c>
 800a9f0:	20000098 	.word	0x20000098

0800a9f4 <memmove>:
 800a9f4:	4288      	cmp	r0, r1
 800a9f6:	b510      	push	{r4, lr}
 800a9f8:	eb01 0402 	add.w	r4, r1, r2
 800a9fc:	d902      	bls.n	800aa04 <memmove+0x10>
 800a9fe:	4284      	cmp	r4, r0
 800aa00:	4623      	mov	r3, r4
 800aa02:	d807      	bhi.n	800aa14 <memmove+0x20>
 800aa04:	1e43      	subs	r3, r0, #1
 800aa06:	42a1      	cmp	r1, r4
 800aa08:	d008      	beq.n	800aa1c <memmove+0x28>
 800aa0a:	f811 2b01 	ldrb.w	r2, [r1], #1
 800aa0e:	f803 2f01 	strb.w	r2, [r3, #1]!
 800aa12:	e7f8      	b.n	800aa06 <memmove+0x12>
 800aa14:	4601      	mov	r1, r0
 800aa16:	4402      	add	r2, r0
 800aa18:	428a      	cmp	r2, r1
 800aa1a:	d100      	bne.n	800aa1e <memmove+0x2a>
 800aa1c:	bd10      	pop	{r4, pc}
 800aa1e:	f813 4d01 	ldrb.w	r4, [r3, #-1]!
 800aa22:	f802 4d01 	strb.w	r4, [r2, #-1]!
 800aa26:	e7f7      	b.n	800aa18 <memmove+0x24>

0800aa28 <_sbrk_r>:
 800aa28:	b538      	push	{r3, r4, r5, lr}
 800aa2a:	2300      	movs	r3, #0
 800aa2c:	4d05      	ldr	r5, [pc, #20]	; (800aa44 <_sbrk_r+0x1c>)
 800aa2e:	4604      	mov	r4, r0
 800aa30:	4608      	mov	r0, r1
 800aa32:	602b      	str	r3, [r5, #0]
 800aa34:	f7f8 fc1c 	bl	8003270 <_sbrk>
 800aa38:	1c43      	adds	r3, r0, #1
 800aa3a:	d102      	bne.n	800aa42 <_sbrk_r+0x1a>
 800aa3c:	682b      	ldr	r3, [r5, #0]
 800aa3e:	b103      	cbz	r3, 800aa42 <_sbrk_r+0x1a>
 800aa40:	6023      	str	r3, [r4, #0]
 800aa42:	bd38      	pop	{r3, r4, r5, pc}
 800aa44:	20002970 	.word	0x20002970

0800aa48 <__assert_func>:
 800aa48:	b51f      	push	{r0, r1, r2, r3, r4, lr}
 800aa4a:	4614      	mov	r4, r2
 800aa4c:	461a      	mov	r2, r3
 800aa4e:	4b09      	ldr	r3, [pc, #36]	; (800aa74 <__assert_func+0x2c>)
 800aa50:	4605      	mov	r5, r0
 800aa52:	681b      	ldr	r3, [r3, #0]
 800aa54:	68d8      	ldr	r0, [r3, #12]
 800aa56:	b14c      	cbz	r4, 800aa6c <__assert_func+0x24>
 800aa58:	4b07      	ldr	r3, [pc, #28]	; (800aa78 <__assert_func+0x30>)
 800aa5a:	e9cd 3401 	strd	r3, r4, [sp, #4]
 800aa5e:	9100      	str	r1, [sp, #0]
 800aa60:	462b      	mov	r3, r5
 800aa62:	4906      	ldr	r1, [pc, #24]	; (800aa7c <__assert_func+0x34>)
 800aa64:	f000 f870 	bl	800ab48 <fiprintf>
 800aa68:	f000 f904 	bl	800ac74 <abort>
 800aa6c:	4b04      	ldr	r3, [pc, #16]	; (800aa80 <__assert_func+0x38>)
 800aa6e:	461c      	mov	r4, r3
 800aa70:	e7f3      	b.n	800aa5a <__assert_func+0x12>
 800aa72:	bf00      	nop
 800aa74:	20000098 	.word	0x20000098
 800aa78:	0800dc5f 	.word	0x0800dc5f
 800aa7c:	0800dc6c 	.word	0x0800dc6c
 800aa80:	0800d45c 	.word	0x0800d45c

0800aa84 <_calloc_r>:
 800aa84:	b570      	push	{r4, r5, r6, lr}
 800aa86:	fba1 5402 	umull	r5, r4, r1, r2
 800aa8a:	b934      	cbnz	r4, 800aa9a <_calloc_r+0x16>
 800aa8c:	4629      	mov	r1, r5
 800aa8e:	f7fe ffd3 	bl	8009a38 <_malloc_r>
 800aa92:	4606      	mov	r6, r0
 800aa94:	b928      	cbnz	r0, 800aaa2 <_calloc_r+0x1e>
 800aa96:	4630      	mov	r0, r6
 800aa98:	bd70      	pop	{r4, r5, r6, pc}
 800aa9a:	220c      	movs	r2, #12
 800aa9c:	2600      	movs	r6, #0
 800aa9e:	6002      	str	r2, [r0, #0]
 800aaa0:	e7f9      	b.n	800aa96 <_calloc_r+0x12>
 800aaa2:	462a      	mov	r2, r5
 800aaa4:	4621      	mov	r1, r4
 800aaa6:	f7fe f84e 	bl	8008b46 <memset>
 800aaaa:	e7f4      	b.n	800aa96 <_calloc_r+0x12>

0800aaac <__ascii_mbtowc>:
 800aaac:	b082      	sub	sp, #8
 800aaae:	b901      	cbnz	r1, 800aab2 <__ascii_mbtowc+0x6>
 800aab0:	a901      	add	r1, sp, #4
 800aab2:	b142      	cbz	r2, 800aac6 <__ascii_mbtowc+0x1a>
 800aab4:	b14b      	cbz	r3, 800aaca <__ascii_mbtowc+0x1e>
 800aab6:	7813      	ldrb	r3, [r2, #0]
 800aab8:	600b      	str	r3, [r1, #0]
 800aaba:	7812      	ldrb	r2, [r2, #0]
 800aabc:	1e10      	subs	r0, r2, #0
 800aabe:	bf18      	it	ne
 800aac0:	2001      	movne	r0, #1
 800aac2:	b002      	add	sp, #8
 800aac4:	4770      	bx	lr
 800aac6:	4610      	mov	r0, r2
 800aac8:	e7fb      	b.n	800aac2 <__ascii_mbtowc+0x16>
 800aaca:	f06f 0001 	mvn.w	r0, #1
 800aace:	e7f8      	b.n	800aac2 <__ascii_mbtowc+0x16>

0800aad0 <_realloc_r>:
 800aad0:	e92d 41f0 	stmdb	sp!, {r4, r5, r6, r7, r8, lr}
 800aad4:	4680      	mov	r8, r0
 800aad6:	4614      	mov	r4, r2
 800aad8:	460e      	mov	r6, r1
 800aada:	b921      	cbnz	r1, 800aae6 <_realloc_r+0x16>
 800aadc:	4611      	mov	r1, r2
 800aade:	e8bd 41f0 	ldmia.w	sp!, {r4, r5, r6, r7, r8, lr}
 800aae2:	f7fe bfa9 	b.w	8009a38 <_malloc_r>
 800aae6:	b92a      	cbnz	r2, 800aaf4 <_realloc_r+0x24>
 800aae8:	f7fe ff36 	bl	8009958 <_free_r>
 800aaec:	4625      	mov	r5, r4
 800aaee:	4628      	mov	r0, r5
 800aaf0:	e8bd 81f0 	ldmia.w	sp!, {r4, r5, r6, r7, r8, pc}
 800aaf4:	f000 f8c5 	bl	800ac82 <_malloc_usable_size_r>
 800aaf8:	4284      	cmp	r4, r0
 800aafa:	4607      	mov	r7, r0
 800aafc:	d802      	bhi.n	800ab04 <_realloc_r+0x34>
 800aafe:	ebb4 0f50 	cmp.w	r4, r0, lsr #1
 800ab02:	d812      	bhi.n	800ab2a <_realloc_r+0x5a>
 800ab04:	4621      	mov	r1, r4
 800ab06:	4640      	mov	r0, r8
 800ab08:	f7fe ff96 	bl	8009a38 <_malloc_r>
 800ab0c:	4605      	mov	r5, r0
 800ab0e:	2800      	cmp	r0, #0
 800ab10:	d0ed      	beq.n	800aaee <_realloc_r+0x1e>
 800ab12:	42bc      	cmp	r4, r7
 800ab14:	4622      	mov	r2, r4
 800ab16:	4631      	mov	r1, r6
 800ab18:	bf28      	it	cs
 800ab1a:	463a      	movcs	r2, r7
 800ab1c:	f7fe f8a0 	bl	8008c60 <memcpy>
 800ab20:	4631      	mov	r1, r6
 800ab22:	4640      	mov	r0, r8
 800ab24:	f7fe ff18 	bl	8009958 <_free_r>
 800ab28:	e7e1      	b.n	800aaee <_realloc_r+0x1e>
 800ab2a:	4635      	mov	r5, r6
 800ab2c:	e7df      	b.n	800aaee <_realloc_r+0x1e>

0800ab2e <__ascii_wctomb>:
 800ab2e:	4603      	mov	r3, r0
 800ab30:	4608      	mov	r0, r1
 800ab32:	b141      	cbz	r1, 800ab46 <__ascii_wctomb+0x18>
 800ab34:	2aff      	cmp	r2, #255	; 0xff
 800ab36:	d904      	bls.n	800ab42 <__ascii_wctomb+0x14>
 800ab38:	228a      	movs	r2, #138	; 0x8a
 800ab3a:	f04f 30ff 	mov.w	r0, #4294967295
 800ab3e:	601a      	str	r2, [r3, #0]
 800ab40:	4770      	bx	lr
 800ab42:	2001      	movs	r0, #1
 800ab44:	700a      	strb	r2, [r1, #0]
 800ab46:	4770      	bx	lr

0800ab48 <fiprintf>:
 800ab48:	b40e      	push	{r1, r2, r3}
 800ab4a:	b503      	push	{r0, r1, lr}
 800ab4c:	4601      	mov	r1, r0
 800ab4e:	ab03      	add	r3, sp, #12
 800ab50:	4805      	ldr	r0, [pc, #20]	; (800ab68 <fiprintf+0x20>)
 800ab52:	f853 2b04 	ldr.w	r2, [r3], #4
 800ab56:	6800      	ldr	r0, [r0, #0]
 800ab58:	9301      	str	r3, [sp, #4]
 800ab5a:	f7ff fcf1 	bl	800a540 <_vfiprintf_r>
 800ab5e:	b002      	add	sp, #8
 800ab60:	f85d eb04 	ldr.w	lr, [sp], #4
 800ab64:	b003      	add	sp, #12
 800ab66:	4770      	bx	lr
 800ab68:	20000098 	.word	0x20000098

0800ab6c <__swhatbuf_r>:
 800ab6c:	b570      	push	{r4, r5, r6, lr}
 800ab6e:	460c      	mov	r4, r1
 800ab70:	f9b1 100e 	ldrsh.w	r1, [r1, #14]
 800ab74:	4615      	mov	r5, r2
 800ab76:	2900      	cmp	r1, #0
 800ab78:	461e      	mov	r6, r3
 800ab7a:	b096      	sub	sp, #88	; 0x58
 800ab7c:	da0c      	bge.n	800ab98 <__swhatbuf_r+0x2c>
 800ab7e:	89a3      	ldrh	r3, [r4, #12]
 800ab80:	2100      	movs	r1, #0
 800ab82:	f013 0f80 	tst.w	r3, #128	; 0x80
 800ab86:	bf0c      	ite	eq
 800ab88:	f44f 6380 	moveq.w	r3, #1024	; 0x400
 800ab8c:	2340      	movne	r3, #64	; 0x40
 800ab8e:	2000      	movs	r0, #0
 800ab90:	6031      	str	r1, [r6, #0]
 800ab92:	602b      	str	r3, [r5, #0]
 800ab94:	b016      	add	sp, #88	; 0x58
 800ab96:	bd70      	pop	{r4, r5, r6, pc}
 800ab98:	466a      	mov	r2, sp
 800ab9a:	f000 f849 	bl	800ac30 <_fstat_r>
 800ab9e:	2800      	cmp	r0, #0
 800aba0:	dbed      	blt.n	800ab7e <__swhatbuf_r+0x12>
 800aba2:	9901      	ldr	r1, [sp, #4]
 800aba4:	f401 4170 	and.w	r1, r1, #61440	; 0xf000
 800aba8:	f5a1 5300 	sub.w	r3, r1, #8192	; 0x2000
 800abac:	4259      	negs	r1, r3
 800abae:	4159      	adcs	r1, r3
 800abb0:	f44f 6380 	mov.w	r3, #1024	; 0x400
 800abb4:	e7eb      	b.n	800ab8e <__swhatbuf_r+0x22>

0800abb6 <__smakebuf_r>:
 800abb6:	898b      	ldrh	r3, [r1, #12]
 800abb8:	b573      	push	{r0, r1, r4, r5, r6, lr}
 800abba:	079d      	lsls	r5, r3, #30
 800abbc:	4606      	mov	r6, r0
 800abbe:	460c      	mov	r4, r1
 800abc0:	d507      	bpl.n	800abd2 <__smakebuf_r+0x1c>
 800abc2:	f104 0347 	add.w	r3, r4, #71	; 0x47
 800abc6:	6023      	str	r3, [r4, #0]
 800abc8:	6123      	str	r3, [r4, #16]
 800abca:	2301      	movs	r3, #1
 800abcc:	6163      	str	r3, [r4, #20]
 800abce:	b002      	add	sp, #8
 800abd0:	bd70      	pop	{r4, r5, r6, pc}
 800abd2:	466a      	mov	r2, sp
 800abd4:	ab01      	add	r3, sp, #4
 800abd6:	f7ff ffc9 	bl	800ab6c <__swhatbuf_r>
 800abda:	9900      	ldr	r1, [sp, #0]
 800abdc:	4605      	mov	r5, r0
 800abde:	4630      	mov	r0, r6
 800abe0:	f7fe ff2a 	bl	8009a38 <_malloc_r>
 800abe4:	b948      	cbnz	r0, 800abfa <__smakebuf_r+0x44>
 800abe6:	f9b4 300c 	ldrsh.w	r3, [r4, #12]
 800abea:	059a      	lsls	r2, r3, #22
 800abec:	d4ef      	bmi.n	800abce <__smakebuf_r+0x18>
 800abee:	f023 0303 	bic.w	r3, r3, #3
 800abf2:	f043 0302 	orr.w	r3, r3, #2
 800abf6:	81a3      	strh	r3, [r4, #12]
 800abf8:	e7e3      	b.n	800abc2 <__smakebuf_r+0xc>
 800abfa:	89a3      	ldrh	r3, [r4, #12]
 800abfc:	6020      	str	r0, [r4, #0]
 800abfe:	f043 0380 	orr.w	r3, r3, #128	; 0x80
 800ac02:	81a3      	strh	r3, [r4, #12]
 800ac04:	9b00      	ldr	r3, [sp, #0]
 800ac06:	6120      	str	r0, [r4, #16]
 800ac08:	6163      	str	r3, [r4, #20]
 800ac0a:	9b01      	ldr	r3, [sp, #4]
 800ac0c:	b15b      	cbz	r3, 800ac26 <__smakebuf_r+0x70>
 800ac0e:	4630      	mov	r0, r6
 800ac10:	f9b4 100e 	ldrsh.w	r1, [r4, #14]
 800ac14:	f000 f81e 	bl	800ac54 <_isatty_r>
 800ac18:	b128      	cbz	r0, 800ac26 <__smakebuf_r+0x70>
 800ac1a:	89a3      	ldrh	r3, [r4, #12]
 800ac1c:	f023 0303 	bic.w	r3, r3, #3
 800ac20:	f043 0301 	orr.w	r3, r3, #1
 800ac24:	81a3      	strh	r3, [r4, #12]
 800ac26:	89a3      	ldrh	r3, [r4, #12]
 800ac28:	431d      	orrs	r5, r3
 800ac2a:	81a5      	strh	r5, [r4, #12]
 800ac2c:	e7cf      	b.n	800abce <__smakebuf_r+0x18>
	...

0800ac30 <_fstat_r>:
 800ac30:	b538      	push	{r3, r4, r5, lr}
 800ac32:	2300      	movs	r3, #0
 800ac34:	4d06      	ldr	r5, [pc, #24]	; (800ac50 <_fstat_r+0x20>)
 800ac36:	4604      	mov	r4, r0
 800ac38:	4608      	mov	r0, r1
 800ac3a:	4611      	mov	r1, r2
 800ac3c:	602b      	str	r3, [r5, #0]
 800ac3e:	f7f8 fb0e 	bl	800325e <_fstat>
 800ac42:	1c43      	adds	r3, r0, #1
 800ac44:	d102      	bne.n	800ac4c <_fstat_r+0x1c>
 800ac46:	682b      	ldr	r3, [r5, #0]
 800ac48:	b103      	cbz	r3, 800ac4c <_fstat_r+0x1c>
 800ac4a:	6023      	str	r3, [r4, #0]
 800ac4c:	bd38      	pop	{r3, r4, r5, pc}
 800ac4e:	bf00      	nop
 800ac50:	20002970 	.word	0x20002970

0800ac54 <_isatty_r>:
 800ac54:	b538      	push	{r3, r4, r5, lr}
 800ac56:	2300      	movs	r3, #0
 800ac58:	4d05      	ldr	r5, [pc, #20]	; (800ac70 <_isatty_r+0x1c>)
 800ac5a:	4604      	mov	r4, r0
 800ac5c:	4608      	mov	r0, r1
 800ac5e:	602b      	str	r3, [r5, #0]
 800ac60:	f7f8 fb02 	bl	8003268 <_isatty>
 800ac64:	1c43      	adds	r3, r0, #1
 800ac66:	d102      	bne.n	800ac6e <_isatty_r+0x1a>
 800ac68:	682b      	ldr	r3, [r5, #0]
 800ac6a:	b103      	cbz	r3, 800ac6e <_isatty_r+0x1a>
 800ac6c:	6023      	str	r3, [r4, #0]
 800ac6e:	bd38      	pop	{r3, r4, r5, pc}
 800ac70:	20002970 	.word	0x20002970

0800ac74 <abort>:
 800ac74:	2006      	movs	r0, #6
 800ac76:	b508      	push	{r3, lr}
 800ac78:	f000 f834 	bl	800ace4 <raise>
 800ac7c:	2001      	movs	r0, #1
 800ac7e:	f7f8 fac9 	bl	8003214 <_exit>

0800ac82 <_malloc_usable_size_r>:
 800ac82:	f851 3c04 	ldr.w	r3, [r1, #-4]
 800ac86:	1f18      	subs	r0, r3, #4
 800ac88:	2b00      	cmp	r3, #0
 800ac8a:	bfbc      	itt	lt
 800ac8c:	580b      	ldrlt	r3, [r1, r0]
 800ac8e:	18c0      	addlt	r0, r0, r3
 800ac90:	4770      	bx	lr

0800ac92 <_raise_r>:
 800ac92:	291f      	cmp	r1, #31
 800ac94:	b538      	push	{r3, r4, r5, lr}
 800ac96:	4604      	mov	r4, r0
 800ac98:	460d      	mov	r5, r1
 800ac9a:	d904      	bls.n	800aca6 <_raise_r+0x14>
 800ac9c:	2316      	movs	r3, #22
 800ac9e:	6003      	str	r3, [r0, #0]
 800aca0:	f04f 30ff 	mov.w	r0, #4294967295
 800aca4:	bd38      	pop	{r3, r4, r5, pc}
 800aca6:	6bc2      	ldr	r2, [r0, #60]	; 0x3c
 800aca8:	b112      	cbz	r2, 800acb0 <_raise_r+0x1e>
 800acaa:	f852 3021 	ldr.w	r3, [r2, r1, lsl #2]
 800acae:	b94b      	cbnz	r3, 800acc4 <_raise_r+0x32>
 800acb0:	4620      	mov	r0, r4
 800acb2:	f000 f831 	bl	800ad18 <_getpid_r>
 800acb6:	462a      	mov	r2, r5
 800acb8:	4601      	mov	r1, r0
 800acba:	4620      	mov	r0, r4
 800acbc:	e8bd 4038 	ldmia.w	sp!, {r3, r4, r5, lr}
 800acc0:	f000 b818 	b.w	800acf4 <_kill_r>
 800acc4:	2b01      	cmp	r3, #1
 800acc6:	d00a      	beq.n	800acde <_raise_r+0x4c>
 800acc8:	1c59      	adds	r1, r3, #1
 800acca:	d103      	bne.n	800acd4 <_raise_r+0x42>
 800accc:	2316      	movs	r3, #22
 800acce:	6003      	str	r3, [r0, #0]
 800acd0:	2001      	movs	r0, #1
 800acd2:	e7e7      	b.n	800aca4 <_raise_r+0x12>
 800acd4:	2400      	movs	r4, #0
 800acd6:	4628      	mov	r0, r5
 800acd8:	f842 4025 	str.w	r4, [r2, r5, lsl #2]
 800acdc:	4798      	blx	r3
 800acde:	2000      	movs	r0, #0
 800ace0:	e7e0      	b.n	800aca4 <_raise_r+0x12>
	...

0800ace4 <raise>:
 800ace4:	4b02      	ldr	r3, [pc, #8]	; (800acf0 <raise+0xc>)
 800ace6:	4601      	mov	r1, r0
 800ace8:	6818      	ldr	r0, [r3, #0]
 800acea:	f7ff bfd2 	b.w	800ac92 <_raise_r>
 800acee:	bf00      	nop
 800acf0:	20000098 	.word	0x20000098

0800acf4 <_kill_r>:
 800acf4:	b538      	push	{r3, r4, r5, lr}
 800acf6:	2300      	movs	r3, #0
 800acf8:	4d06      	ldr	r5, [pc, #24]	; (800ad14 <_kill_r+0x20>)
 800acfa:	4604      	mov	r4, r0
 800acfc:	4608      	mov	r0, r1
 800acfe:	4611      	mov	r1, r2
 800ad00:	602b      	str	r3, [r5, #0]
 800ad02:	f7f8 fa7f 	bl	8003204 <_kill>
 800ad06:	1c43      	adds	r3, r0, #1
 800ad08:	d102      	bne.n	800ad10 <_kill_r+0x1c>
 800ad0a:	682b      	ldr	r3, [r5, #0]
 800ad0c:	b103      	cbz	r3, 800ad10 <_kill_r+0x1c>
 800ad0e:	6023      	str	r3, [r4, #0]
 800ad10:	bd38      	pop	{r3, r4, r5, pc}
 800ad12:	bf00      	nop
 800ad14:	20002970 	.word	0x20002970

0800ad18 <_getpid_r>:
 800ad18:	f7f8 ba72 	b.w	8003200 <_getpid>

0800ad1c <acos>:
 800ad1c:	b5f8      	push	{r3, r4, r5, r6, r7, lr}
 800ad1e:	4604      	mov	r4, r0
 800ad20:	460d      	mov	r5, r1
 800ad22:	f000 fc29 	bl	800b578 <__ieee754_acos>
 800ad26:	4622      	mov	r2, r4
 800ad28:	4606      	mov	r6, r0
 800ad2a:	460f      	mov	r7, r1
 800ad2c:	462b      	mov	r3, r5
 800ad2e:	4620      	mov	r0, r4
 800ad30:	4629      	mov	r1, r5
 800ad32:	f7f5 fe6b 	bl	8000a0c <__aeabi_dcmpun>
 800ad36:	b988      	cbnz	r0, 800ad5c <acos+0x40>
 800ad38:	4620      	mov	r0, r4
 800ad3a:	4629      	mov	r1, r5
 800ad3c:	f000 f8e8 	bl	800af10 <fabs>
 800ad40:	2200      	movs	r2, #0
 800ad42:	4b08      	ldr	r3, [pc, #32]	; (800ad64 <acos+0x48>)
 800ad44:	f7f5 fe58 	bl	80009f8 <__aeabi_dcmpgt>
 800ad48:	b140      	cbz	r0, 800ad5c <acos+0x40>
 800ad4a:	f7fd ff4f 	bl	8008bec <__errno>
 800ad4e:	2321      	movs	r3, #33	; 0x21
 800ad50:	6003      	str	r3, [r0, #0]
 800ad52:	4805      	ldr	r0, [pc, #20]	; (800ad68 <acos+0x4c>)
 800ad54:	e8bd 40f8 	ldmia.w	sp!, {r3, r4, r5, r6, r7, lr}
 800ad58:	f000 b946 	b.w	800afe8 <nan>
 800ad5c:	4630      	mov	r0, r6
 800ad5e:	4639      	mov	r1, r7
 800ad60:	bdf8      	pop	{r3, r4, r5, r6, r7, pc}
 800ad62:	bf00      	nop
 800ad64:	3ff00000 	.word	0x3ff00000
 800ad68:	0800d45c 	.word	0x0800d45c

0800ad6c <pow>:
 800ad6c:	e92d 43f8 	stmdb	sp!, {r3, r4, r5, r6, r7, r8, r9, lr}
 800ad70:	4614      	mov	r4, r2
 800ad72:	461d      	mov	r5, r3
 800ad74:	4680      	mov	r8, r0
 800ad76:	4689      	mov	r9, r1
 800ad78:	f000 fe4a 	bl	800ba10 <__ieee754_pow>
 800ad7c:	4622      	mov	r2, r4
 800ad7e:	4606      	mov	r6, r0
 800ad80:	460f      	mov	r7, r1
 800ad82:	462b      	mov	r3, r5
 800ad84:	4620      	mov	r0, r4
 800ad86:	4629      	mov	r1, r5
 800ad88:	f7f5 fe40 	bl	8000a0c <__aeabi_dcmpun>
 800ad8c:	bbc8      	cbnz	r0, 800ae02 <pow+0x96>
 800ad8e:	2200      	movs	r2, #0
 800ad90:	2300      	movs	r3, #0
 800ad92:	4640      	mov	r0, r8
 800ad94:	4649      	mov	r1, r9
 800ad96:	f7f5 fe07 	bl	80009a8 <__aeabi_dcmpeq>
 800ad9a:	b1b8      	cbz	r0, 800adcc <pow+0x60>
 800ad9c:	2200      	movs	r2, #0
 800ad9e:	2300      	movs	r3, #0
 800ada0:	4620      	mov	r0, r4
 800ada2:	4629      	mov	r1, r5
 800ada4:	f7f5 fe00 	bl	80009a8 <__aeabi_dcmpeq>
 800ada8:	2800      	cmp	r0, #0
 800adaa:	d141      	bne.n	800ae30 <pow+0xc4>
 800adac:	4620      	mov	r0, r4
 800adae:	4629      	mov	r1, r5
 800adb0:	f000 f914 	bl	800afdc <finite>
 800adb4:	b328      	cbz	r0, 800ae02 <pow+0x96>
 800adb6:	2200      	movs	r2, #0
 800adb8:	2300      	movs	r3, #0
 800adba:	4620      	mov	r0, r4
 800adbc:	4629      	mov	r1, r5
 800adbe:	f7f5 fdfd 	bl	80009bc <__aeabi_dcmplt>
 800adc2:	b1f0      	cbz	r0, 800ae02 <pow+0x96>
 800adc4:	f7fd ff12 	bl	8008bec <__errno>
 800adc8:	2322      	movs	r3, #34	; 0x22
 800adca:	e019      	b.n	800ae00 <pow+0x94>
 800adcc:	4630      	mov	r0, r6
 800adce:	4639      	mov	r1, r7
 800add0:	f000 f904 	bl	800afdc <finite>
 800add4:	b9c8      	cbnz	r0, 800ae0a <pow+0x9e>
 800add6:	4640      	mov	r0, r8
 800add8:	4649      	mov	r1, r9
 800adda:	f000 f8ff 	bl	800afdc <finite>
 800adde:	b1a0      	cbz	r0, 800ae0a <pow+0x9e>
 800ade0:	4620      	mov	r0, r4
 800ade2:	4629      	mov	r1, r5
 800ade4:	f000 f8fa 	bl	800afdc <finite>
 800ade8:	b178      	cbz	r0, 800ae0a <pow+0x9e>
 800adea:	4632      	mov	r2, r6
 800adec:	463b      	mov	r3, r7
 800adee:	4630      	mov	r0, r6
 800adf0:	4639      	mov	r1, r7
 800adf2:	f7f5 fe0b 	bl	8000a0c <__aeabi_dcmpun>
 800adf6:	2800      	cmp	r0, #0
 800adf8:	d0e4      	beq.n	800adc4 <pow+0x58>
 800adfa:	f7fd fef7 	bl	8008bec <__errno>
 800adfe:	2321      	movs	r3, #33	; 0x21
 800ae00:	6003      	str	r3, [r0, #0]
 800ae02:	4630      	mov	r0, r6
 800ae04:	4639      	mov	r1, r7
 800ae06:	e8bd 83f8 	ldmia.w	sp!, {r3, r4, r5, r6, r7, r8, r9, pc}
 800ae0a:	2200      	movs	r2, #0
 800ae0c:	2300      	movs	r3, #0
 800ae0e:	4630      	mov	r0, r6
 800ae10:	4639      	mov	r1, r7
 800ae12:	f7f5 fdc9 	bl	80009a8 <__aeabi_dcmpeq>
 800ae16:	2800      	cmp	r0, #0
 800ae18:	d0f3      	beq.n	800ae02 <pow+0x96>
 800ae1a:	4640      	mov	r0, r8
 800ae1c:	4649      	mov	r1, r9
 800ae1e:	f000 f8dd 	bl	800afdc <finite>
 800ae22:	2800      	cmp	r0, #0
 800ae24:	d0ed      	beq.n	800ae02 <pow+0x96>
 800ae26:	4620      	mov	r0, r4
 800ae28:	4629      	mov	r1, r5
 800ae2a:	f000 f8d7 	bl	800afdc <finite>
 800ae2e:	e7c8      	b.n	800adc2 <pow+0x56>
 800ae30:	2600      	movs	r6, #0
 800ae32:	4f01      	ldr	r7, [pc, #4]	; (800ae38 <pow+0xcc>)
 800ae34:	e7e5      	b.n	800ae02 <pow+0x96>
 800ae36:	bf00      	nop
 800ae38:	3ff00000 	.word	0x3ff00000

0800ae3c <sqrt>:
 800ae3c:	b5f8      	push	{r3, r4, r5, r6, r7, lr}
 800ae3e:	4606      	mov	r6, r0
 800ae40:	460f      	mov	r7, r1
 800ae42:	f000 f8d7 	bl	800aff4 <__ieee754_sqrt>
 800ae46:	4632      	mov	r2, r6
 800ae48:	4604      	mov	r4, r0
 800ae4a:	460d      	mov	r5, r1
 800ae4c:	463b      	mov	r3, r7
 800ae4e:	4630      	mov	r0, r6
 800ae50:	4639      	mov	r1, r7
 800ae52:	f7f5 fddb 	bl	8000a0c <__aeabi_dcmpun>
 800ae56:	b990      	cbnz	r0, 800ae7e <sqrt+0x42>
 800ae58:	2200      	movs	r2, #0
 800ae5a:	2300      	movs	r3, #0
 800ae5c:	4630      	mov	r0, r6
 800ae5e:	4639      	mov	r1, r7
 800ae60:	f7f5 fdac 	bl	80009bc <__aeabi_dcmplt>
 800ae64:	b158      	cbz	r0, 800ae7e <sqrt+0x42>
 800ae66:	f7fd fec1 	bl	8008bec <__errno>
 800ae6a:	2321      	movs	r3, #33	; 0x21
 800ae6c:	2200      	movs	r2, #0
 800ae6e:	6003      	str	r3, [r0, #0]
 800ae70:	2300      	movs	r3, #0
 800ae72:	4610      	mov	r0, r2
 800ae74:	4619      	mov	r1, r3
 800ae76:	f7f5 fc59 	bl	800072c <__aeabi_ddiv>
 800ae7a:	4604      	mov	r4, r0
 800ae7c:	460d      	mov	r5, r1
 800ae7e:	4620      	mov	r0, r4
 800ae80:	4629      	mov	r1, r5
 800ae82:	bdf8      	pop	{r3, r4, r5, r6, r7, pc}

0800ae84 <cos>:
 800ae84:	b530      	push	{r4, r5, lr}
 800ae86:	4a20      	ldr	r2, [pc, #128]	; (800af08 <cos+0x84>)
 800ae88:	f021 4300 	bic.w	r3, r1, #2147483648	; 0x80000000
 800ae8c:	4293      	cmp	r3, r2
 800ae8e:	b087      	sub	sp, #28
 800ae90:	dc06      	bgt.n	800aea0 <cos+0x1c>
 800ae92:	2200      	movs	r2, #0
 800ae94:	2300      	movs	r3, #0
 800ae96:	b007      	add	sp, #28
 800ae98:	e8bd 4030 	ldmia.w	sp!, {r4, r5, lr}
 800ae9c:	f000 b9f4 	b.w	800b288 <__kernel_cos>
 800aea0:	4a1a      	ldr	r2, [pc, #104]	; (800af0c <cos+0x88>)
 800aea2:	4293      	cmp	r3, r2
 800aea4:	dd05      	ble.n	800aeb2 <cos+0x2e>
 800aea6:	4602      	mov	r2, r0
 800aea8:	460b      	mov	r3, r1
 800aeaa:	f7f5 f95d 	bl	8000168 <__aeabi_dsub>
 800aeae:	b007      	add	sp, #28
 800aeb0:	bd30      	pop	{r4, r5, pc}
 800aeb2:	aa02      	add	r2, sp, #8
 800aeb4:	f001 fac4 	bl	800c440 <__ieee754_rem_pio2>
 800aeb8:	f000 0003 	and.w	r0, r0, #3
 800aebc:	2801      	cmp	r0, #1
 800aebe:	d009      	beq.n	800aed4 <cos+0x50>
 800aec0:	2802      	cmp	r0, #2
 800aec2:	d011      	beq.n	800aee8 <cos+0x64>
 800aec4:	b9b8      	cbnz	r0, 800aef6 <cos+0x72>
 800aec6:	e9dd 2304 	ldrd	r2, r3, [sp, #16]
 800aeca:	e9dd 0102 	ldrd	r0, r1, [sp, #8]
 800aece:	f000 f9db 	bl	800b288 <__kernel_cos>
 800aed2:	e7ec      	b.n	800aeae <cos+0x2a>
 800aed4:	9000      	str	r0, [sp, #0]
 800aed6:	e9dd 2304 	ldrd	r2, r3, [sp, #16]
 800aeda:	e9dd 0102 	ldrd	r0, r1, [sp, #8]
 800aede:	f000 fa93 	bl	800b408 <__kernel_sin>
 800aee2:	f101 4100 	add.w	r1, r1, #2147483648	; 0x80000000
 800aee6:	e7e2      	b.n	800aeae <cos+0x2a>
 800aee8:	e9dd 2304 	ldrd	r2, r3, [sp, #16]
 800aeec:	e9dd 0102 	ldrd	r0, r1, [sp, #8]
 800aef0:	f000 f9ca 	bl	800b288 <__kernel_cos>
 800aef4:	e7f5      	b.n	800aee2 <cos+0x5e>
 800aef6:	2301      	movs	r3, #1
 800aef8:	e9dd 0102 	ldrd	r0, r1, [sp, #8]
 800aefc:	9300      	str	r3, [sp, #0]
 800aefe:	e9dd 2304 	ldrd	r2, r3, [sp, #16]
 800af02:	f000 fa81 	bl	800b408 <__kernel_sin>
 800af06:	e7d2      	b.n	800aeae <cos+0x2a>
 800af08:	3fe921fb 	.word	0x3fe921fb
 800af0c:	7fefffff 	.word	0x7fefffff

0800af10 <fabs>:
 800af10:	f021 4300 	bic.w	r3, r1, #2147483648	; 0x80000000
 800af14:	4619      	mov	r1, r3
 800af16:	4770      	bx	lr

0800af18 <sin>:
 800af18:	b530      	push	{r4, r5, lr}
 800af1a:	4a20      	ldr	r2, [pc, #128]	; (800af9c <sin+0x84>)
 800af1c:	f021 4300 	bic.w	r3, r1, #2147483648	; 0x80000000
 800af20:	4293      	cmp	r3, r2
 800af22:	b087      	sub	sp, #28
 800af24:	dc06      	bgt.n	800af34 <sin+0x1c>
 800af26:	2300      	movs	r3, #0
 800af28:	2200      	movs	r2, #0
 800af2a:	9300      	str	r3, [sp, #0]
 800af2c:	2300      	movs	r3, #0
 800af2e:	f000 fa6b 	bl	800b408 <__kernel_sin>
 800af32:	e006      	b.n	800af42 <sin+0x2a>
 800af34:	4a1a      	ldr	r2, [pc, #104]	; (800afa0 <sin+0x88>)
 800af36:	4293      	cmp	r3, r2
 800af38:	dd05      	ble.n	800af46 <sin+0x2e>
 800af3a:	4602      	mov	r2, r0
 800af3c:	460b      	mov	r3, r1
 800af3e:	f7f5 f913 	bl	8000168 <__aeabi_dsub>
 800af42:	b007      	add	sp, #28
 800af44:	bd30      	pop	{r4, r5, pc}
 800af46:	aa02      	add	r2, sp, #8
 800af48:	f001 fa7a 	bl	800c440 <__ieee754_rem_pio2>
 800af4c:	f000 0003 	and.w	r0, r0, #3
 800af50:	2801      	cmp	r0, #1
 800af52:	d009      	beq.n	800af68 <sin+0x50>
 800af54:	2802      	cmp	r0, #2
 800af56:	d00e      	beq.n	800af76 <sin+0x5e>
 800af58:	b9c0      	cbnz	r0, 800af8c <sin+0x74>
 800af5a:	e9dd 0102 	ldrd	r0, r1, [sp, #8]
 800af5e:	2301      	movs	r3, #1
 800af60:	9300      	str	r3, [sp, #0]
 800af62:	e9dd 2304 	ldrd	r2, r3, [sp, #16]
 800af66:	e7e2      	b.n	800af2e <sin+0x16>
 800af68:	e9dd 2304 	ldrd	r2, r3, [sp, #16]
 800af6c:	e9dd 0102 	ldrd	r0, r1, [sp, #8]
 800af70:	f000 f98a 	bl	800b288 <__kernel_cos>
 800af74:	e7e5      	b.n	800af42 <sin+0x2a>
 800af76:	2301      	movs	r3, #1
 800af78:	e9dd 0102 	ldrd	r0, r1, [sp, #8]
 800af7c:	9300      	str	r3, [sp, #0]
 800af7e:	e9dd 2304 	ldrd	r2, r3, [sp, #16]
 800af82:	f000 fa41 	bl	800b408 <__kernel_sin>
 800af86:	f101 4100 	add.w	r1, r1, #2147483648	; 0x80000000
 800af8a:	e7da      	b.n	800af42 <sin+0x2a>
 800af8c:	e9dd 2304 	ldrd	r2, r3, [sp, #16]
 800af90:	e9dd 0102 	ldrd	r0, r1, [sp, #8]
 800af94:	f000 f978 	bl	800b288 <__kernel_cos>
 800af98:	e7f5      	b.n	800af86 <sin+0x6e>
 800af9a:	bf00      	nop
 800af9c:	3fe921fb 	.word	0x3fe921fb
 800afa0:	7fefffff 	.word	0x7fefffff

0800afa4 <atan2f>:
 800afa4:	f001 bc40 	b.w	800c828 <__ieee754_atan2f>

0800afa8 <sqrtf>:
 800afa8:	b538      	push	{r3, r4, r5, lr}
 800afaa:	4605      	mov	r5, r0
 800afac:	f000 f8fa 	bl	800b1a4 <__ieee754_sqrtf>
 800afb0:	4629      	mov	r1, r5
 800afb2:	4604      	mov	r4, r0
 800afb4:	4628      	mov	r0, r5
 800afb6:	f7f6 f8ab 	bl	8001110 <__aeabi_fcmpun>
 800afba:	b968      	cbnz	r0, 800afd8 <sqrtf+0x30>
 800afbc:	2100      	movs	r1, #0
 800afbe:	4628      	mov	r0, r5
 800afc0:	f7f6 f87e 	bl	80010c0 <__aeabi_fcmplt>
 800afc4:	b140      	cbz	r0, 800afd8 <sqrtf+0x30>
 800afc6:	f7fd fe11 	bl	8008bec <__errno>
 800afca:	2321      	movs	r3, #33	; 0x21
 800afcc:	2100      	movs	r1, #0
 800afce:	6003      	str	r3, [r0, #0]
 800afd0:	4608      	mov	r0, r1
 800afd2:	f7f5 ff8b 	bl	8000eec <__aeabi_fdiv>
 800afd6:	4604      	mov	r4, r0
 800afd8:	4620      	mov	r0, r4
 800afda:	bd38      	pop	{r3, r4, r5, pc}

0800afdc <finite>:
 800afdc:	f041 4000 	orr.w	r0, r1, #2147483648	; 0x80000000
 800afe0:	f500 1080 	add.w	r0, r0, #1048576	; 0x100000
 800afe4:	0fc0      	lsrs	r0, r0, #31
 800afe6:	4770      	bx	lr

0800afe8 <nan>:
 800afe8:	2000      	movs	r0, #0
 800afea:	4901      	ldr	r1, [pc, #4]	; (800aff0 <nan+0x8>)
 800afec:	4770      	bx	lr
 800afee:	bf00      	nop
 800aff0:	7ff80000 	.word	0x7ff80000

0800aff4 <__ieee754_sqrt>:
 800aff4:	f8df c1a0 	ldr.w	ip, [pc, #416]	; 800b198 <__ieee754_sqrt+0x1a4>
 800aff8:	e92d 4ff8 	stmdb	sp!, {r3, r4, r5, r6, r7, r8, r9, sl, fp, lr}
 800affc:	ea3c 0c01 	bics.w	ip, ip, r1
 800b000:	460b      	mov	r3, r1
 800b002:	4606      	mov	r6, r0
 800b004:	460d      	mov	r5, r1
 800b006:	460a      	mov	r2, r1
 800b008:	4604      	mov	r4, r0
 800b00a:	d10e      	bne.n	800b02a <__ieee754_sqrt+0x36>
 800b00c:	4602      	mov	r2, r0
 800b00e:	f7f5 fa63 	bl	80004d8 <__aeabi_dmul>
 800b012:	4602      	mov	r2, r0
 800b014:	460b      	mov	r3, r1
 800b016:	4630      	mov	r0, r6
 800b018:	4629      	mov	r1, r5
 800b01a:	f7f5 f8a7 	bl	800016c <__adddf3>
 800b01e:	4606      	mov	r6, r0
 800b020:	460d      	mov	r5, r1
 800b022:	4630      	mov	r0, r6
 800b024:	4629      	mov	r1, r5
 800b026:	e8bd 8ff8 	ldmia.w	sp!, {r3, r4, r5, r6, r7, r8, r9, sl, fp, pc}
 800b02a:	2900      	cmp	r1, #0
 800b02c:	dc0d      	bgt.n	800b04a <__ieee754_sqrt+0x56>
 800b02e:	f021 4c00 	bic.w	ip, r1, #2147483648	; 0x80000000
 800b032:	ea5c 0c00 	orrs.w	ip, ip, r0
 800b036:	d0f4      	beq.n	800b022 <__ieee754_sqrt+0x2e>
 800b038:	b139      	cbz	r1, 800b04a <__ieee754_sqrt+0x56>
 800b03a:	4602      	mov	r2, r0
 800b03c:	f7f5 f894 	bl	8000168 <__aeabi_dsub>
 800b040:	4602      	mov	r2, r0
 800b042:	460b      	mov	r3, r1
 800b044:	f7f5 fb72 	bl	800072c <__aeabi_ddiv>
 800b048:	e7e9      	b.n	800b01e <__ieee754_sqrt+0x2a>
 800b04a:	1512      	asrs	r2, r2, #20
 800b04c:	f000 8089 	beq.w	800b162 <__ieee754_sqrt+0x16e>
 800b050:	2500      	movs	r5, #0
 800b052:	f3c3 0313 	ubfx	r3, r3, #0, #20
 800b056:	f2a2 36ff 	subw	r6, r2, #1023	; 0x3ff
 800b05a:	f443 1380 	orr.w	r3, r3, #1048576	; 0x100000
 800b05e:	07d2      	lsls	r2, r2, #31
 800b060:	bf5c      	itt	pl
 800b062:	005b      	lslpl	r3, r3, #1
 800b064:	eb03 73d4 	addpl.w	r3, r3, r4, lsr #31
 800b068:	ea4f 0343 	mov.w	r3, r3, lsl #1
 800b06c:	bf58      	it	pl
 800b06e:	0064      	lslpl	r4, r4, #1
 800b070:	eb03 73d4 	add.w	r3, r3, r4, lsr #31
 800b074:	0062      	lsls	r2, r4, #1
 800b076:	2016      	movs	r0, #22
 800b078:	4629      	mov	r1, r5
 800b07a:	f44f 1400 	mov.w	r4, #2097152	; 0x200000
 800b07e:	1076      	asrs	r6, r6, #1
 800b080:	190f      	adds	r7, r1, r4
 800b082:	429f      	cmp	r7, r3
 800b084:	bfde      	ittt	le
 800b086:	1bdb      	suble	r3, r3, r7
 800b088:	1939      	addle	r1, r7, r4
 800b08a:	192d      	addle	r5, r5, r4
 800b08c:	005b      	lsls	r3, r3, #1
 800b08e:	3801      	subs	r0, #1
 800b090:	eb03 73d2 	add.w	r3, r3, r2, lsr #31
 800b094:	ea4f 0454 	mov.w	r4, r4, lsr #1
 800b098:	ea4f 0242 	mov.w	r2, r2, lsl #1
 800b09c:	d1f0      	bne.n	800b080 <__ieee754_sqrt+0x8c>
 800b09e:	4604      	mov	r4, r0
 800b0a0:	2720      	movs	r7, #32
 800b0a2:	f04f 4c00 	mov.w	ip, #2147483648	; 0x80000000
 800b0a6:	428b      	cmp	r3, r1
 800b0a8:	eb0c 0e00 	add.w	lr, ip, r0
 800b0ac:	dc02      	bgt.n	800b0b4 <__ieee754_sqrt+0xc0>
 800b0ae:	d113      	bne.n	800b0d8 <__ieee754_sqrt+0xe4>
 800b0b0:	4596      	cmp	lr, r2
 800b0b2:	d811      	bhi.n	800b0d8 <__ieee754_sqrt+0xe4>
 800b0b4:	f1be 0f00 	cmp.w	lr, #0
 800b0b8:	eb0e 000c 	add.w	r0, lr, ip
 800b0bc:	da56      	bge.n	800b16c <__ieee754_sqrt+0x178>
 800b0be:	2800      	cmp	r0, #0
 800b0c0:	db54      	blt.n	800b16c <__ieee754_sqrt+0x178>
 800b0c2:	f101 0801 	add.w	r8, r1, #1
 800b0c6:	1a5b      	subs	r3, r3, r1
 800b0c8:	4641      	mov	r1, r8
 800b0ca:	4596      	cmp	lr, r2
 800b0cc:	bf88      	it	hi
 800b0ce:	f103 33ff 	addhi.w	r3, r3, #4294967295
 800b0d2:	eba2 020e 	sub.w	r2, r2, lr
 800b0d6:	4464      	add	r4, ip
 800b0d8:	005b      	lsls	r3, r3, #1
 800b0da:	3f01      	subs	r7, #1
 800b0dc:	eb03 73d2 	add.w	r3, r3, r2, lsr #31
 800b0e0:	ea4f 0c5c 	mov.w	ip, ip, lsr #1
 800b0e4:	ea4f 0242 	mov.w	r2, r2, lsl #1
 800b0e8:	d1dd      	bne.n	800b0a6 <__ieee754_sqrt+0xb2>
 800b0ea:	4313      	orrs	r3, r2
 800b0ec:	d01b      	beq.n	800b126 <__ieee754_sqrt+0x132>
 800b0ee:	f8df a0ac 	ldr.w	sl, [pc, #172]	; 800b19c <__ieee754_sqrt+0x1a8>
 800b0f2:	f8df b0ac 	ldr.w	fp, [pc, #172]	; 800b1a0 <__ieee754_sqrt+0x1ac>
 800b0f6:	e9da 0100 	ldrd	r0, r1, [sl]
 800b0fa:	e9db 2300 	ldrd	r2, r3, [fp]
 800b0fe:	f7f5 f833 	bl	8000168 <__aeabi_dsub>
 800b102:	e9da 8900 	ldrd	r8, r9, [sl]
 800b106:	4602      	mov	r2, r0
 800b108:	460b      	mov	r3, r1
 800b10a:	4640      	mov	r0, r8
 800b10c:	4649      	mov	r1, r9
 800b10e:	f7f5 fc5f 	bl	80009d0 <__aeabi_dcmple>
 800b112:	b140      	cbz	r0, 800b126 <__ieee754_sqrt+0x132>
 800b114:	e9da 0100 	ldrd	r0, r1, [sl]
 800b118:	e9db 2300 	ldrd	r2, r3, [fp]
 800b11c:	f1b4 3fff 	cmp.w	r4, #4294967295
 800b120:	d126      	bne.n	800b170 <__ieee754_sqrt+0x17c>
 800b122:	463c      	mov	r4, r7
 800b124:	3501      	adds	r5, #1
 800b126:	106b      	asrs	r3, r5, #1
 800b128:	0864      	lsrs	r4, r4, #1
 800b12a:	f103 537f 	add.w	r3, r3, #1069547520	; 0x3fc00000
 800b12e:	07ea      	lsls	r2, r5, #31
 800b130:	f503 1300 	add.w	r3, r3, #2097152	; 0x200000
 800b134:	bf48      	it	mi
 800b136:	f044 4400 	orrmi.w	r4, r4, #2147483648	; 0x80000000
 800b13a:	4620      	mov	r0, r4
 800b13c:	eb03 5106 	add.w	r1, r3, r6, lsl #20
 800b140:	e76d      	b.n	800b01e <__ieee754_sqrt+0x2a>
 800b142:	0ae3      	lsrs	r3, r4, #11
 800b144:	3915      	subs	r1, #21
 800b146:	0564      	lsls	r4, r4, #21
 800b148:	2b00      	cmp	r3, #0
 800b14a:	d0fa      	beq.n	800b142 <__ieee754_sqrt+0x14e>
 800b14c:	02d8      	lsls	r0, r3, #11
 800b14e:	d50a      	bpl.n	800b166 <__ieee754_sqrt+0x172>
 800b150:	f1c2 0020 	rsb	r0, r2, #32
 800b154:	fa24 f000 	lsr.w	r0, r4, r0
 800b158:	1e55      	subs	r5, r2, #1
 800b15a:	4094      	lsls	r4, r2
 800b15c:	4303      	orrs	r3, r0
 800b15e:	1b4a      	subs	r2, r1, r5
 800b160:	e776      	b.n	800b050 <__ieee754_sqrt+0x5c>
 800b162:	4611      	mov	r1, r2
 800b164:	e7f0      	b.n	800b148 <__ieee754_sqrt+0x154>
 800b166:	005b      	lsls	r3, r3, #1
 800b168:	3201      	adds	r2, #1
 800b16a:	e7ef      	b.n	800b14c <__ieee754_sqrt+0x158>
 800b16c:	4688      	mov	r8, r1
 800b16e:	e7aa      	b.n	800b0c6 <__ieee754_sqrt+0xd2>
 800b170:	f7f4 fffc 	bl	800016c <__adddf3>
 800b174:	e9da 8900 	ldrd	r8, r9, [sl]
 800b178:	4602      	mov	r2, r0
 800b17a:	460b      	mov	r3, r1
 800b17c:	4640      	mov	r0, r8
 800b17e:	4649      	mov	r1, r9
 800b180:	f7f5 fc1c 	bl	80009bc <__aeabi_dcmplt>
 800b184:	b120      	cbz	r0, 800b190 <__ieee754_sqrt+0x19c>
 800b186:	1ca1      	adds	r1, r4, #2
 800b188:	bf08      	it	eq
 800b18a:	3501      	addeq	r5, #1
 800b18c:	3402      	adds	r4, #2
 800b18e:	e7ca      	b.n	800b126 <__ieee754_sqrt+0x132>
 800b190:	3401      	adds	r4, #1
 800b192:	f024 0401 	bic.w	r4, r4, #1
 800b196:	e7c6      	b.n	800b126 <__ieee754_sqrt+0x132>
 800b198:	7ff00000 	.word	0x7ff00000
 800b19c:	20000208 	.word	0x20000208
 800b1a0:	20000210 	.word	0x20000210

0800b1a4 <__ieee754_sqrtf>:
 800b1a4:	f020 4200 	bic.w	r2, r0, #2147483648	; 0x80000000
 800b1a8:	f1b2 4fff 	cmp.w	r2, #2139095040	; 0x7f800000
 800b1ac:	e92d 41f0 	stmdb	sp!, {r4, r5, r6, r7, r8, lr}
 800b1b0:	4603      	mov	r3, r0
 800b1b2:	4604      	mov	r4, r0
 800b1b4:	d30a      	bcc.n	800b1cc <__ieee754_sqrtf+0x28>
 800b1b6:	4601      	mov	r1, r0
 800b1b8:	f7f5 fde4 	bl	8000d84 <__aeabi_fmul>
 800b1bc:	4601      	mov	r1, r0
 800b1be:	4620      	mov	r0, r4
 800b1c0:	f7f5 fcd8 	bl	8000b74 <__addsf3>
 800b1c4:	4604      	mov	r4, r0
 800b1c6:	4620      	mov	r0, r4
 800b1c8:	e8bd 81f0 	ldmia.w	sp!, {r4, r5, r6, r7, r8, pc}
 800b1cc:	2a00      	cmp	r2, #0
 800b1ce:	d0fa      	beq.n	800b1c6 <__ieee754_sqrtf+0x22>
 800b1d0:	2800      	cmp	r0, #0
 800b1d2:	da06      	bge.n	800b1e2 <__ieee754_sqrtf+0x3e>
 800b1d4:	4601      	mov	r1, r0
 800b1d6:	f7f5 fccb 	bl	8000b70 <__aeabi_fsub>
 800b1da:	4601      	mov	r1, r0
 800b1dc:	f7f5 fe86 	bl	8000eec <__aeabi_fdiv>
 800b1e0:	e7f0      	b.n	800b1c4 <__ieee754_sqrtf+0x20>
 800b1e2:	f010 42ff 	ands.w	r2, r0, #2139095040	; 0x7f800000
 800b1e6:	ea4f 51e0 	mov.w	r1, r0, asr #23
 800b1ea:	d03e      	beq.n	800b26a <__ieee754_sqrtf+0xc6>
 800b1ec:	2400      	movs	r4, #0
 800b1ee:	f1a1 057f 	sub.w	r5, r1, #127	; 0x7f
 800b1f2:	07ca      	lsls	r2, r1, #31
 800b1f4:	f04f 0019 	mov.w	r0, #25
 800b1f8:	4626      	mov	r6, r4
 800b1fa:	f04f 7180 	mov.w	r1, #16777216	; 0x1000000
 800b1fe:	f3c3 0316 	ubfx	r3, r3, #0, #23
 800b202:	f443 0300 	orr.w	r3, r3, #8388608	; 0x800000
 800b206:	bf58      	it	pl
 800b208:	005b      	lslpl	r3, r3, #1
 800b20a:	106d      	asrs	r5, r5, #1
 800b20c:	005b      	lsls	r3, r3, #1
 800b20e:	1872      	adds	r2, r6, r1
 800b210:	429a      	cmp	r2, r3
 800b212:	bfcf      	iteee	gt
 800b214:	461a      	movgt	r2, r3
 800b216:	1856      	addle	r6, r2, r1
 800b218:	1864      	addle	r4, r4, r1
 800b21a:	1a9a      	suble	r2, r3, r2
 800b21c:	3801      	subs	r0, #1
 800b21e:	ea4f 0342 	mov.w	r3, r2, lsl #1
 800b222:	ea4f 0151 	mov.w	r1, r1, lsr #1
 800b226:	d1f2      	bne.n	800b20e <__ieee754_sqrtf+0x6a>
 800b228:	b1ba      	cbz	r2, 800b25a <__ieee754_sqrtf+0xb6>
 800b22a:	4e14      	ldr	r6, [pc, #80]	; (800b27c <__ieee754_sqrtf+0xd8>)
 800b22c:	4f14      	ldr	r7, [pc, #80]	; (800b280 <__ieee754_sqrtf+0xdc>)
 800b22e:	6830      	ldr	r0, [r6, #0]
 800b230:	6839      	ldr	r1, [r7, #0]
 800b232:	f7f5 fc9d 	bl	8000b70 <__aeabi_fsub>
 800b236:	f8d6 8000 	ldr.w	r8, [r6]
 800b23a:	4601      	mov	r1, r0
 800b23c:	4640      	mov	r0, r8
 800b23e:	f7f5 ff49 	bl	80010d4 <__aeabi_fcmple>
 800b242:	b150      	cbz	r0, 800b25a <__ieee754_sqrtf+0xb6>
 800b244:	6830      	ldr	r0, [r6, #0]
 800b246:	6839      	ldr	r1, [r7, #0]
 800b248:	f7f5 fc94 	bl	8000b74 <__addsf3>
 800b24c:	6836      	ldr	r6, [r6, #0]
 800b24e:	4601      	mov	r1, r0
 800b250:	4630      	mov	r0, r6
 800b252:	f7f5 ff35 	bl	80010c0 <__aeabi_fcmplt>
 800b256:	b168      	cbz	r0, 800b274 <__ieee754_sqrtf+0xd0>
 800b258:	3402      	adds	r4, #2
 800b25a:	1064      	asrs	r4, r4, #1
 800b25c:	f104 547c 	add.w	r4, r4, #1056964608	; 0x3f000000
 800b260:	eb04 54c5 	add.w	r4, r4, r5, lsl #23
 800b264:	e7af      	b.n	800b1c6 <__ieee754_sqrtf+0x22>
 800b266:	005b      	lsls	r3, r3, #1
 800b268:	3201      	adds	r2, #1
 800b26a:	0218      	lsls	r0, r3, #8
 800b26c:	d5fb      	bpl.n	800b266 <__ieee754_sqrtf+0xc2>
 800b26e:	3a01      	subs	r2, #1
 800b270:	1a89      	subs	r1, r1, r2
 800b272:	e7bb      	b.n	800b1ec <__ieee754_sqrtf+0x48>
 800b274:	3401      	adds	r4, #1
 800b276:	f024 0401 	bic.w	r4, r4, #1
 800b27a:	e7ee      	b.n	800b25a <__ieee754_sqrtf+0xb6>
 800b27c:	20000218 	.word	0x20000218
 800b280:	2000021c 	.word	0x2000021c
 800b284:	00000000 	.word	0x00000000

0800b288 <__kernel_cos>:
 800b288:	e92d 4ff7 	stmdb	sp!, {r0, r1, r2, r4, r5, r6, r7, r8, r9, sl, fp, lr}
 800b28c:	f021 4600 	bic.w	r6, r1, #2147483648	; 0x80000000
 800b290:	f1b6 5f79 	cmp.w	r6, #1044381696	; 0x3e400000
 800b294:	4680      	mov	r8, r0
 800b296:	460f      	mov	r7, r1
 800b298:	e9cd 2300 	strd	r2, r3, [sp]
 800b29c:	da04      	bge.n	800b2a8 <__kernel_cos+0x20>
 800b29e:	f7f5 fbcb 	bl	8000a38 <__aeabi_d2iz>
 800b2a2:	2800      	cmp	r0, #0
 800b2a4:	f000 8086 	beq.w	800b3b4 <__kernel_cos+0x12c>
 800b2a8:	4642      	mov	r2, r8
 800b2aa:	463b      	mov	r3, r7
 800b2ac:	4640      	mov	r0, r8
 800b2ae:	4639      	mov	r1, r7
 800b2b0:	f7f5 f912 	bl	80004d8 <__aeabi_dmul>
 800b2b4:	2200      	movs	r2, #0
 800b2b6:	4b4e      	ldr	r3, [pc, #312]	; (800b3f0 <__kernel_cos+0x168>)
 800b2b8:	4604      	mov	r4, r0
 800b2ba:	460d      	mov	r5, r1
 800b2bc:	f7f5 f90c 	bl	80004d8 <__aeabi_dmul>
 800b2c0:	a33f      	add	r3, pc, #252	; (adr r3, 800b3c0 <__kernel_cos+0x138>)
 800b2c2:	e9d3 2300 	ldrd	r2, r3, [r3]
 800b2c6:	4682      	mov	sl, r0
 800b2c8:	468b      	mov	fp, r1
 800b2ca:	4620      	mov	r0, r4
 800b2cc:	4629      	mov	r1, r5
 800b2ce:	f7f5 f903 	bl	80004d8 <__aeabi_dmul>
 800b2d2:	a33d      	add	r3, pc, #244	; (adr r3, 800b3c8 <__kernel_cos+0x140>)
 800b2d4:	e9d3 2300 	ldrd	r2, r3, [r3]
 800b2d8:	f7f4 ff48 	bl	800016c <__adddf3>
 800b2dc:	4622      	mov	r2, r4
 800b2de:	462b      	mov	r3, r5
 800b2e0:	f7f5 f8fa 	bl	80004d8 <__aeabi_dmul>
 800b2e4:	a33a      	add	r3, pc, #232	; (adr r3, 800b3d0 <__kernel_cos+0x148>)
 800b2e6:	e9d3 2300 	ldrd	r2, r3, [r3]
 800b2ea:	f7f4 ff3d 	bl	8000168 <__aeabi_dsub>
 800b2ee:	4622      	mov	r2, r4
 800b2f0:	462b      	mov	r3, r5
 800b2f2:	f7f5 f8f1 	bl	80004d8 <__aeabi_dmul>
 800b2f6:	a338      	add	r3, pc, #224	; (adr r3, 800b3d8 <__kernel_cos+0x150>)
 800b2f8:	e9d3 2300 	ldrd	r2, r3, [r3]
 800b2fc:	f7f4 ff36 	bl	800016c <__adddf3>
 800b300:	4622      	mov	r2, r4
 800b302:	462b      	mov	r3, r5
 800b304:	f7f5 f8e8 	bl	80004d8 <__aeabi_dmul>
 800b308:	a335      	add	r3, pc, #212	; (adr r3, 800b3e0 <__kernel_cos+0x158>)
 800b30a:	e9d3 2300 	ldrd	r2, r3, [r3]
 800b30e:	f7f4 ff2b 	bl	8000168 <__aeabi_dsub>
 800b312:	4622      	mov	r2, r4
 800b314:	462b      	mov	r3, r5
 800b316:	f7f5 f8df 	bl	80004d8 <__aeabi_dmul>
 800b31a:	a333      	add	r3, pc, #204	; (adr r3, 800b3e8 <__kernel_cos+0x160>)
 800b31c:	e9d3 2300 	ldrd	r2, r3, [r3]
 800b320:	f7f4 ff24 	bl	800016c <__adddf3>
 800b324:	4622      	mov	r2, r4
 800b326:	462b      	mov	r3, r5
 800b328:	f7f5 f8d6 	bl	80004d8 <__aeabi_dmul>
 800b32c:	4622      	mov	r2, r4
 800b32e:	462b      	mov	r3, r5
 800b330:	f7f5 f8d2 	bl	80004d8 <__aeabi_dmul>
 800b334:	e9dd 2300 	ldrd	r2, r3, [sp]
 800b338:	4604      	mov	r4, r0
 800b33a:	460d      	mov	r5, r1
 800b33c:	4640      	mov	r0, r8
 800b33e:	4639      	mov	r1, r7
 800b340:	f7f5 f8ca 	bl	80004d8 <__aeabi_dmul>
 800b344:	460b      	mov	r3, r1
 800b346:	4602      	mov	r2, r0
 800b348:	4629      	mov	r1, r5
 800b34a:	4620      	mov	r0, r4
 800b34c:	f7f4 ff0c 	bl	8000168 <__aeabi_dsub>
 800b350:	4b28      	ldr	r3, [pc, #160]	; (800b3f4 <__kernel_cos+0x16c>)
 800b352:	4680      	mov	r8, r0
 800b354:	429e      	cmp	r6, r3
 800b356:	4689      	mov	r9, r1
 800b358:	dc0e      	bgt.n	800b378 <__kernel_cos+0xf0>
 800b35a:	4602      	mov	r2, r0
 800b35c:	460b      	mov	r3, r1
 800b35e:	4650      	mov	r0, sl
 800b360:	4659      	mov	r1, fp
 800b362:	f7f4 ff01 	bl	8000168 <__aeabi_dsub>
 800b366:	4602      	mov	r2, r0
 800b368:	2000      	movs	r0, #0
 800b36a:	460b      	mov	r3, r1
 800b36c:	4922      	ldr	r1, [pc, #136]	; (800b3f8 <__kernel_cos+0x170>)
 800b36e:	f7f4 fefb 	bl	8000168 <__aeabi_dsub>
 800b372:	b003      	add	sp, #12
 800b374:	e8bd 8ff0 	ldmia.w	sp!, {r4, r5, r6, r7, r8, r9, sl, fp, pc}
 800b378:	2400      	movs	r4, #0
 800b37a:	4b20      	ldr	r3, [pc, #128]	; (800b3fc <__kernel_cos+0x174>)
 800b37c:	4622      	mov	r2, r4
 800b37e:	429e      	cmp	r6, r3
 800b380:	bfcc      	ite	gt
 800b382:	4d1f      	ldrgt	r5, [pc, #124]	; (800b400 <__kernel_cos+0x178>)
 800b384:	f5a6 1500 	suble.w	r5, r6, #2097152	; 0x200000
 800b388:	462b      	mov	r3, r5
 800b38a:	2000      	movs	r0, #0
 800b38c:	491a      	ldr	r1, [pc, #104]	; (800b3f8 <__kernel_cos+0x170>)
 800b38e:	f7f4 feeb 	bl	8000168 <__aeabi_dsub>
 800b392:	4622      	mov	r2, r4
 800b394:	4606      	mov	r6, r0
 800b396:	460f      	mov	r7, r1
 800b398:	462b      	mov	r3, r5
 800b39a:	4650      	mov	r0, sl
 800b39c:	4659      	mov	r1, fp
 800b39e:	f7f4 fee3 	bl	8000168 <__aeabi_dsub>
 800b3a2:	4642      	mov	r2, r8
 800b3a4:	464b      	mov	r3, r9
 800b3a6:	f7f4 fedf 	bl	8000168 <__aeabi_dsub>
 800b3aa:	4602      	mov	r2, r0
 800b3ac:	460b      	mov	r3, r1
 800b3ae:	4630      	mov	r0, r6
 800b3b0:	4639      	mov	r1, r7
 800b3b2:	e7dc      	b.n	800b36e <__kernel_cos+0xe6>
 800b3b4:	2000      	movs	r0, #0
 800b3b6:	4910      	ldr	r1, [pc, #64]	; (800b3f8 <__kernel_cos+0x170>)
 800b3b8:	e7db      	b.n	800b372 <__kernel_cos+0xea>
 800b3ba:	bf00      	nop
 800b3bc:	f3af 8000 	nop.w
 800b3c0:	be8838d4 	.word	0xbe8838d4
 800b3c4:	bda8fae9 	.word	0xbda8fae9
 800b3c8:	bdb4b1c4 	.word	0xbdb4b1c4
 800b3cc:	3e21ee9e 	.word	0x3e21ee9e
 800b3d0:	809c52ad 	.word	0x809c52ad
 800b3d4:	3e927e4f 	.word	0x3e927e4f
 800b3d8:	19cb1590 	.word	0x19cb1590
 800b3dc:	3efa01a0 	.word	0x3efa01a0
 800b3e0:	16c15177 	.word	0x16c15177
 800b3e4:	3f56c16c 	.word	0x3f56c16c
 800b3e8:	5555554c 	.word	0x5555554c
 800b3ec:	3fa55555 	.word	0x3fa55555
 800b3f0:	3fe00000 	.word	0x3fe00000
 800b3f4:	3fd33332 	.word	0x3fd33332
 800b3f8:	3ff00000 	.word	0x3ff00000
 800b3fc:	3fe90000 	.word	0x3fe90000
 800b400:	3fd20000 	.word	0x3fd20000
 800b404:	00000000 	.word	0x00000000

0800b408 <__kernel_sin>:
 800b408:	e92d 47f0 	stmdb	sp!, {r4, r5, r6, r7, r8, r9, sl, lr}
 800b40c:	b086      	sub	sp, #24
 800b40e:	e9cd 2300 	strd	r2, r3, [sp]
 800b412:	f021 4300 	bic.w	r3, r1, #2147483648	; 0x80000000
 800b416:	f1b3 5f79 	cmp.w	r3, #1044381696	; 0x3e400000
 800b41a:	4682      	mov	sl, r0
 800b41c:	460c      	mov	r4, r1
 800b41e:	9d0e      	ldr	r5, [sp, #56]	; 0x38
 800b420:	da03      	bge.n	800b42a <__kernel_sin+0x22>
 800b422:	f7f5 fb09 	bl	8000a38 <__aeabi_d2iz>
 800b426:	2800      	cmp	r0, #0
 800b428:	d050      	beq.n	800b4cc <__kernel_sin+0xc4>
 800b42a:	4652      	mov	r2, sl
 800b42c:	4623      	mov	r3, r4
 800b42e:	4650      	mov	r0, sl
 800b430:	4621      	mov	r1, r4
 800b432:	f7f5 f851 	bl	80004d8 <__aeabi_dmul>
 800b436:	4606      	mov	r6, r0
 800b438:	460f      	mov	r7, r1
 800b43a:	4602      	mov	r2, r0
 800b43c:	460b      	mov	r3, r1
 800b43e:	4650      	mov	r0, sl
 800b440:	4621      	mov	r1, r4
 800b442:	f7f5 f849 	bl	80004d8 <__aeabi_dmul>
 800b446:	a33e      	add	r3, pc, #248	; (adr r3, 800b540 <__kernel_sin+0x138>)
 800b448:	e9d3 2300 	ldrd	r2, r3, [r3]
 800b44c:	4680      	mov	r8, r0
 800b44e:	4689      	mov	r9, r1
 800b450:	4630      	mov	r0, r6
 800b452:	4639      	mov	r1, r7
 800b454:	f7f5 f840 	bl	80004d8 <__aeabi_dmul>
 800b458:	a33b      	add	r3, pc, #236	; (adr r3, 800b548 <__kernel_sin+0x140>)
 800b45a:	e9d3 2300 	ldrd	r2, r3, [r3]
 800b45e:	f7f4 fe83 	bl	8000168 <__aeabi_dsub>
 800b462:	4632      	mov	r2, r6
 800b464:	463b      	mov	r3, r7
 800b466:	f7f5 f837 	bl	80004d8 <__aeabi_dmul>
 800b46a:	a339      	add	r3, pc, #228	; (adr r3, 800b550 <__kernel_sin+0x148>)
 800b46c:	e9d3 2300 	ldrd	r2, r3, [r3]
 800b470:	f7f4 fe7c 	bl	800016c <__adddf3>
 800b474:	4632      	mov	r2, r6
 800b476:	463b      	mov	r3, r7
 800b478:	f7f5 f82e 	bl	80004d8 <__aeabi_dmul>
 800b47c:	a336      	add	r3, pc, #216	; (adr r3, 800b558 <__kernel_sin+0x150>)
 800b47e:	e9d3 2300 	ldrd	r2, r3, [r3]
 800b482:	f7f4 fe71 	bl	8000168 <__aeabi_dsub>
 800b486:	4632      	mov	r2, r6
 800b488:	463b      	mov	r3, r7
 800b48a:	f7f5 f825 	bl	80004d8 <__aeabi_dmul>
 800b48e:	a334      	add	r3, pc, #208	; (adr r3, 800b560 <__kernel_sin+0x158>)
 800b490:	e9d3 2300 	ldrd	r2, r3, [r3]
 800b494:	f7f4 fe6a 	bl	800016c <__adddf3>
 800b498:	e9cd 0102 	strd	r0, r1, [sp, #8]
 800b49c:	b9dd      	cbnz	r5, 800b4d6 <__kernel_sin+0xce>
 800b49e:	4602      	mov	r2, r0
 800b4a0:	460b      	mov	r3, r1
 800b4a2:	4630      	mov	r0, r6
 800b4a4:	4639      	mov	r1, r7
 800b4a6:	f7f5 f817 	bl	80004d8 <__aeabi_dmul>
 800b4aa:	a32f      	add	r3, pc, #188	; (adr r3, 800b568 <__kernel_sin+0x160>)
 800b4ac:	e9d3 2300 	ldrd	r2, r3, [r3]
 800b4b0:	f7f4 fe5a 	bl	8000168 <__aeabi_dsub>
 800b4b4:	4642      	mov	r2, r8
 800b4b6:	464b      	mov	r3, r9
 800b4b8:	f7f5 f80e 	bl	80004d8 <__aeabi_dmul>
 800b4bc:	4602      	mov	r2, r0
 800b4be:	460b      	mov	r3, r1
 800b4c0:	4650      	mov	r0, sl
 800b4c2:	4621      	mov	r1, r4
 800b4c4:	f7f4 fe52 	bl	800016c <__adddf3>
 800b4c8:	4682      	mov	sl, r0
 800b4ca:	460c      	mov	r4, r1
 800b4cc:	4650      	mov	r0, sl
 800b4ce:	4621      	mov	r1, r4
 800b4d0:	b006      	add	sp, #24
 800b4d2:	e8bd 87f0 	ldmia.w	sp!, {r4, r5, r6, r7, r8, r9, sl, pc}
 800b4d6:	2200      	movs	r2, #0
 800b4d8:	e9dd 0100 	ldrd	r0, r1, [sp]
 800b4dc:	4b24      	ldr	r3, [pc, #144]	; (800b570 <__kernel_sin+0x168>)
 800b4de:	f7f4 fffb 	bl	80004d8 <__aeabi_dmul>
 800b4e2:	e9dd 2302 	ldrd	r2, r3, [sp, #8]
 800b4e6:	e9cd 0104 	strd	r0, r1, [sp, #16]
 800b4ea:	4640      	mov	r0, r8
 800b4ec:	4649      	mov	r1, r9
 800b4ee:	f7f4 fff3 	bl	80004d8 <__aeabi_dmul>
 800b4f2:	4602      	mov	r2, r0
 800b4f4:	460b      	mov	r3, r1
 800b4f6:	e9dd 0104 	ldrd	r0, r1, [sp, #16]
 800b4fa:	f7f4 fe35 	bl	8000168 <__aeabi_dsub>
 800b4fe:	4632      	mov	r2, r6
 800b500:	463b      	mov	r3, r7
 800b502:	f7f4 ffe9 	bl	80004d8 <__aeabi_dmul>
 800b506:	e9dd 2300 	ldrd	r2, r3, [sp]
 800b50a:	f7f4 fe2d 	bl	8000168 <__aeabi_dsub>
 800b50e:	a316      	add	r3, pc, #88	; (adr r3, 800b568 <__kernel_sin+0x160>)
 800b510:	e9d3 2300 	ldrd	r2, r3, [r3]
 800b514:	4606      	mov	r6, r0
 800b516:	460f      	mov	r7, r1
 800b518:	4640      	mov	r0, r8
 800b51a:	4649      	mov	r1, r9
 800b51c:	f7f4 ffdc 	bl	80004d8 <__aeabi_dmul>
 800b520:	4602      	mov	r2, r0
 800b522:	460b      	mov	r3, r1
 800b524:	4630      	mov	r0, r6
 800b526:	4639      	mov	r1, r7
 800b528:	f7f4 fe20 	bl	800016c <__adddf3>
 800b52c:	4602      	mov	r2, r0
 800b52e:	460b      	mov	r3, r1
 800b530:	4650      	mov	r0, sl
 800b532:	4621      	mov	r1, r4
 800b534:	f7f4 fe18 	bl	8000168 <__aeabi_dsub>
 800b538:	e7c6      	b.n	800b4c8 <__kernel_sin+0xc0>
 800b53a:	bf00      	nop
 800b53c:	f3af 8000 	nop.w
 800b540:	5acfd57c 	.word	0x5acfd57c
 800b544:	3de5d93a 	.word	0x3de5d93a
 800b548:	8a2b9ceb 	.word	0x8a2b9ceb
 800b54c:	3e5ae5e6 	.word	0x3e5ae5e6
 800b550:	57b1fe7d 	.word	0x57b1fe7d
 800b554:	3ec71de3 	.word	0x3ec71de3
 800b558:	19c161d5 	.word	0x19c161d5
 800b55c:	3f2a01a0 	.word	0x3f2a01a0
 800b560:	1110f8a6 	.word	0x1110f8a6
 800b564:	3f811111 	.word	0x3f811111
 800b568:	55555549 	.word	0x55555549
 800b56c:	3fc55555 	.word	0x3fc55555
 800b570:	3fe00000 	.word	0x3fe00000
 800b574:	00000000 	.word	0x00000000

0800b578 <__ieee754_acos>:
 800b578:	e92d 4ff8 	stmdb	sp!, {r3, r4, r5, r6, r7, r8, r9, sl, fp, lr}
 800b57c:	4cb2      	ldr	r4, [pc, #712]	; (800b848 <__ieee754_acos+0x2d0>)
 800b57e:	f021 4300 	bic.w	r3, r1, #2147483648	; 0x80000000
 800b582:	42a3      	cmp	r3, r4
 800b584:	4607      	mov	r7, r0
 800b586:	460e      	mov	r6, r1
 800b588:	dd16      	ble.n	800b5b8 <__ieee754_acos+0x40>
 800b58a:	f103 4340 	add.w	r3, r3, #3221225472	; 0xc0000000
 800b58e:	f503 1380 	add.w	r3, r3, #1048576	; 0x100000
 800b592:	4303      	orrs	r3, r0
 800b594:	d107      	bne.n	800b5a6 <__ieee754_acos+0x2e>
 800b596:	2900      	cmp	r1, #0
 800b598:	f300 8202 	bgt.w	800b9a0 <__ieee754_acos+0x428>
 800b59c:	a190      	add	r1, pc, #576	; (adr r1, 800b7e0 <__ieee754_acos+0x268>)
 800b59e:	e9d1 0100 	ldrd	r0, r1, [r1]
 800b5a2:	e8bd 8ff8 	ldmia.w	sp!, {r3, r4, r5, r6, r7, r8, r9, sl, fp, pc}
 800b5a6:	4602      	mov	r2, r0
 800b5a8:	460b      	mov	r3, r1
 800b5aa:	f7f4 fddd 	bl	8000168 <__aeabi_dsub>
 800b5ae:	4602      	mov	r2, r0
 800b5b0:	460b      	mov	r3, r1
 800b5b2:	f7f5 f8bb 	bl	800072c <__aeabi_ddiv>
 800b5b6:	e7f4      	b.n	800b5a2 <__ieee754_acos+0x2a>
 800b5b8:	4ca4      	ldr	r4, [pc, #656]	; (800b84c <__ieee754_acos+0x2d4>)
 800b5ba:	42a3      	cmp	r3, r4
 800b5bc:	f300 8083 	bgt.w	800b6c6 <__ieee754_acos+0x14e>
 800b5c0:	4aa3      	ldr	r2, [pc, #652]	; (800b850 <__ieee754_acos+0x2d8>)
 800b5c2:	4293      	cmp	r3, r2
 800b5c4:	f340 81ef 	ble.w	800b9a6 <__ieee754_acos+0x42e>
 800b5c8:	4602      	mov	r2, r0
 800b5ca:	460b      	mov	r3, r1
 800b5cc:	f7f4 ff84 	bl	80004d8 <__aeabi_dmul>
 800b5d0:	a385      	add	r3, pc, #532	; (adr r3, 800b7e8 <__ieee754_acos+0x270>)
 800b5d2:	e9d3 2300 	ldrd	r2, r3, [r3]
 800b5d6:	4604      	mov	r4, r0
 800b5d8:	460d      	mov	r5, r1
 800b5da:	f7f4 ff7d 	bl	80004d8 <__aeabi_dmul>
 800b5de:	a384      	add	r3, pc, #528	; (adr r3, 800b7f0 <__ieee754_acos+0x278>)
 800b5e0:	e9d3 2300 	ldrd	r2, r3, [r3]
 800b5e4:	f7f4 fdc2 	bl	800016c <__adddf3>
 800b5e8:	4622      	mov	r2, r4
 800b5ea:	462b      	mov	r3, r5
 800b5ec:	f7f4 ff74 	bl	80004d8 <__aeabi_dmul>
 800b5f0:	a381      	add	r3, pc, #516	; (adr r3, 800b7f8 <__ieee754_acos+0x280>)
 800b5f2:	e9d3 2300 	ldrd	r2, r3, [r3]
 800b5f6:	f7f4 fdb7 	bl	8000168 <__aeabi_dsub>
 800b5fa:	4622      	mov	r2, r4
 800b5fc:	462b      	mov	r3, r5
 800b5fe:	f7f4 ff6b 	bl	80004d8 <__aeabi_dmul>
 800b602:	a37f      	add	r3, pc, #508	; (adr r3, 800b800 <__ieee754_acos+0x288>)
 800b604:	e9d3 2300 	ldrd	r2, r3, [r3]
 800b608:	f7f4 fdb0 	bl	800016c <__adddf3>
 800b60c:	4622      	mov	r2, r4
 800b60e:	462b      	mov	r3, r5
 800b610:	f7f4 ff62 	bl	80004d8 <__aeabi_dmul>
 800b614:	a37c      	add	r3, pc, #496	; (adr r3, 800b808 <__ieee754_acos+0x290>)
 800b616:	e9d3 2300 	ldrd	r2, r3, [r3]
 800b61a:	f7f4 fda5 	bl	8000168 <__aeabi_dsub>
 800b61e:	4622      	mov	r2, r4
 800b620:	462b      	mov	r3, r5
 800b622:	f7f4 ff59 	bl	80004d8 <__aeabi_dmul>
 800b626:	a37a      	add	r3, pc, #488	; (adr r3, 800b810 <__ieee754_acos+0x298>)
 800b628:	e9d3 2300 	ldrd	r2, r3, [r3]
 800b62c:	f7f4 fd9e 	bl	800016c <__adddf3>
 800b630:	4622      	mov	r2, r4
 800b632:	462b      	mov	r3, r5
 800b634:	f7f4 ff50 	bl	80004d8 <__aeabi_dmul>
 800b638:	a377      	add	r3, pc, #476	; (adr r3, 800b818 <__ieee754_acos+0x2a0>)
 800b63a:	e9d3 2300 	ldrd	r2, r3, [r3]
 800b63e:	4680      	mov	r8, r0
 800b640:	4689      	mov	r9, r1
 800b642:	4620      	mov	r0, r4
 800b644:	4629      	mov	r1, r5
 800b646:	f7f4 ff47 	bl	80004d8 <__aeabi_dmul>
 800b64a:	a375      	add	r3, pc, #468	; (adr r3, 800b820 <__ieee754_acos+0x2a8>)
 800b64c:	e9d3 2300 	ldrd	r2, r3, [r3]
 800b650:	f7f4 fd8a 	bl	8000168 <__aeabi_dsub>
 800b654:	4622      	mov	r2, r4
 800b656:	462b      	mov	r3, r5
 800b658:	f7f4 ff3e 	bl	80004d8 <__aeabi_dmul>
 800b65c:	a372      	add	r3, pc, #456	; (adr r3, 800b828 <__ieee754_acos+0x2b0>)
 800b65e:	e9d3 2300 	ldrd	r2, r3, [r3]
 800b662:	f7f4 fd83 	bl	800016c <__adddf3>
 800b666:	4622      	mov	r2, r4
 800b668:	462b      	mov	r3, r5
 800b66a:	f7f4 ff35 	bl	80004d8 <__aeabi_dmul>
 800b66e:	a370      	add	r3, pc, #448	; (adr r3, 800b830 <__ieee754_acos+0x2b8>)
 800b670:	e9d3 2300 	ldrd	r2, r3, [r3]
 800b674:	f7f4 fd78 	bl	8000168 <__aeabi_dsub>
 800b678:	4622      	mov	r2, r4
 800b67a:	462b      	mov	r3, r5
 800b67c:	f7f4 ff2c 	bl	80004d8 <__aeabi_dmul>
 800b680:	2200      	movs	r2, #0
 800b682:	4b74      	ldr	r3, [pc, #464]	; (800b854 <__ieee754_acos+0x2dc>)
 800b684:	f7f4 fd72 	bl	800016c <__adddf3>
 800b688:	4602      	mov	r2, r0
 800b68a:	460b      	mov	r3, r1
 800b68c:	4640      	mov	r0, r8
 800b68e:	4649      	mov	r1, r9
 800b690:	f7f5 f84c 	bl	800072c <__aeabi_ddiv>
 800b694:	463a      	mov	r2, r7
 800b696:	4633      	mov	r3, r6
 800b698:	f7f4 ff1e 	bl	80004d8 <__aeabi_dmul>
 800b69c:	4602      	mov	r2, r0
 800b69e:	460b      	mov	r3, r1
 800b6a0:	a165      	add	r1, pc, #404	; (adr r1, 800b838 <__ieee754_acos+0x2c0>)
 800b6a2:	e9d1 0100 	ldrd	r0, r1, [r1]
 800b6a6:	f7f4 fd5f 	bl	8000168 <__aeabi_dsub>
 800b6aa:	4602      	mov	r2, r0
 800b6ac:	460b      	mov	r3, r1
 800b6ae:	4638      	mov	r0, r7
 800b6b0:	4631      	mov	r1, r6
 800b6b2:	f7f4 fd59 	bl	8000168 <__aeabi_dsub>
 800b6b6:	4602      	mov	r2, r0
 800b6b8:	460b      	mov	r3, r1
 800b6ba:	a161      	add	r1, pc, #388	; (adr r1, 800b840 <__ieee754_acos+0x2c8>)
 800b6bc:	e9d1 0100 	ldrd	r0, r1, [r1]
 800b6c0:	f7f4 fd52 	bl	8000168 <__aeabi_dsub>
 800b6c4:	e76d      	b.n	800b5a2 <__ieee754_acos+0x2a>
 800b6c6:	2900      	cmp	r1, #0
 800b6c8:	f280 80c8 	bge.w	800b85c <__ieee754_acos+0x2e4>
 800b6cc:	2200      	movs	r2, #0
 800b6ce:	4b61      	ldr	r3, [pc, #388]	; (800b854 <__ieee754_acos+0x2dc>)
 800b6d0:	f7f4 fd4c 	bl	800016c <__adddf3>
 800b6d4:	2200      	movs	r2, #0
 800b6d6:	4b60      	ldr	r3, [pc, #384]	; (800b858 <__ieee754_acos+0x2e0>)
 800b6d8:	f7f4 fefe 	bl	80004d8 <__aeabi_dmul>
 800b6dc:	a342      	add	r3, pc, #264	; (adr r3, 800b7e8 <__ieee754_acos+0x270>)
 800b6de:	e9d3 2300 	ldrd	r2, r3, [r3]
 800b6e2:	4604      	mov	r4, r0
 800b6e4:	460d      	mov	r5, r1
 800b6e6:	f7f4 fef7 	bl	80004d8 <__aeabi_dmul>
 800b6ea:	a341      	add	r3, pc, #260	; (adr r3, 800b7f0 <__ieee754_acos+0x278>)
 800b6ec:	e9d3 2300 	ldrd	r2, r3, [r3]
 800b6f0:	f7f4 fd3c 	bl	800016c <__adddf3>
 800b6f4:	4622      	mov	r2, r4
 800b6f6:	462b      	mov	r3, r5
 800b6f8:	f7f4 feee 	bl	80004d8 <__aeabi_dmul>
 800b6fc:	a33e      	add	r3, pc, #248	; (adr r3, 800b7f8 <__ieee754_acos+0x280>)
 800b6fe:	e9d3 2300 	ldrd	r2, r3, [r3]
 800b702:	f7f4 fd31 	bl	8000168 <__aeabi_dsub>
 800b706:	4622      	mov	r2, r4
 800b708:	462b      	mov	r3, r5
 800b70a:	f7f4 fee5 	bl	80004d8 <__aeabi_dmul>
 800b70e:	a33c      	add	r3, pc, #240	; (adr r3, 800b800 <__ieee754_acos+0x288>)
 800b710:	e9d3 2300 	ldrd	r2, r3, [r3]
 800b714:	f7f4 fd2a 	bl	800016c <__adddf3>
 800b718:	4622      	mov	r2, r4
 800b71a:	462b      	mov	r3, r5
 800b71c:	f7f4 fedc 	bl	80004d8 <__aeabi_dmul>
 800b720:	a339      	add	r3, pc, #228	; (adr r3, 800b808 <__ieee754_acos+0x290>)
 800b722:	e9d3 2300 	ldrd	r2, r3, [r3]
 800b726:	f7f4 fd1f 	bl	8000168 <__aeabi_dsub>
 800b72a:	4622      	mov	r2, r4
 800b72c:	462b      	mov	r3, r5
 800b72e:	f7f4 fed3 	bl	80004d8 <__aeabi_dmul>
 800b732:	a337      	add	r3, pc, #220	; (adr r3, 800b810 <__ieee754_acos+0x298>)
 800b734:	e9d3 2300 	ldrd	r2, r3, [r3]
 800b738:	f7f4 fd18 	bl	800016c <__adddf3>
 800b73c:	4622      	mov	r2, r4
 800b73e:	462b      	mov	r3, r5
 800b740:	f7f4 feca 	bl	80004d8 <__aeabi_dmul>
 800b744:	4680      	mov	r8, r0
 800b746:	4689      	mov	r9, r1
 800b748:	4620      	mov	r0, r4
 800b74a:	4629      	mov	r1, r5
 800b74c:	f7ff fc52 	bl	800aff4 <__ieee754_sqrt>
 800b750:	a331      	add	r3, pc, #196	; (adr r3, 800b818 <__ieee754_acos+0x2a0>)
 800b752:	e9d3 2300 	ldrd	r2, r3, [r3]
 800b756:	4606      	mov	r6, r0
 800b758:	460f      	mov	r7, r1
 800b75a:	4620      	mov	r0, r4
 800b75c:	4629      	mov	r1, r5
 800b75e:	f7f4 febb 	bl	80004d8 <__aeabi_dmul>
 800b762:	a32f      	add	r3, pc, #188	; (adr r3, 800b820 <__ieee754_acos+0x2a8>)
 800b764:	e9d3 2300 	ldrd	r2, r3, [r3]
 800b768:	f7f4 fcfe 	bl	8000168 <__aeabi_dsub>
 800b76c:	4622      	mov	r2, r4
 800b76e:	462b      	mov	r3, r5
 800b770:	f7f4 feb2 	bl	80004d8 <__aeabi_dmul>
 800b774:	a32c      	add	r3, pc, #176	; (adr r3, 800b828 <__ieee754_acos+0x2b0>)
 800b776:	e9d3 2300 	ldrd	r2, r3, [r3]
 800b77a:	f7f4 fcf7 	bl	800016c <__adddf3>
 800b77e:	4622      	mov	r2, r4
 800b780:	462b      	mov	r3, r5
 800b782:	f7f4 fea9 	bl	80004d8 <__aeabi_dmul>
 800b786:	a32a      	add	r3, pc, #168	; (adr r3, 800b830 <__ieee754_acos+0x2b8>)
 800b788:	e9d3 2300 	ldrd	r2, r3, [r3]
 800b78c:	f7f4 fcec 	bl	8000168 <__aeabi_dsub>
 800b790:	4622      	mov	r2, r4
 800b792:	462b      	mov	r3, r5
 800b794:	f7f4 fea0 	bl	80004d8 <__aeabi_dmul>
 800b798:	2200      	movs	r2, #0
 800b79a:	4b2e      	ldr	r3, [pc, #184]	; (800b854 <__ieee754_acos+0x2dc>)
 800b79c:	f7f4 fce6 	bl	800016c <__adddf3>
 800b7a0:	4602      	mov	r2, r0
 800b7a2:	460b      	mov	r3, r1
 800b7a4:	4640      	mov	r0, r8
 800b7a6:	4649      	mov	r1, r9
 800b7a8:	f7f4 ffc0 	bl	800072c <__aeabi_ddiv>
 800b7ac:	4632      	mov	r2, r6
 800b7ae:	463b      	mov	r3, r7
 800b7b0:	f7f4 fe92 	bl	80004d8 <__aeabi_dmul>
 800b7b4:	a320      	add	r3, pc, #128	; (adr r3, 800b838 <__ieee754_acos+0x2c0>)
 800b7b6:	e9d3 2300 	ldrd	r2, r3, [r3]
 800b7ba:	f7f4 fcd5 	bl	8000168 <__aeabi_dsub>
 800b7be:	4632      	mov	r2, r6
 800b7c0:	463b      	mov	r3, r7
 800b7c2:	f7f4 fcd3 	bl	800016c <__adddf3>
 800b7c6:	4602      	mov	r2, r0
 800b7c8:	460b      	mov	r3, r1
 800b7ca:	f7f4 fccf 	bl	800016c <__adddf3>
 800b7ce:	4602      	mov	r2, r0
 800b7d0:	460b      	mov	r3, r1
 800b7d2:	a103      	add	r1, pc, #12	; (adr r1, 800b7e0 <__ieee754_acos+0x268>)
 800b7d4:	e9d1 0100 	ldrd	r0, r1, [r1]
 800b7d8:	e772      	b.n	800b6c0 <__ieee754_acos+0x148>
 800b7da:	bf00      	nop
 800b7dc:	f3af 8000 	nop.w
 800b7e0:	54442d18 	.word	0x54442d18
 800b7e4:	400921fb 	.word	0x400921fb
 800b7e8:	0dfdf709 	.word	0x0dfdf709
 800b7ec:	3f023de1 	.word	0x3f023de1
 800b7f0:	7501b288 	.word	0x7501b288
 800b7f4:	3f49efe0 	.word	0x3f49efe0
 800b7f8:	b5688f3b 	.word	0xb5688f3b
 800b7fc:	3fa48228 	.word	0x3fa48228
 800b800:	0e884455 	.word	0x0e884455
 800b804:	3fc9c155 	.word	0x3fc9c155
 800b808:	03eb6f7d 	.word	0x03eb6f7d
 800b80c:	3fd4d612 	.word	0x3fd4d612
 800b810:	55555555 	.word	0x55555555
 800b814:	3fc55555 	.word	0x3fc55555
 800b818:	b12e9282 	.word	0xb12e9282
 800b81c:	3fb3b8c5 	.word	0x3fb3b8c5
 800b820:	1b8d0159 	.word	0x1b8d0159
 800b824:	3fe6066c 	.word	0x3fe6066c
 800b828:	9c598ac8 	.word	0x9c598ac8
 800b82c:	40002ae5 	.word	0x40002ae5
 800b830:	1c8a2d4b 	.word	0x1c8a2d4b
 800b834:	40033a27 	.word	0x40033a27
 800b838:	33145c07 	.word	0x33145c07
 800b83c:	3c91a626 	.word	0x3c91a626
 800b840:	54442d18 	.word	0x54442d18
 800b844:	3ff921fb 	.word	0x3ff921fb
 800b848:	3fefffff 	.word	0x3fefffff
 800b84c:	3fdfffff 	.word	0x3fdfffff
 800b850:	3c600000 	.word	0x3c600000
 800b854:	3ff00000 	.word	0x3ff00000
 800b858:	3fe00000 	.word	0x3fe00000
 800b85c:	4602      	mov	r2, r0
 800b85e:	460b      	mov	r3, r1
 800b860:	2000      	movs	r0, #0
 800b862:	4969      	ldr	r1, [pc, #420]	; (800ba08 <__ieee754_acos+0x490>)
 800b864:	f7f4 fc80 	bl	8000168 <__aeabi_dsub>
 800b868:	2200      	movs	r2, #0
 800b86a:	4b68      	ldr	r3, [pc, #416]	; (800ba0c <__ieee754_acos+0x494>)
 800b86c:	f7f4 fe34 	bl	80004d8 <__aeabi_dmul>
 800b870:	4604      	mov	r4, r0
 800b872:	460d      	mov	r5, r1
 800b874:	f7ff fbbe 	bl	800aff4 <__ieee754_sqrt>
 800b878:	a34d      	add	r3, pc, #308	; (adr r3, 800b9b0 <__ieee754_acos+0x438>)
 800b87a:	e9d3 2300 	ldrd	r2, r3, [r3]
 800b87e:	4689      	mov	r9, r1
 800b880:	4680      	mov	r8, r0
 800b882:	4629      	mov	r1, r5
 800b884:	4620      	mov	r0, r4
 800b886:	f7f4 fe27 	bl	80004d8 <__aeabi_dmul>
 800b88a:	a34b      	add	r3, pc, #300	; (adr r3, 800b9b8 <__ieee754_acos+0x440>)
 800b88c:	e9d3 2300 	ldrd	r2, r3, [r3]
 800b890:	f7f4 fc6c 	bl	800016c <__adddf3>
 800b894:	4622      	mov	r2, r4
 800b896:	462b      	mov	r3, r5
 800b898:	f7f4 fe1e 	bl	80004d8 <__aeabi_dmul>
 800b89c:	a348      	add	r3, pc, #288	; (adr r3, 800b9c0 <__ieee754_acos+0x448>)
 800b89e:	e9d3 2300 	ldrd	r2, r3, [r3]
 800b8a2:	f7f4 fc61 	bl	8000168 <__aeabi_dsub>
 800b8a6:	4622      	mov	r2, r4
 800b8a8:	462b      	mov	r3, r5
 800b8aa:	f7f4 fe15 	bl	80004d8 <__aeabi_dmul>
 800b8ae:	a346      	add	r3, pc, #280	; (adr r3, 800b9c8 <__ieee754_acos+0x450>)
 800b8b0:	e9d3 2300 	ldrd	r2, r3, [r3]
 800b8b4:	f7f4 fc5a 	bl	800016c <__adddf3>
 800b8b8:	4622      	mov	r2, r4
 800b8ba:	462b      	mov	r3, r5
 800b8bc:	f7f4 fe0c 	bl	80004d8 <__aeabi_dmul>
 800b8c0:	a343      	add	r3, pc, #268	; (adr r3, 800b9d0 <__ieee754_acos+0x458>)
 800b8c2:	e9d3 2300 	ldrd	r2, r3, [r3]
 800b8c6:	f7f4 fc4f 	bl	8000168 <__aeabi_dsub>
 800b8ca:	4622      	mov	r2, r4
 800b8cc:	462b      	mov	r3, r5
 800b8ce:	f7f4 fe03 	bl	80004d8 <__aeabi_dmul>
 800b8d2:	a341      	add	r3, pc, #260	; (adr r3, 800b9d8 <__ieee754_acos+0x460>)
 800b8d4:	e9d3 2300 	ldrd	r2, r3, [r3]
 800b8d8:	f7f4 fc48 	bl	800016c <__adddf3>
 800b8dc:	4622      	mov	r2, r4
 800b8de:	462b      	mov	r3, r5
 800b8e0:	f7f4 fdfa 	bl	80004d8 <__aeabi_dmul>
 800b8e4:	a33e      	add	r3, pc, #248	; (adr r3, 800b9e0 <__ieee754_acos+0x468>)
 800b8e6:	e9d3 2300 	ldrd	r2, r3, [r3]
 800b8ea:	4682      	mov	sl, r0
 800b8ec:	468b      	mov	fp, r1
 800b8ee:	4620      	mov	r0, r4
 800b8f0:	4629      	mov	r1, r5
 800b8f2:	f7f4 fdf1 	bl	80004d8 <__aeabi_dmul>
 800b8f6:	a33c      	add	r3, pc, #240	; (adr r3, 800b9e8 <__ieee754_acos+0x470>)
 800b8f8:	e9d3 2300 	ldrd	r2, r3, [r3]
 800b8fc:	f7f4 fc34 	bl	8000168 <__aeabi_dsub>
 800b900:	4622      	mov	r2, r4
 800b902:	462b      	mov	r3, r5
 800b904:	f7f4 fde8 	bl	80004d8 <__aeabi_dmul>
 800b908:	a339      	add	r3, pc, #228	; (adr r3, 800b9f0 <__ieee754_acos+0x478>)
 800b90a:	e9d3 2300 	ldrd	r2, r3, [r3]
 800b90e:	f7f4 fc2d 	bl	800016c <__adddf3>
 800b912:	4622      	mov	r2, r4
 800b914:	462b      	mov	r3, r5
 800b916:	f7f4 fddf 	bl	80004d8 <__aeabi_dmul>
 800b91a:	a337      	add	r3, pc, #220	; (adr r3, 800b9f8 <__ieee754_acos+0x480>)
 800b91c:	e9d3 2300 	ldrd	r2, r3, [r3]
 800b920:	f7f4 fc22 	bl	8000168 <__aeabi_dsub>
 800b924:	4622      	mov	r2, r4
 800b926:	462b      	mov	r3, r5
 800b928:	f7f4 fdd6 	bl	80004d8 <__aeabi_dmul>
 800b92c:	2200      	movs	r2, #0
 800b92e:	4b36      	ldr	r3, [pc, #216]	; (800ba08 <__ieee754_acos+0x490>)
 800b930:	f7f4 fc1c 	bl	800016c <__adddf3>
 800b934:	4602      	mov	r2, r0
 800b936:	460b      	mov	r3, r1
 800b938:	4650      	mov	r0, sl
 800b93a:	4659      	mov	r1, fp
 800b93c:	f7f4 fef6 	bl	800072c <__aeabi_ddiv>
 800b940:	4642      	mov	r2, r8
 800b942:	464b      	mov	r3, r9
 800b944:	f7f4 fdc8 	bl	80004d8 <__aeabi_dmul>
 800b948:	2600      	movs	r6, #0
 800b94a:	4682      	mov	sl, r0
 800b94c:	468b      	mov	fp, r1
 800b94e:	4632      	mov	r2, r6
 800b950:	464b      	mov	r3, r9
 800b952:	4630      	mov	r0, r6
 800b954:	4649      	mov	r1, r9
 800b956:	f7f4 fdbf 	bl	80004d8 <__aeabi_dmul>
 800b95a:	4602      	mov	r2, r0
 800b95c:	460b      	mov	r3, r1
 800b95e:	4620      	mov	r0, r4
 800b960:	4629      	mov	r1, r5
 800b962:	f7f4 fc01 	bl	8000168 <__aeabi_dsub>
 800b966:	4632      	mov	r2, r6
 800b968:	4604      	mov	r4, r0
 800b96a:	460d      	mov	r5, r1
 800b96c:	464b      	mov	r3, r9
 800b96e:	4640      	mov	r0, r8
 800b970:	4649      	mov	r1, r9
 800b972:	f7f4 fbfb 	bl	800016c <__adddf3>
 800b976:	4602      	mov	r2, r0
 800b978:	460b      	mov	r3, r1
 800b97a:	4620      	mov	r0, r4
 800b97c:	4629      	mov	r1, r5
 800b97e:	f7f4 fed5 	bl	800072c <__aeabi_ddiv>
 800b982:	4602      	mov	r2, r0
 800b984:	460b      	mov	r3, r1
 800b986:	4650      	mov	r0, sl
 800b988:	4659      	mov	r1, fp
 800b98a:	f7f4 fbef 	bl	800016c <__adddf3>
 800b98e:	4632      	mov	r2, r6
 800b990:	464b      	mov	r3, r9
 800b992:	f7f4 fbeb 	bl	800016c <__adddf3>
 800b996:	4602      	mov	r2, r0
 800b998:	460b      	mov	r3, r1
 800b99a:	f7f4 fbe7 	bl	800016c <__adddf3>
 800b99e:	e600      	b.n	800b5a2 <__ieee754_acos+0x2a>
 800b9a0:	2000      	movs	r0, #0
 800b9a2:	2100      	movs	r1, #0
 800b9a4:	e5fd      	b.n	800b5a2 <__ieee754_acos+0x2a>
 800b9a6:	a116      	add	r1, pc, #88	; (adr r1, 800ba00 <__ieee754_acos+0x488>)
 800b9a8:	e9d1 0100 	ldrd	r0, r1, [r1]
 800b9ac:	e5f9      	b.n	800b5a2 <__ieee754_acos+0x2a>
 800b9ae:	bf00      	nop
 800b9b0:	0dfdf709 	.word	0x0dfdf709
 800b9b4:	3f023de1 	.word	0x3f023de1
 800b9b8:	7501b288 	.word	0x7501b288
 800b9bc:	3f49efe0 	.word	0x3f49efe0
 800b9c0:	b5688f3b 	.word	0xb5688f3b
 800b9c4:	3fa48228 	.word	0x3fa48228
 800b9c8:	0e884455 	.word	0x0e884455
 800b9cc:	3fc9c155 	.word	0x3fc9c155
 800b9d0:	03eb6f7d 	.word	0x03eb6f7d
 800b9d4:	3fd4d612 	.word	0x3fd4d612
 800b9d8:	55555555 	.word	0x55555555
 800b9dc:	3fc55555 	.word	0x3fc55555
 800b9e0:	b12e9282 	.word	0xb12e9282
 800b9e4:	3fb3b8c5 	.word	0x3fb3b8c5
 800b9e8:	1b8d0159 	.word	0x1b8d0159
 800b9ec:	3fe6066c 	.word	0x3fe6066c
 800b9f0:	9c598ac8 	.word	0x9c598ac8
 800b9f4:	40002ae5 	.word	0x40002ae5
 800b9f8:	1c8a2d4b 	.word	0x1c8a2d4b
 800b9fc:	40033a27 	.word	0x40033a27
 800ba00:	54442d18 	.word	0x54442d18
 800ba04:	3ff921fb 	.word	0x3ff921fb
 800ba08:	3ff00000 	.word	0x3ff00000
 800ba0c:	3fe00000 	.word	0x3fe00000

0800ba10 <__ieee754_pow>:
 800ba10:	e92d 4ff0 	stmdb	sp!, {r4, r5, r6, r7, r8, r9, sl, fp, lr}
 800ba14:	b093      	sub	sp, #76	; 0x4c
 800ba16:	e9cd 2302 	strd	r2, r3, [sp, #8]
 800ba1a:	e9dd 2702 	ldrd	r2, r7, [sp, #8]
 800ba1e:	f027 4600 	bic.w	r6, r7, #2147483648	; 0x80000000
 800ba22:	4689      	mov	r9, r1
 800ba24:	ea56 0102 	orrs.w	r1, r6, r2
 800ba28:	4680      	mov	r8, r0
 800ba2a:	d111      	bne.n	800ba50 <__ieee754_pow+0x40>
 800ba2c:	1803      	adds	r3, r0, r0
 800ba2e:	f489 2200 	eor.w	r2, r9, #524288	; 0x80000
 800ba32:	4152      	adcs	r2, r2
 800ba34:	4299      	cmp	r1, r3
 800ba36:	4b82      	ldr	r3, [pc, #520]	; (800bc40 <__ieee754_pow+0x230>)
 800ba38:	4193      	sbcs	r3, r2
 800ba3a:	f080 84ba 	bcs.w	800c3b2 <__ieee754_pow+0x9a2>
 800ba3e:	e9dd 2302 	ldrd	r2, r3, [sp, #8]
 800ba42:	4640      	mov	r0, r8
 800ba44:	4649      	mov	r1, r9
 800ba46:	f7f4 fb91 	bl	800016c <__adddf3>
 800ba4a:	4683      	mov	fp, r0
 800ba4c:	468c      	mov	ip, r1
 800ba4e:	e06f      	b.n	800bb30 <__ieee754_pow+0x120>
 800ba50:	4b7c      	ldr	r3, [pc, #496]	; (800bc44 <__ieee754_pow+0x234>)
 800ba52:	f029 4400 	bic.w	r4, r9, #2147483648	; 0x80000000
 800ba56:	429c      	cmp	r4, r3
 800ba58:	464d      	mov	r5, r9
 800ba5a:	4682      	mov	sl, r0
 800ba5c:	dc06      	bgt.n	800ba6c <__ieee754_pow+0x5c>
 800ba5e:	d101      	bne.n	800ba64 <__ieee754_pow+0x54>
 800ba60:	2800      	cmp	r0, #0
 800ba62:	d1ec      	bne.n	800ba3e <__ieee754_pow+0x2e>
 800ba64:	429e      	cmp	r6, r3
 800ba66:	dc01      	bgt.n	800ba6c <__ieee754_pow+0x5c>
 800ba68:	d10f      	bne.n	800ba8a <__ieee754_pow+0x7a>
 800ba6a:	b172      	cbz	r2, 800ba8a <__ieee754_pow+0x7a>
 800ba6c:	f105 4540 	add.w	r5, r5, #3221225472	; 0xc0000000
 800ba70:	f505 1580 	add.w	r5, r5, #1048576	; 0x100000
 800ba74:	ea55 050a 	orrs.w	r5, r5, sl
 800ba78:	d1e1      	bne.n	800ba3e <__ieee754_pow+0x2e>
 800ba7a:	e9dd 3202 	ldrd	r3, r2, [sp, #8]
 800ba7e:	18db      	adds	r3, r3, r3
 800ba80:	f482 2200 	eor.w	r2, r2, #524288	; 0x80000
 800ba84:	4152      	adcs	r2, r2
 800ba86:	429d      	cmp	r5, r3
 800ba88:	e7d5      	b.n	800ba36 <__ieee754_pow+0x26>
 800ba8a:	2d00      	cmp	r5, #0
 800ba8c:	da39      	bge.n	800bb02 <__ieee754_pow+0xf2>
 800ba8e:	4b6e      	ldr	r3, [pc, #440]	; (800bc48 <__ieee754_pow+0x238>)
 800ba90:	429e      	cmp	r6, r3
 800ba92:	dc52      	bgt.n	800bb3a <__ieee754_pow+0x12a>
 800ba94:	f1a3 7354 	sub.w	r3, r3, #55574528	; 0x3500000
 800ba98:	429e      	cmp	r6, r3
 800ba9a:	f340 849d 	ble.w	800c3d8 <__ieee754_pow+0x9c8>
 800ba9e:	1533      	asrs	r3, r6, #20
 800baa0:	f2a3 33ff 	subw	r3, r3, #1023	; 0x3ff
 800baa4:	2b14      	cmp	r3, #20
 800baa6:	dd0f      	ble.n	800bac8 <__ieee754_pow+0xb8>
 800baa8:	f1c3 0334 	rsb	r3, r3, #52	; 0x34
 800baac:	fa22 f103 	lsr.w	r1, r2, r3
 800bab0:	fa01 f303 	lsl.w	r3, r1, r3
 800bab4:	4293      	cmp	r3, r2
 800bab6:	f040 848f 	bne.w	800c3d8 <__ieee754_pow+0x9c8>
 800baba:	f001 0101 	and.w	r1, r1, #1
 800babe:	f1c1 0302 	rsb	r3, r1, #2
 800bac2:	9300      	str	r3, [sp, #0]
 800bac4:	b182      	cbz	r2, 800bae8 <__ieee754_pow+0xd8>
 800bac6:	e05d      	b.n	800bb84 <__ieee754_pow+0x174>
 800bac8:	2a00      	cmp	r2, #0
 800baca:	d159      	bne.n	800bb80 <__ieee754_pow+0x170>
 800bacc:	f1c3 0314 	rsb	r3, r3, #20
 800bad0:	fa46 f103 	asr.w	r1, r6, r3
 800bad4:	fa01 f303 	lsl.w	r3, r1, r3
 800bad8:	42b3      	cmp	r3, r6
 800bada:	f040 847a 	bne.w	800c3d2 <__ieee754_pow+0x9c2>
 800bade:	f001 0101 	and.w	r1, r1, #1
 800bae2:	f1c1 0302 	rsb	r3, r1, #2
 800bae6:	9300      	str	r3, [sp, #0]
 800bae8:	4b58      	ldr	r3, [pc, #352]	; (800bc4c <__ieee754_pow+0x23c>)
 800baea:	429e      	cmp	r6, r3
 800baec:	d132      	bne.n	800bb54 <__ieee754_pow+0x144>
 800baee:	2f00      	cmp	r7, #0
 800baf0:	f280 846b 	bge.w	800c3ca <__ieee754_pow+0x9ba>
 800baf4:	4642      	mov	r2, r8
 800baf6:	464b      	mov	r3, r9
 800baf8:	2000      	movs	r0, #0
 800bafa:	4954      	ldr	r1, [pc, #336]	; (800bc4c <__ieee754_pow+0x23c>)
 800bafc:	f7f4 fe16 	bl	800072c <__aeabi_ddiv>
 800bb00:	e7a3      	b.n	800ba4a <__ieee754_pow+0x3a>
 800bb02:	2300      	movs	r3, #0
 800bb04:	9300      	str	r3, [sp, #0]
 800bb06:	2a00      	cmp	r2, #0
 800bb08:	d13c      	bne.n	800bb84 <__ieee754_pow+0x174>
 800bb0a:	4b4e      	ldr	r3, [pc, #312]	; (800bc44 <__ieee754_pow+0x234>)
 800bb0c:	429e      	cmp	r6, r3
 800bb0e:	d1eb      	bne.n	800bae8 <__ieee754_pow+0xd8>
 800bb10:	f104 4340 	add.w	r3, r4, #3221225472	; 0xc0000000
 800bb14:	f503 1380 	add.w	r3, r3, #1048576	; 0x100000
 800bb18:	ea53 030a 	orrs.w	r3, r3, sl
 800bb1c:	f000 8449 	beq.w	800c3b2 <__ieee754_pow+0x9a2>
 800bb20:	4b4b      	ldr	r3, [pc, #300]	; (800bc50 <__ieee754_pow+0x240>)
 800bb22:	429c      	cmp	r4, r3
 800bb24:	dd0b      	ble.n	800bb3e <__ieee754_pow+0x12e>
 800bb26:	2f00      	cmp	r7, #0
 800bb28:	f2c0 8449 	blt.w	800c3be <__ieee754_pow+0x9ae>
 800bb2c:	e9dd bc02 	ldrd	fp, ip, [sp, #8]
 800bb30:	4658      	mov	r0, fp
 800bb32:	4661      	mov	r1, ip
 800bb34:	b013      	add	sp, #76	; 0x4c
 800bb36:	e8bd 8ff0 	ldmia.w	sp!, {r4, r5, r6, r7, r8, r9, sl, fp, pc}
 800bb3a:	2302      	movs	r3, #2
 800bb3c:	e7e2      	b.n	800bb04 <__ieee754_pow+0xf4>
 800bb3e:	2f00      	cmp	r7, #0
 800bb40:	f04f 0b00 	mov.w	fp, #0
 800bb44:	f04f 0c00 	mov.w	ip, #0
 800bb48:	daf2      	bge.n	800bb30 <__ieee754_pow+0x120>
 800bb4a:	e9dd b302 	ldrd	fp, r3, [sp, #8]
 800bb4e:	f103 4c00 	add.w	ip, r3, #2147483648	; 0x80000000
 800bb52:	e7ed      	b.n	800bb30 <__ieee754_pow+0x120>
 800bb54:	f1b7 4f80 	cmp.w	r7, #1073741824	; 0x40000000
 800bb58:	d106      	bne.n	800bb68 <__ieee754_pow+0x158>
 800bb5a:	4642      	mov	r2, r8
 800bb5c:	464b      	mov	r3, r9
 800bb5e:	4640      	mov	r0, r8
 800bb60:	4649      	mov	r1, r9
 800bb62:	f7f4 fcb9 	bl	80004d8 <__aeabi_dmul>
 800bb66:	e770      	b.n	800ba4a <__ieee754_pow+0x3a>
 800bb68:	4b3a      	ldr	r3, [pc, #232]	; (800bc54 <__ieee754_pow+0x244>)
 800bb6a:	429f      	cmp	r7, r3
 800bb6c:	d10a      	bne.n	800bb84 <__ieee754_pow+0x174>
 800bb6e:	2d00      	cmp	r5, #0
 800bb70:	db08      	blt.n	800bb84 <__ieee754_pow+0x174>
 800bb72:	4640      	mov	r0, r8
 800bb74:	4649      	mov	r1, r9
 800bb76:	b013      	add	sp, #76	; 0x4c
 800bb78:	e8bd 4ff0 	ldmia.w	sp!, {r4, r5, r6, r7, r8, r9, sl, fp, lr}
 800bb7c:	f7ff ba3a 	b.w	800aff4 <__ieee754_sqrt>
 800bb80:	2300      	movs	r3, #0
 800bb82:	9300      	str	r3, [sp, #0]
 800bb84:	4640      	mov	r0, r8
 800bb86:	4649      	mov	r1, r9
 800bb88:	f7ff f9c2 	bl	800af10 <fabs>
 800bb8c:	4683      	mov	fp, r0
 800bb8e:	468c      	mov	ip, r1
 800bb90:	f1ba 0f00 	cmp.w	sl, #0
 800bb94:	d128      	bne.n	800bbe8 <__ieee754_pow+0x1d8>
 800bb96:	b124      	cbz	r4, 800bba2 <__ieee754_pow+0x192>
 800bb98:	4b2c      	ldr	r3, [pc, #176]	; (800bc4c <__ieee754_pow+0x23c>)
 800bb9a:	f025 4240 	bic.w	r2, r5, #3221225472	; 0xc0000000
 800bb9e:	429a      	cmp	r2, r3
 800bba0:	d122      	bne.n	800bbe8 <__ieee754_pow+0x1d8>
 800bba2:	2f00      	cmp	r7, #0
 800bba4:	da07      	bge.n	800bbb6 <__ieee754_pow+0x1a6>
 800bba6:	465a      	mov	r2, fp
 800bba8:	4663      	mov	r3, ip
 800bbaa:	2000      	movs	r0, #0
 800bbac:	4927      	ldr	r1, [pc, #156]	; (800bc4c <__ieee754_pow+0x23c>)
 800bbae:	f7f4 fdbd 	bl	800072c <__aeabi_ddiv>
 800bbb2:	4683      	mov	fp, r0
 800bbb4:	468c      	mov	ip, r1
 800bbb6:	2d00      	cmp	r5, #0
 800bbb8:	daba      	bge.n	800bb30 <__ieee754_pow+0x120>
 800bbba:	9b00      	ldr	r3, [sp, #0]
 800bbbc:	f104 4440 	add.w	r4, r4, #3221225472	; 0xc0000000
 800bbc0:	f504 1480 	add.w	r4, r4, #1048576	; 0x100000
 800bbc4:	431c      	orrs	r4, r3
 800bbc6:	d108      	bne.n	800bbda <__ieee754_pow+0x1ca>
 800bbc8:	465a      	mov	r2, fp
 800bbca:	4663      	mov	r3, ip
 800bbcc:	4658      	mov	r0, fp
 800bbce:	4661      	mov	r1, ip
 800bbd0:	f7f4 faca 	bl	8000168 <__aeabi_dsub>
 800bbd4:	4602      	mov	r2, r0
 800bbd6:	460b      	mov	r3, r1
 800bbd8:	e790      	b.n	800bafc <__ieee754_pow+0xec>
 800bbda:	9b00      	ldr	r3, [sp, #0]
 800bbdc:	2b01      	cmp	r3, #1
 800bbde:	d1a7      	bne.n	800bb30 <__ieee754_pow+0x120>
 800bbe0:	f10c 4300 	add.w	r3, ip, #2147483648	; 0x80000000
 800bbe4:	469c      	mov	ip, r3
 800bbe6:	e7a3      	b.n	800bb30 <__ieee754_pow+0x120>
 800bbe8:	0feb      	lsrs	r3, r5, #31
 800bbea:	3b01      	subs	r3, #1
 800bbec:	930c      	str	r3, [sp, #48]	; 0x30
 800bbee:	9a0c      	ldr	r2, [sp, #48]	; 0x30
 800bbf0:	9b00      	ldr	r3, [sp, #0]
 800bbf2:	4313      	orrs	r3, r2
 800bbf4:	d104      	bne.n	800bc00 <__ieee754_pow+0x1f0>
 800bbf6:	4642      	mov	r2, r8
 800bbf8:	464b      	mov	r3, r9
 800bbfa:	4640      	mov	r0, r8
 800bbfc:	4649      	mov	r1, r9
 800bbfe:	e7e7      	b.n	800bbd0 <__ieee754_pow+0x1c0>
 800bc00:	4b15      	ldr	r3, [pc, #84]	; (800bc58 <__ieee754_pow+0x248>)
 800bc02:	429e      	cmp	r6, r3
 800bc04:	f340 80f6 	ble.w	800bdf4 <__ieee754_pow+0x3e4>
 800bc08:	f103 7304 	add.w	r3, r3, #34603008	; 0x2100000
 800bc0c:	429e      	cmp	r6, r3
 800bc0e:	4b10      	ldr	r3, [pc, #64]	; (800bc50 <__ieee754_pow+0x240>)
 800bc10:	dd09      	ble.n	800bc26 <__ieee754_pow+0x216>
 800bc12:	429c      	cmp	r4, r3
 800bc14:	dc0c      	bgt.n	800bc30 <__ieee754_pow+0x220>
 800bc16:	2f00      	cmp	r7, #0
 800bc18:	da0c      	bge.n	800bc34 <__ieee754_pow+0x224>
 800bc1a:	2000      	movs	r0, #0
 800bc1c:	b013      	add	sp, #76	; 0x4c
 800bc1e:	e8bd 4ff0 	ldmia.w	sp!, {r4, r5, r6, r7, r8, r9, sl, fp, lr}
 800bc22:	f001 b83a 	b.w	800cc9a <__math_oflow>
 800bc26:	429c      	cmp	r4, r3
 800bc28:	dbf5      	blt.n	800bc16 <__ieee754_pow+0x206>
 800bc2a:	4b08      	ldr	r3, [pc, #32]	; (800bc4c <__ieee754_pow+0x23c>)
 800bc2c:	429c      	cmp	r4, r3
 800bc2e:	dd15      	ble.n	800bc5c <__ieee754_pow+0x24c>
 800bc30:	2f00      	cmp	r7, #0
 800bc32:	dcf2      	bgt.n	800bc1a <__ieee754_pow+0x20a>
 800bc34:	2000      	movs	r0, #0
 800bc36:	b013      	add	sp, #76	; 0x4c
 800bc38:	e8bd 4ff0 	ldmia.w	sp!, {r4, r5, r6, r7, r8, r9, sl, fp, lr}
 800bc3c:	f001 b828 	b.w	800cc90 <__math_uflow>
 800bc40:	fff00000 	.word	0xfff00000
 800bc44:	7ff00000 	.word	0x7ff00000
 800bc48:	433fffff 	.word	0x433fffff
 800bc4c:	3ff00000 	.word	0x3ff00000
 800bc50:	3fefffff 	.word	0x3fefffff
 800bc54:	3fe00000 	.word	0x3fe00000
 800bc58:	41e00000 	.word	0x41e00000
 800bc5c:	4661      	mov	r1, ip
 800bc5e:	2200      	movs	r2, #0
 800bc60:	4658      	mov	r0, fp
 800bc62:	4b5f      	ldr	r3, [pc, #380]	; (800bde0 <__ieee754_pow+0x3d0>)
 800bc64:	f7f4 fa80 	bl	8000168 <__aeabi_dsub>
 800bc68:	a355      	add	r3, pc, #340	; (adr r3, 800bdc0 <__ieee754_pow+0x3b0>)
 800bc6a:	e9d3 2300 	ldrd	r2, r3, [r3]
 800bc6e:	4604      	mov	r4, r0
 800bc70:	460d      	mov	r5, r1
 800bc72:	f7f4 fc31 	bl	80004d8 <__aeabi_dmul>
 800bc76:	a354      	add	r3, pc, #336	; (adr r3, 800bdc8 <__ieee754_pow+0x3b8>)
 800bc78:	e9d3 2300 	ldrd	r2, r3, [r3]
 800bc7c:	4606      	mov	r6, r0
 800bc7e:	460f      	mov	r7, r1
 800bc80:	4620      	mov	r0, r4
 800bc82:	4629      	mov	r1, r5
 800bc84:	f7f4 fc28 	bl	80004d8 <__aeabi_dmul>
 800bc88:	2200      	movs	r2, #0
 800bc8a:	4682      	mov	sl, r0
 800bc8c:	468b      	mov	fp, r1
 800bc8e:	4620      	mov	r0, r4
 800bc90:	4629      	mov	r1, r5
 800bc92:	4b54      	ldr	r3, [pc, #336]	; (800bde4 <__ieee754_pow+0x3d4>)
 800bc94:	f7f4 fc20 	bl	80004d8 <__aeabi_dmul>
 800bc98:	4602      	mov	r2, r0
 800bc9a:	460b      	mov	r3, r1
 800bc9c:	a14c      	add	r1, pc, #304	; (adr r1, 800bdd0 <__ieee754_pow+0x3c0>)
 800bc9e:	e9d1 0100 	ldrd	r0, r1, [r1]
 800bca2:	f7f4 fa61 	bl	8000168 <__aeabi_dsub>
 800bca6:	4622      	mov	r2, r4
 800bca8:	462b      	mov	r3, r5
 800bcaa:	f7f4 fc15 	bl	80004d8 <__aeabi_dmul>
 800bcae:	4602      	mov	r2, r0
 800bcb0:	460b      	mov	r3, r1
 800bcb2:	2000      	movs	r0, #0
 800bcb4:	494c      	ldr	r1, [pc, #304]	; (800bde8 <__ieee754_pow+0x3d8>)
 800bcb6:	f7f4 fa57 	bl	8000168 <__aeabi_dsub>
 800bcba:	4622      	mov	r2, r4
 800bcbc:	462b      	mov	r3, r5
 800bcbe:	4680      	mov	r8, r0
 800bcc0:	4689      	mov	r9, r1
 800bcc2:	4620      	mov	r0, r4
 800bcc4:	4629      	mov	r1, r5
 800bcc6:	f7f4 fc07 	bl	80004d8 <__aeabi_dmul>
 800bcca:	4602      	mov	r2, r0
 800bccc:	460b      	mov	r3, r1
 800bcce:	4640      	mov	r0, r8
 800bcd0:	4649      	mov	r1, r9
 800bcd2:	f7f4 fc01 	bl	80004d8 <__aeabi_dmul>
 800bcd6:	a340      	add	r3, pc, #256	; (adr r3, 800bdd8 <__ieee754_pow+0x3c8>)
 800bcd8:	e9d3 2300 	ldrd	r2, r3, [r3]
 800bcdc:	f7f4 fbfc 	bl	80004d8 <__aeabi_dmul>
 800bce0:	4602      	mov	r2, r0
 800bce2:	460b      	mov	r3, r1
 800bce4:	4650      	mov	r0, sl
 800bce6:	4659      	mov	r1, fp
 800bce8:	f7f4 fa3e 	bl	8000168 <__aeabi_dsub>
 800bcec:	4602      	mov	r2, r0
 800bcee:	460b      	mov	r3, r1
 800bcf0:	4604      	mov	r4, r0
 800bcf2:	460d      	mov	r5, r1
 800bcf4:	4630      	mov	r0, r6
 800bcf6:	4639      	mov	r1, r7
 800bcf8:	f7f4 fa38 	bl	800016c <__adddf3>
 800bcfc:	2000      	movs	r0, #0
 800bcfe:	4632      	mov	r2, r6
 800bd00:	463b      	mov	r3, r7
 800bd02:	4682      	mov	sl, r0
 800bd04:	468b      	mov	fp, r1
 800bd06:	f7f4 fa2f 	bl	8000168 <__aeabi_dsub>
 800bd0a:	4602      	mov	r2, r0
 800bd0c:	460b      	mov	r3, r1
 800bd0e:	4620      	mov	r0, r4
 800bd10:	4629      	mov	r1, r5
 800bd12:	f7f4 fa29 	bl	8000168 <__aeabi_dsub>
 800bd16:	e9dd 6702 	ldrd	r6, r7, [sp, #8]
 800bd1a:	9b00      	ldr	r3, [sp, #0]
 800bd1c:	9a0c      	ldr	r2, [sp, #48]	; 0x30
 800bd1e:	3b01      	subs	r3, #1
 800bd20:	4313      	orrs	r3, r2
 800bd22:	f04f 0600 	mov.w	r6, #0
 800bd26:	f04f 0200 	mov.w	r2, #0
 800bd2a:	bf0c      	ite	eq
 800bd2c:	4b2f      	ldreq	r3, [pc, #188]	; (800bdec <__ieee754_pow+0x3dc>)
 800bd2e:	4b2c      	ldrne	r3, [pc, #176]	; (800bde0 <__ieee754_pow+0x3d0>)
 800bd30:	4604      	mov	r4, r0
 800bd32:	460d      	mov	r5, r1
 800bd34:	e9dd 0102 	ldrd	r0, r1, [sp, #8]
 800bd38:	e9cd 2300 	strd	r2, r3, [sp]
 800bd3c:	4632      	mov	r2, r6
 800bd3e:	463b      	mov	r3, r7
 800bd40:	f7f4 fa12 	bl	8000168 <__aeabi_dsub>
 800bd44:	4652      	mov	r2, sl
 800bd46:	465b      	mov	r3, fp
 800bd48:	f7f4 fbc6 	bl	80004d8 <__aeabi_dmul>
 800bd4c:	e9dd 2302 	ldrd	r2, r3, [sp, #8]
 800bd50:	4680      	mov	r8, r0
 800bd52:	4689      	mov	r9, r1
 800bd54:	4620      	mov	r0, r4
 800bd56:	4629      	mov	r1, r5
 800bd58:	f7f4 fbbe 	bl	80004d8 <__aeabi_dmul>
 800bd5c:	4602      	mov	r2, r0
 800bd5e:	460b      	mov	r3, r1
 800bd60:	4640      	mov	r0, r8
 800bd62:	4649      	mov	r1, r9
 800bd64:	f7f4 fa02 	bl	800016c <__adddf3>
 800bd68:	4632      	mov	r2, r6
 800bd6a:	463b      	mov	r3, r7
 800bd6c:	4680      	mov	r8, r0
 800bd6e:	4689      	mov	r9, r1
 800bd70:	4650      	mov	r0, sl
 800bd72:	4659      	mov	r1, fp
 800bd74:	f7f4 fbb0 	bl	80004d8 <__aeabi_dmul>
 800bd78:	4604      	mov	r4, r0
 800bd7a:	460d      	mov	r5, r1
 800bd7c:	460b      	mov	r3, r1
 800bd7e:	4602      	mov	r2, r0
 800bd80:	4649      	mov	r1, r9
 800bd82:	4640      	mov	r0, r8
 800bd84:	e9cd 4502 	strd	r4, r5, [sp, #8]
 800bd88:	f7f4 f9f0 	bl	800016c <__adddf3>
 800bd8c:	4b18      	ldr	r3, [pc, #96]	; (800bdf0 <__ieee754_pow+0x3e0>)
 800bd8e:	4682      	mov	sl, r0
 800bd90:	4299      	cmp	r1, r3
 800bd92:	460f      	mov	r7, r1
 800bd94:	460e      	mov	r6, r1
 800bd96:	f340 82e7 	ble.w	800c368 <__ieee754_pow+0x958>
 800bd9a:	f101 433f 	add.w	r3, r1, #3204448256	; 0xbf000000
 800bd9e:	f503 03e0 	add.w	r3, r3, #7340032	; 0x700000
 800bda2:	4303      	orrs	r3, r0
 800bda4:	f000 81e2 	beq.w	800c16c <__ieee754_pow+0x75c>
 800bda8:	e9dd 0100 	ldrd	r0, r1, [sp]
 800bdac:	2200      	movs	r2, #0
 800bdae:	2300      	movs	r3, #0
 800bdb0:	f7f4 fe04 	bl	80009bc <__aeabi_dcmplt>
 800bdb4:	3800      	subs	r0, #0
 800bdb6:	bf18      	it	ne
 800bdb8:	2001      	movne	r0, #1
 800bdba:	e72f      	b.n	800bc1c <__ieee754_pow+0x20c>
 800bdbc:	f3af 8000 	nop.w
 800bdc0:	60000000 	.word	0x60000000
 800bdc4:	3ff71547 	.word	0x3ff71547
 800bdc8:	f85ddf44 	.word	0xf85ddf44
 800bdcc:	3e54ae0b 	.word	0x3e54ae0b
 800bdd0:	55555555 	.word	0x55555555
 800bdd4:	3fd55555 	.word	0x3fd55555
 800bdd8:	652b82fe 	.word	0x652b82fe
 800bddc:	3ff71547 	.word	0x3ff71547
 800bde0:	3ff00000 	.word	0x3ff00000
 800bde4:	3fd00000 	.word	0x3fd00000
 800bde8:	3fe00000 	.word	0x3fe00000
 800bdec:	bff00000 	.word	0xbff00000
 800bdf0:	408fffff 	.word	0x408fffff
 800bdf4:	4bd4      	ldr	r3, [pc, #848]	; (800c148 <__ieee754_pow+0x738>)
 800bdf6:	2200      	movs	r2, #0
 800bdf8:	402b      	ands	r3, r5
 800bdfa:	b943      	cbnz	r3, 800be0e <__ieee754_pow+0x3fe>
 800bdfc:	4658      	mov	r0, fp
 800bdfe:	4661      	mov	r1, ip
 800be00:	4bd2      	ldr	r3, [pc, #840]	; (800c14c <__ieee754_pow+0x73c>)
 800be02:	f7f4 fb69 	bl	80004d8 <__aeabi_dmul>
 800be06:	f06f 0234 	mvn.w	r2, #52	; 0x34
 800be0a:	4683      	mov	fp, r0
 800be0c:	460c      	mov	r4, r1
 800be0e:	1523      	asrs	r3, r4, #20
 800be10:	f2a3 33ff 	subw	r3, r3, #1023	; 0x3ff
 800be14:	4413      	add	r3, r2
 800be16:	930b      	str	r3, [sp, #44]	; 0x2c
 800be18:	4bcd      	ldr	r3, [pc, #820]	; (800c150 <__ieee754_pow+0x740>)
 800be1a:	f3c4 0413 	ubfx	r4, r4, #0, #20
 800be1e:	f044 557f 	orr.w	r5, r4, #1069547520	; 0x3fc00000
 800be22:	429c      	cmp	r4, r3
 800be24:	f445 1540 	orr.w	r5, r5, #3145728	; 0x300000
 800be28:	dd08      	ble.n	800be3c <__ieee754_pow+0x42c>
 800be2a:	4bca      	ldr	r3, [pc, #808]	; (800c154 <__ieee754_pow+0x744>)
 800be2c:	429c      	cmp	r4, r3
 800be2e:	f340 8164 	ble.w	800c0fa <__ieee754_pow+0x6ea>
 800be32:	9b0b      	ldr	r3, [sp, #44]	; 0x2c
 800be34:	f5a5 1580 	sub.w	r5, r5, #1048576	; 0x100000
 800be38:	3301      	adds	r3, #1
 800be3a:	930b      	str	r3, [sp, #44]	; 0x2c
 800be3c:	2600      	movs	r6, #0
 800be3e:	00f3      	lsls	r3, r6, #3
 800be40:	930d      	str	r3, [sp, #52]	; 0x34
 800be42:	4bc5      	ldr	r3, [pc, #788]	; (800c158 <__ieee754_pow+0x748>)
 800be44:	4658      	mov	r0, fp
 800be46:	eb03 03c6 	add.w	r3, r3, r6, lsl #3
 800be4a:	e9d3 3400 	ldrd	r3, r4, [r3]
 800be4e:	4629      	mov	r1, r5
 800be50:	461a      	mov	r2, r3
 800be52:	e9cd 3408 	strd	r3, r4, [sp, #32]
 800be56:	4623      	mov	r3, r4
 800be58:	f7f4 f986 	bl	8000168 <__aeabi_dsub>
 800be5c:	46da      	mov	sl, fp
 800be5e:	462b      	mov	r3, r5
 800be60:	4652      	mov	r2, sl
 800be62:	e9cd 010e 	strd	r0, r1, [sp, #56]	; 0x38
 800be66:	e9dd 0108 	ldrd	r0, r1, [sp, #32]
 800be6a:	f7f4 f97f 	bl	800016c <__adddf3>
 800be6e:	4602      	mov	r2, r0
 800be70:	460b      	mov	r3, r1
 800be72:	2000      	movs	r0, #0
 800be74:	49b9      	ldr	r1, [pc, #740]	; (800c15c <__ieee754_pow+0x74c>)
 800be76:	f7f4 fc59 	bl	800072c <__aeabi_ddiv>
 800be7a:	4602      	mov	r2, r0
 800be7c:	460b      	mov	r3, r1
 800be7e:	e9cd 0110 	strd	r0, r1, [sp, #64]	; 0x40
 800be82:	e9dd 010e 	ldrd	r0, r1, [sp, #56]	; 0x38
 800be86:	f7f4 fb27 	bl	80004d8 <__aeabi_dmul>
 800be8a:	e9cd 0106 	strd	r0, r1, [sp, #24]
 800be8e:	e9dd 3406 	ldrd	r3, r4, [sp, #24]
 800be92:	e9cd 3404 	strd	r3, r4, [sp, #16]
 800be96:	2300      	movs	r3, #0
 800be98:	2200      	movs	r2, #0
 800be9a:	46ab      	mov	fp, r5
 800be9c:	106d      	asrs	r5, r5, #1
 800be9e:	f045 5500 	orr.w	r5, r5, #536870912	; 0x20000000
 800bea2:	9304      	str	r3, [sp, #16]
 800bea4:	f505 2500 	add.w	r5, r5, #524288	; 0x80000
 800bea8:	e9dd 8904 	ldrd	r8, r9, [sp, #16]
 800beac:	eb05 4386 	add.w	r3, r5, r6, lsl #18
 800beb0:	4640      	mov	r0, r8
 800beb2:	4649      	mov	r1, r9
 800beb4:	4614      	mov	r4, r2
 800beb6:	461d      	mov	r5, r3
 800beb8:	f7f4 fb0e 	bl	80004d8 <__aeabi_dmul>
 800bebc:	4602      	mov	r2, r0
 800bebe:	460b      	mov	r3, r1
 800bec0:	e9dd 010e 	ldrd	r0, r1, [sp, #56]	; 0x38
 800bec4:	f7f4 f950 	bl	8000168 <__aeabi_dsub>
 800bec8:	e9dd 2308 	ldrd	r2, r3, [sp, #32]
 800becc:	4606      	mov	r6, r0
 800bece:	460f      	mov	r7, r1
 800bed0:	4620      	mov	r0, r4
 800bed2:	4629      	mov	r1, r5
 800bed4:	f7f4 f948 	bl	8000168 <__aeabi_dsub>
 800bed8:	4602      	mov	r2, r0
 800beda:	460b      	mov	r3, r1
 800bedc:	4650      	mov	r0, sl
 800bede:	4659      	mov	r1, fp
 800bee0:	f7f4 f942 	bl	8000168 <__aeabi_dsub>
 800bee4:	4642      	mov	r2, r8
 800bee6:	464b      	mov	r3, r9
 800bee8:	f7f4 faf6 	bl	80004d8 <__aeabi_dmul>
 800beec:	4602      	mov	r2, r0
 800beee:	460b      	mov	r3, r1
 800bef0:	4630      	mov	r0, r6
 800bef2:	4639      	mov	r1, r7
 800bef4:	f7f4 f938 	bl	8000168 <__aeabi_dsub>
 800bef8:	e9dd 2310 	ldrd	r2, r3, [sp, #64]	; 0x40
 800befc:	f7f4 faec 	bl	80004d8 <__aeabi_dmul>
 800bf00:	e9dd 2306 	ldrd	r2, r3, [sp, #24]
 800bf04:	4682      	mov	sl, r0
 800bf06:	468b      	mov	fp, r1
 800bf08:	4610      	mov	r0, r2
 800bf0a:	4619      	mov	r1, r3
 800bf0c:	f7f4 fae4 	bl	80004d8 <__aeabi_dmul>
 800bf10:	a37b      	add	r3, pc, #492	; (adr r3, 800c100 <__ieee754_pow+0x6f0>)
 800bf12:	e9d3 2300 	ldrd	r2, r3, [r3]
 800bf16:	4604      	mov	r4, r0
 800bf18:	460d      	mov	r5, r1
 800bf1a:	f7f4 fadd 	bl	80004d8 <__aeabi_dmul>
 800bf1e:	a37a      	add	r3, pc, #488	; (adr r3, 800c108 <__ieee754_pow+0x6f8>)
 800bf20:	e9d3 2300 	ldrd	r2, r3, [r3]
 800bf24:	f7f4 f922 	bl	800016c <__adddf3>
 800bf28:	4622      	mov	r2, r4
 800bf2a:	462b      	mov	r3, r5
 800bf2c:	f7f4 fad4 	bl	80004d8 <__aeabi_dmul>
 800bf30:	a377      	add	r3, pc, #476	; (adr r3, 800c110 <__ieee754_pow+0x700>)
 800bf32:	e9d3 2300 	ldrd	r2, r3, [r3]
 800bf36:	f7f4 f919 	bl	800016c <__adddf3>
 800bf3a:	4622      	mov	r2, r4
 800bf3c:	462b      	mov	r3, r5
 800bf3e:	f7f4 facb 	bl	80004d8 <__aeabi_dmul>
 800bf42:	a375      	add	r3, pc, #468	; (adr r3, 800c118 <__ieee754_pow+0x708>)
 800bf44:	e9d3 2300 	ldrd	r2, r3, [r3]
 800bf48:	f7f4 f910 	bl	800016c <__adddf3>
 800bf4c:	4622      	mov	r2, r4
 800bf4e:	462b      	mov	r3, r5
 800bf50:	f7f4 fac2 	bl	80004d8 <__aeabi_dmul>
 800bf54:	a372      	add	r3, pc, #456	; (adr r3, 800c120 <__ieee754_pow+0x710>)
 800bf56:	e9d3 2300 	ldrd	r2, r3, [r3]
 800bf5a:	f7f4 f907 	bl	800016c <__adddf3>
 800bf5e:	4622      	mov	r2, r4
 800bf60:	462b      	mov	r3, r5
 800bf62:	f7f4 fab9 	bl	80004d8 <__aeabi_dmul>
 800bf66:	a370      	add	r3, pc, #448	; (adr r3, 800c128 <__ieee754_pow+0x718>)
 800bf68:	e9d3 2300 	ldrd	r2, r3, [r3]
 800bf6c:	f7f4 f8fe 	bl	800016c <__adddf3>
 800bf70:	4622      	mov	r2, r4
 800bf72:	4606      	mov	r6, r0
 800bf74:	460f      	mov	r7, r1
 800bf76:	462b      	mov	r3, r5
 800bf78:	4620      	mov	r0, r4
 800bf7a:	4629      	mov	r1, r5
 800bf7c:	f7f4 faac 	bl	80004d8 <__aeabi_dmul>
 800bf80:	4602      	mov	r2, r0
 800bf82:	460b      	mov	r3, r1
 800bf84:	4630      	mov	r0, r6
 800bf86:	4639      	mov	r1, r7
 800bf88:	f7f4 faa6 	bl	80004d8 <__aeabi_dmul>
 800bf8c:	4604      	mov	r4, r0
 800bf8e:	460d      	mov	r5, r1
 800bf90:	e9dd 0106 	ldrd	r0, r1, [sp, #24]
 800bf94:	4642      	mov	r2, r8
 800bf96:	464b      	mov	r3, r9
 800bf98:	f7f4 f8e8 	bl	800016c <__adddf3>
 800bf9c:	4652      	mov	r2, sl
 800bf9e:	465b      	mov	r3, fp
 800bfa0:	f7f4 fa9a 	bl	80004d8 <__aeabi_dmul>
 800bfa4:	4622      	mov	r2, r4
 800bfa6:	462b      	mov	r3, r5
 800bfa8:	f7f4 f8e0 	bl	800016c <__adddf3>
 800bfac:	4642      	mov	r2, r8
 800bfae:	4606      	mov	r6, r0
 800bfb0:	460f      	mov	r7, r1
 800bfb2:	464b      	mov	r3, r9
 800bfb4:	4640      	mov	r0, r8
 800bfb6:	4649      	mov	r1, r9
 800bfb8:	f7f4 fa8e 	bl	80004d8 <__aeabi_dmul>
 800bfbc:	4602      	mov	r2, r0
 800bfbe:	460b      	mov	r3, r1
 800bfc0:	e9cd 2308 	strd	r2, r3, [sp, #32]
 800bfc4:	2200      	movs	r2, #0
 800bfc6:	4b66      	ldr	r3, [pc, #408]	; (800c160 <__ieee754_pow+0x750>)
 800bfc8:	f7f4 f8d0 	bl	800016c <__adddf3>
 800bfcc:	4632      	mov	r2, r6
 800bfce:	463b      	mov	r3, r7
 800bfd0:	f7f4 f8cc 	bl	800016c <__adddf3>
 800bfd4:	2400      	movs	r4, #0
 800bfd6:	460d      	mov	r5, r1
 800bfd8:	4622      	mov	r2, r4
 800bfda:	460b      	mov	r3, r1
 800bfdc:	4640      	mov	r0, r8
 800bfde:	4649      	mov	r1, r9
 800bfe0:	f7f4 fa7a 	bl	80004d8 <__aeabi_dmul>
 800bfe4:	2200      	movs	r2, #0
 800bfe6:	4680      	mov	r8, r0
 800bfe8:	4689      	mov	r9, r1
 800bfea:	4620      	mov	r0, r4
 800bfec:	4629      	mov	r1, r5
 800bfee:	4b5c      	ldr	r3, [pc, #368]	; (800c160 <__ieee754_pow+0x750>)
 800bff0:	f7f4 f8ba 	bl	8000168 <__aeabi_dsub>
 800bff4:	e9dd 2308 	ldrd	r2, r3, [sp, #32]
 800bff8:	f7f4 f8b6 	bl	8000168 <__aeabi_dsub>
 800bffc:	4602      	mov	r2, r0
 800bffe:	460b      	mov	r3, r1
 800c000:	4630      	mov	r0, r6
 800c002:	4639      	mov	r1, r7
 800c004:	f7f4 f8b0 	bl	8000168 <__aeabi_dsub>
 800c008:	e9dd 2306 	ldrd	r2, r3, [sp, #24]
 800c00c:	f7f4 fa64 	bl	80004d8 <__aeabi_dmul>
 800c010:	4622      	mov	r2, r4
 800c012:	4606      	mov	r6, r0
 800c014:	460f      	mov	r7, r1
 800c016:	462b      	mov	r3, r5
 800c018:	4650      	mov	r0, sl
 800c01a:	4659      	mov	r1, fp
 800c01c:	f7f4 fa5c 	bl	80004d8 <__aeabi_dmul>
 800c020:	4602      	mov	r2, r0
 800c022:	460b      	mov	r3, r1
 800c024:	4630      	mov	r0, r6
 800c026:	4639      	mov	r1, r7
 800c028:	f7f4 f8a0 	bl	800016c <__adddf3>
 800c02c:	2400      	movs	r4, #0
 800c02e:	4606      	mov	r6, r0
 800c030:	460f      	mov	r7, r1
 800c032:	4602      	mov	r2, r0
 800c034:	460b      	mov	r3, r1
 800c036:	4640      	mov	r0, r8
 800c038:	4649      	mov	r1, r9
 800c03a:	f7f4 f897 	bl	800016c <__adddf3>
 800c03e:	a33c      	add	r3, pc, #240	; (adr r3, 800c130 <__ieee754_pow+0x720>)
 800c040:	e9d3 2300 	ldrd	r2, r3, [r3]
 800c044:	4620      	mov	r0, r4
 800c046:	460d      	mov	r5, r1
 800c048:	f7f4 fa46 	bl	80004d8 <__aeabi_dmul>
 800c04c:	4642      	mov	r2, r8
 800c04e:	464b      	mov	r3, r9
 800c050:	e9cd 0106 	strd	r0, r1, [sp, #24]
 800c054:	4620      	mov	r0, r4
 800c056:	4629      	mov	r1, r5
 800c058:	f7f4 f886 	bl	8000168 <__aeabi_dsub>
 800c05c:	4602      	mov	r2, r0
 800c05e:	460b      	mov	r3, r1
 800c060:	4630      	mov	r0, r6
 800c062:	4639      	mov	r1, r7
 800c064:	f7f4 f880 	bl	8000168 <__aeabi_dsub>
 800c068:	a333      	add	r3, pc, #204	; (adr r3, 800c138 <__ieee754_pow+0x728>)
 800c06a:	e9d3 2300 	ldrd	r2, r3, [r3]
 800c06e:	f7f4 fa33 	bl	80004d8 <__aeabi_dmul>
 800c072:	a333      	add	r3, pc, #204	; (adr r3, 800c140 <__ieee754_pow+0x730>)
 800c074:	e9d3 2300 	ldrd	r2, r3, [r3]
 800c078:	4606      	mov	r6, r0
 800c07a:	460f      	mov	r7, r1
 800c07c:	4620      	mov	r0, r4
 800c07e:	4629      	mov	r1, r5
 800c080:	f7f4 fa2a 	bl	80004d8 <__aeabi_dmul>
 800c084:	4602      	mov	r2, r0
 800c086:	460b      	mov	r3, r1
 800c088:	4630      	mov	r0, r6
 800c08a:	4639      	mov	r1, r7
 800c08c:	f7f4 f86e 	bl	800016c <__adddf3>
 800c090:	9a0d      	ldr	r2, [sp, #52]	; 0x34
 800c092:	4b34      	ldr	r3, [pc, #208]	; (800c164 <__ieee754_pow+0x754>)
 800c094:	4413      	add	r3, r2
 800c096:	e9d3 2300 	ldrd	r2, r3, [r3]
 800c09a:	f7f4 f867 	bl	800016c <__adddf3>
 800c09e:	4680      	mov	r8, r0
 800c0a0:	980b      	ldr	r0, [sp, #44]	; 0x2c
 800c0a2:	4689      	mov	r9, r1
 800c0a4:	f7f4 f9ae 	bl	8000404 <__aeabi_i2d>
 800c0a8:	4604      	mov	r4, r0
 800c0aa:	460d      	mov	r5, r1
 800c0ac:	e9dd 0106 	ldrd	r0, r1, [sp, #24]
 800c0b0:	9a0d      	ldr	r2, [sp, #52]	; 0x34
 800c0b2:	4b2d      	ldr	r3, [pc, #180]	; (800c168 <__ieee754_pow+0x758>)
 800c0b4:	4413      	add	r3, r2
 800c0b6:	e9d3 6700 	ldrd	r6, r7, [r3]
 800c0ba:	4642      	mov	r2, r8
 800c0bc:	464b      	mov	r3, r9
 800c0be:	f7f4 f855 	bl	800016c <__adddf3>
 800c0c2:	4632      	mov	r2, r6
 800c0c4:	463b      	mov	r3, r7
 800c0c6:	f7f4 f851 	bl	800016c <__adddf3>
 800c0ca:	4622      	mov	r2, r4
 800c0cc:	462b      	mov	r3, r5
 800c0ce:	f7f4 f84d 	bl	800016c <__adddf3>
 800c0d2:	2000      	movs	r0, #0
 800c0d4:	4622      	mov	r2, r4
 800c0d6:	462b      	mov	r3, r5
 800c0d8:	4682      	mov	sl, r0
 800c0da:	468b      	mov	fp, r1
 800c0dc:	f7f4 f844 	bl	8000168 <__aeabi_dsub>
 800c0e0:	4632      	mov	r2, r6
 800c0e2:	463b      	mov	r3, r7
 800c0e4:	f7f4 f840 	bl	8000168 <__aeabi_dsub>
 800c0e8:	e9dd 2306 	ldrd	r2, r3, [sp, #24]
 800c0ec:	f7f4 f83c 	bl	8000168 <__aeabi_dsub>
 800c0f0:	4602      	mov	r2, r0
 800c0f2:	460b      	mov	r3, r1
 800c0f4:	4640      	mov	r0, r8
 800c0f6:	4649      	mov	r1, r9
 800c0f8:	e60b      	b.n	800bd12 <__ieee754_pow+0x302>
 800c0fa:	2601      	movs	r6, #1
 800c0fc:	e69f      	b.n	800be3e <__ieee754_pow+0x42e>
 800c0fe:	bf00      	nop
 800c100:	4a454eef 	.word	0x4a454eef
 800c104:	3fca7e28 	.word	0x3fca7e28
 800c108:	93c9db65 	.word	0x93c9db65
 800c10c:	3fcd864a 	.word	0x3fcd864a
 800c110:	a91d4101 	.word	0xa91d4101
 800c114:	3fd17460 	.word	0x3fd17460
 800c118:	518f264d 	.word	0x518f264d
 800c11c:	3fd55555 	.word	0x3fd55555
 800c120:	db6fabff 	.word	0xdb6fabff
 800c124:	3fdb6db6 	.word	0x3fdb6db6
 800c128:	33333303 	.word	0x33333303
 800c12c:	3fe33333 	.word	0x3fe33333
 800c130:	e0000000 	.word	0xe0000000
 800c134:	3feec709 	.word	0x3feec709
 800c138:	dc3a03fd 	.word	0xdc3a03fd
 800c13c:	3feec709 	.word	0x3feec709
 800c140:	145b01f5 	.word	0x145b01f5
 800c144:	be3e2fe0 	.word	0xbe3e2fe0
 800c148:	7ff00000 	.word	0x7ff00000
 800c14c:	43400000 	.word	0x43400000
 800c150:	0003988e 	.word	0x0003988e
 800c154:	000bb679 	.word	0x000bb679
 800c158:	0800dda0 	.word	0x0800dda0
 800c15c:	3ff00000 	.word	0x3ff00000
 800c160:	40080000 	.word	0x40080000
 800c164:	0800ddc0 	.word	0x0800ddc0
 800c168:	0800ddb0 	.word	0x0800ddb0
 800c16c:	a39c      	add	r3, pc, #624	; (adr r3, 800c3e0 <__ieee754_pow+0x9d0>)
 800c16e:	e9d3 2300 	ldrd	r2, r3, [r3]
 800c172:	4640      	mov	r0, r8
 800c174:	4649      	mov	r1, r9
 800c176:	f7f3 fff9 	bl	800016c <__adddf3>
 800c17a:	4622      	mov	r2, r4
 800c17c:	e9cd 0104 	strd	r0, r1, [sp, #16]
 800c180:	462b      	mov	r3, r5
 800c182:	4650      	mov	r0, sl
 800c184:	4639      	mov	r1, r7
 800c186:	f7f3 ffef 	bl	8000168 <__aeabi_dsub>
 800c18a:	4602      	mov	r2, r0
 800c18c:	460b      	mov	r3, r1
 800c18e:	e9dd 0104 	ldrd	r0, r1, [sp, #16]
 800c192:	f7f4 fc31 	bl	80009f8 <__aeabi_dcmpgt>
 800c196:	2800      	cmp	r0, #0
 800c198:	f47f ae06 	bne.w	800bda8 <__ieee754_pow+0x398>
 800c19c:	4aa2      	ldr	r2, [pc, #648]	; (800c428 <__ieee754_pow+0xa18>)
 800c19e:	f026 4300 	bic.w	r3, r6, #2147483648	; 0x80000000
 800c1a2:	4293      	cmp	r3, r2
 800c1a4:	f340 8100 	ble.w	800c3a8 <__ieee754_pow+0x998>
 800c1a8:	f44f 1a80 	mov.w	sl, #1048576	; 0x100000
 800c1ac:	151b      	asrs	r3, r3, #20
 800c1ae:	f2a3 33fe 	subw	r3, r3, #1022	; 0x3fe
 800c1b2:	fa4a fa03 	asr.w	sl, sl, r3
 800c1b6:	44b2      	add	sl, r6
 800c1b8:	f3ca 510a 	ubfx	r1, sl, #20, #11
 800c1bc:	489b      	ldr	r0, [pc, #620]	; (800c42c <__ieee754_pow+0xa1c>)
 800c1be:	f2a1 31ff 	subw	r1, r1, #1023	; 0x3ff
 800c1c2:	4108      	asrs	r0, r1
 800c1c4:	ea00 030a 	and.w	r3, r0, sl
 800c1c8:	f3ca 0a13 	ubfx	sl, sl, #0, #20
 800c1cc:	f1c1 0114 	rsb	r1, r1, #20
 800c1d0:	f44a 1a80 	orr.w	sl, sl, #1048576	; 0x100000
 800c1d4:	fa4a fa01 	asr.w	sl, sl, r1
 800c1d8:	2e00      	cmp	r6, #0
 800c1da:	f04f 0200 	mov.w	r2, #0
 800c1de:	4620      	mov	r0, r4
 800c1e0:	4629      	mov	r1, r5
 800c1e2:	bfb8      	it	lt
 800c1e4:	f1ca 0a00 	rsblt	sl, sl, #0
 800c1e8:	f7f3 ffbe 	bl	8000168 <__aeabi_dsub>
 800c1ec:	e9cd 0102 	strd	r0, r1, [sp, #8]
 800c1f0:	e9dd 0102 	ldrd	r0, r1, [sp, #8]
 800c1f4:	2400      	movs	r4, #0
 800c1f6:	4642      	mov	r2, r8
 800c1f8:	464b      	mov	r3, r9
 800c1fa:	f7f3 ffb7 	bl	800016c <__adddf3>
 800c1fe:	a37a      	add	r3, pc, #488	; (adr r3, 800c3e8 <__ieee754_pow+0x9d8>)
 800c200:	e9d3 2300 	ldrd	r2, r3, [r3]
 800c204:	4620      	mov	r0, r4
 800c206:	460d      	mov	r5, r1
 800c208:	f7f4 f966 	bl	80004d8 <__aeabi_dmul>
 800c20c:	e9dd 2302 	ldrd	r2, r3, [sp, #8]
 800c210:	4606      	mov	r6, r0
 800c212:	460f      	mov	r7, r1
 800c214:	4620      	mov	r0, r4
 800c216:	4629      	mov	r1, r5
 800c218:	f7f3 ffa6 	bl	8000168 <__aeabi_dsub>
 800c21c:	4602      	mov	r2, r0
 800c21e:	460b      	mov	r3, r1
 800c220:	4640      	mov	r0, r8
 800c222:	4649      	mov	r1, r9
 800c224:	f7f3 ffa0 	bl	8000168 <__aeabi_dsub>
 800c228:	a371      	add	r3, pc, #452	; (adr r3, 800c3f0 <__ieee754_pow+0x9e0>)
 800c22a:	e9d3 2300 	ldrd	r2, r3, [r3]
 800c22e:	f7f4 f953 	bl	80004d8 <__aeabi_dmul>
 800c232:	a371      	add	r3, pc, #452	; (adr r3, 800c3f8 <__ieee754_pow+0x9e8>)
 800c234:	e9d3 2300 	ldrd	r2, r3, [r3]
 800c238:	4680      	mov	r8, r0
 800c23a:	4689      	mov	r9, r1
 800c23c:	4620      	mov	r0, r4
 800c23e:	4629      	mov	r1, r5
 800c240:	f7f4 f94a 	bl	80004d8 <__aeabi_dmul>
 800c244:	4602      	mov	r2, r0
 800c246:	460b      	mov	r3, r1
 800c248:	4640      	mov	r0, r8
 800c24a:	4649      	mov	r1, r9
 800c24c:	f7f3 ff8e 	bl	800016c <__adddf3>
 800c250:	4604      	mov	r4, r0
 800c252:	460d      	mov	r5, r1
 800c254:	4602      	mov	r2, r0
 800c256:	460b      	mov	r3, r1
 800c258:	4630      	mov	r0, r6
 800c25a:	4639      	mov	r1, r7
 800c25c:	f7f3 ff86 	bl	800016c <__adddf3>
 800c260:	4632      	mov	r2, r6
 800c262:	463b      	mov	r3, r7
 800c264:	4680      	mov	r8, r0
 800c266:	4689      	mov	r9, r1
 800c268:	f7f3 ff7e 	bl	8000168 <__aeabi_dsub>
 800c26c:	4602      	mov	r2, r0
 800c26e:	460b      	mov	r3, r1
 800c270:	4620      	mov	r0, r4
 800c272:	4629      	mov	r1, r5
 800c274:	f7f3 ff78 	bl	8000168 <__aeabi_dsub>
 800c278:	4642      	mov	r2, r8
 800c27a:	4606      	mov	r6, r0
 800c27c:	460f      	mov	r7, r1
 800c27e:	464b      	mov	r3, r9
 800c280:	4640      	mov	r0, r8
 800c282:	4649      	mov	r1, r9
 800c284:	f7f4 f928 	bl	80004d8 <__aeabi_dmul>
 800c288:	a35d      	add	r3, pc, #372	; (adr r3, 800c400 <__ieee754_pow+0x9f0>)
 800c28a:	e9d3 2300 	ldrd	r2, r3, [r3]
 800c28e:	4604      	mov	r4, r0
 800c290:	460d      	mov	r5, r1
 800c292:	f7f4 f921 	bl	80004d8 <__aeabi_dmul>
 800c296:	a35c      	add	r3, pc, #368	; (adr r3, 800c408 <__ieee754_pow+0x9f8>)
 800c298:	e9d3 2300 	ldrd	r2, r3, [r3]
 800c29c:	f7f3 ff64 	bl	8000168 <__aeabi_dsub>
 800c2a0:	4622      	mov	r2, r4
 800c2a2:	462b      	mov	r3, r5
 800c2a4:	f7f4 f918 	bl	80004d8 <__aeabi_dmul>
 800c2a8:	a359      	add	r3, pc, #356	; (adr r3, 800c410 <__ieee754_pow+0xa00>)
 800c2aa:	e9d3 2300 	ldrd	r2, r3, [r3]
 800c2ae:	f7f3 ff5d 	bl	800016c <__adddf3>
 800c2b2:	4622      	mov	r2, r4
 800c2b4:	462b      	mov	r3, r5
 800c2b6:	f7f4 f90f 	bl	80004d8 <__aeabi_dmul>
 800c2ba:	a357      	add	r3, pc, #348	; (adr r3, 800c418 <__ieee754_pow+0xa08>)
 800c2bc:	e9d3 2300 	ldrd	r2, r3, [r3]
 800c2c0:	f7f3 ff52 	bl	8000168 <__aeabi_dsub>
 800c2c4:	4622      	mov	r2, r4
 800c2c6:	462b      	mov	r3, r5
 800c2c8:	f7f4 f906 	bl	80004d8 <__aeabi_dmul>
 800c2cc:	a354      	add	r3, pc, #336	; (adr r3, 800c420 <__ieee754_pow+0xa10>)
 800c2ce:	e9d3 2300 	ldrd	r2, r3, [r3]
 800c2d2:	f7f3 ff4b 	bl	800016c <__adddf3>
 800c2d6:	4622      	mov	r2, r4
 800c2d8:	462b      	mov	r3, r5
 800c2da:	f7f4 f8fd 	bl	80004d8 <__aeabi_dmul>
 800c2de:	4602      	mov	r2, r0
 800c2e0:	460b      	mov	r3, r1
 800c2e2:	4640      	mov	r0, r8
 800c2e4:	4649      	mov	r1, r9
 800c2e6:	f7f3 ff3f 	bl	8000168 <__aeabi_dsub>
 800c2ea:	4604      	mov	r4, r0
 800c2ec:	460d      	mov	r5, r1
 800c2ee:	4602      	mov	r2, r0
 800c2f0:	460b      	mov	r3, r1
 800c2f2:	4640      	mov	r0, r8
 800c2f4:	4649      	mov	r1, r9
 800c2f6:	f7f4 f8ef 	bl	80004d8 <__aeabi_dmul>
 800c2fa:	2200      	movs	r2, #0
 800c2fc:	e9cd 0102 	strd	r0, r1, [sp, #8]
 800c300:	f04f 4380 	mov.w	r3, #1073741824	; 0x40000000
 800c304:	4620      	mov	r0, r4
 800c306:	4629      	mov	r1, r5
 800c308:	f7f3 ff2e 	bl	8000168 <__aeabi_dsub>
 800c30c:	4602      	mov	r2, r0
 800c30e:	460b      	mov	r3, r1
 800c310:	e9dd 0102 	ldrd	r0, r1, [sp, #8]
 800c314:	f7f4 fa0a 	bl	800072c <__aeabi_ddiv>
 800c318:	4632      	mov	r2, r6
 800c31a:	4604      	mov	r4, r0
 800c31c:	460d      	mov	r5, r1
 800c31e:	463b      	mov	r3, r7
 800c320:	4640      	mov	r0, r8
 800c322:	4649      	mov	r1, r9
 800c324:	f7f4 f8d8 	bl	80004d8 <__aeabi_dmul>
 800c328:	4632      	mov	r2, r6
 800c32a:	463b      	mov	r3, r7
 800c32c:	f7f3 ff1e 	bl	800016c <__adddf3>
 800c330:	4602      	mov	r2, r0
 800c332:	460b      	mov	r3, r1
 800c334:	4620      	mov	r0, r4
 800c336:	4629      	mov	r1, r5
 800c338:	f7f3 ff16 	bl	8000168 <__aeabi_dsub>
 800c33c:	4642      	mov	r2, r8
 800c33e:	464b      	mov	r3, r9
 800c340:	f7f3 ff12 	bl	8000168 <__aeabi_dsub>
 800c344:	4602      	mov	r2, r0
 800c346:	460b      	mov	r3, r1
 800c348:	2000      	movs	r0, #0
 800c34a:	4939      	ldr	r1, [pc, #228]	; (800c430 <__ieee754_pow+0xa20>)
 800c34c:	f7f3 ff0c 	bl	8000168 <__aeabi_dsub>
 800c350:	eb01 540a 	add.w	r4, r1, sl, lsl #20
 800c354:	f5b4 1f80 	cmp.w	r4, #1048576	; 0x100000
 800c358:	da29      	bge.n	800c3ae <__ieee754_pow+0x99e>
 800c35a:	4652      	mov	r2, sl
 800c35c:	f000 fbfc 	bl	800cb58 <scalbn>
 800c360:	e9dd 2300 	ldrd	r2, r3, [sp]
 800c364:	f7ff bbfd 	b.w	800bb62 <__ieee754_pow+0x152>
 800c368:	4b32      	ldr	r3, [pc, #200]	; (800c434 <__ieee754_pow+0xa24>)
 800c36a:	f021 4700 	bic.w	r7, r1, #2147483648	; 0x80000000
 800c36e:	429f      	cmp	r7, r3
 800c370:	f77f af14 	ble.w	800c19c <__ieee754_pow+0x78c>
 800c374:	4b30      	ldr	r3, [pc, #192]	; (800c438 <__ieee754_pow+0xa28>)
 800c376:	440b      	add	r3, r1
 800c378:	4303      	orrs	r3, r0
 800c37a:	d009      	beq.n	800c390 <__ieee754_pow+0x980>
 800c37c:	e9dd 0100 	ldrd	r0, r1, [sp]
 800c380:	2200      	movs	r2, #0
 800c382:	2300      	movs	r3, #0
 800c384:	f7f4 fb1a 	bl	80009bc <__aeabi_dcmplt>
 800c388:	3800      	subs	r0, #0
 800c38a:	bf18      	it	ne
 800c38c:	2001      	movne	r0, #1
 800c38e:	e452      	b.n	800bc36 <__ieee754_pow+0x226>
 800c390:	4622      	mov	r2, r4
 800c392:	462b      	mov	r3, r5
 800c394:	f7f3 fee8 	bl	8000168 <__aeabi_dsub>
 800c398:	4642      	mov	r2, r8
 800c39a:	464b      	mov	r3, r9
 800c39c:	f7f4 fb22 	bl	80009e4 <__aeabi_dcmpge>
 800c3a0:	2800      	cmp	r0, #0
 800c3a2:	f43f aefb 	beq.w	800c19c <__ieee754_pow+0x78c>
 800c3a6:	e7e9      	b.n	800c37c <__ieee754_pow+0x96c>
 800c3a8:	f04f 0a00 	mov.w	sl, #0
 800c3ac:	e720      	b.n	800c1f0 <__ieee754_pow+0x7e0>
 800c3ae:	4621      	mov	r1, r4
 800c3b0:	e7d6      	b.n	800c360 <__ieee754_pow+0x950>
 800c3b2:	f04f 0b00 	mov.w	fp, #0
 800c3b6:	f8df c078 	ldr.w	ip, [pc, #120]	; 800c430 <__ieee754_pow+0xa20>
 800c3ba:	f7ff bbb9 	b.w	800bb30 <__ieee754_pow+0x120>
 800c3be:	f04f 0b00 	mov.w	fp, #0
 800c3c2:	f04f 0c00 	mov.w	ip, #0
 800c3c6:	f7ff bbb3 	b.w	800bb30 <__ieee754_pow+0x120>
 800c3ca:	4640      	mov	r0, r8
 800c3cc:	4649      	mov	r1, r9
 800c3ce:	f7ff bb3c 	b.w	800ba4a <__ieee754_pow+0x3a>
 800c3d2:	9200      	str	r2, [sp, #0]
 800c3d4:	f7ff bb88 	b.w	800bae8 <__ieee754_pow+0xd8>
 800c3d8:	2300      	movs	r3, #0
 800c3da:	f7ff bb72 	b.w	800bac2 <__ieee754_pow+0xb2>
 800c3de:	bf00      	nop
 800c3e0:	652b82fe 	.word	0x652b82fe
 800c3e4:	3c971547 	.word	0x3c971547
 800c3e8:	00000000 	.word	0x00000000
 800c3ec:	3fe62e43 	.word	0x3fe62e43
 800c3f0:	fefa39ef 	.word	0xfefa39ef
 800c3f4:	3fe62e42 	.word	0x3fe62e42
 800c3f8:	0ca86c39 	.word	0x0ca86c39
 800c3fc:	be205c61 	.word	0xbe205c61
 800c400:	72bea4d0 	.word	0x72bea4d0
 800c404:	3e663769 	.word	0x3e663769
 800c408:	c5d26bf1 	.word	0xc5d26bf1
 800c40c:	3ebbbd41 	.word	0x3ebbbd41
 800c410:	af25de2c 	.word	0xaf25de2c
 800c414:	3f11566a 	.word	0x3f11566a
 800c418:	16bebd93 	.word	0x16bebd93
 800c41c:	3f66c16c 	.word	0x3f66c16c
 800c420:	5555553e 	.word	0x5555553e
 800c424:	3fc55555 	.word	0x3fc55555
 800c428:	3fe00000 	.word	0x3fe00000
 800c42c:	fff00000 	.word	0xfff00000
 800c430:	3ff00000 	.word	0x3ff00000
 800c434:	4090cbff 	.word	0x4090cbff
 800c438:	3f6f3400 	.word	0x3f6f3400
 800c43c:	00000000 	.word	0x00000000

0800c440 <__ieee754_rem_pio2>:
 800c440:	e92d 4ff0 	stmdb	sp!, {r4, r5, r6, r7, r8, r9, sl, fp, lr}
 800c444:	4614      	mov	r4, r2
 800c446:	4ac2      	ldr	r2, [pc, #776]	; (800c750 <__ieee754_rem_pio2+0x310>)
 800c448:	f021 4a00 	bic.w	sl, r1, #2147483648	; 0x80000000
 800c44c:	b08d      	sub	sp, #52	; 0x34
 800c44e:	4592      	cmp	sl, r2
 800c450:	9104      	str	r1, [sp, #16]
 800c452:	dc07      	bgt.n	800c464 <__ieee754_rem_pio2+0x24>
 800c454:	2200      	movs	r2, #0
 800c456:	2300      	movs	r3, #0
 800c458:	e9c4 0100 	strd	r0, r1, [r4]
 800c45c:	e9c4 2302 	strd	r2, r3, [r4, #8]
 800c460:	2500      	movs	r5, #0
 800c462:	e024      	b.n	800c4ae <__ieee754_rem_pio2+0x6e>
 800c464:	4abb      	ldr	r2, [pc, #748]	; (800c754 <__ieee754_rem_pio2+0x314>)
 800c466:	4592      	cmp	sl, r2
 800c468:	dc72      	bgt.n	800c550 <__ieee754_rem_pio2+0x110>
 800c46a:	9b04      	ldr	r3, [sp, #16]
 800c46c:	4dba      	ldr	r5, [pc, #744]	; (800c758 <__ieee754_rem_pio2+0x318>)
 800c46e:	2b00      	cmp	r3, #0
 800c470:	a3a9      	add	r3, pc, #676	; (adr r3, 800c718 <__ieee754_rem_pio2+0x2d8>)
 800c472:	e9d3 2300 	ldrd	r2, r3, [r3]
 800c476:	dd36      	ble.n	800c4e6 <__ieee754_rem_pio2+0xa6>
 800c478:	f7f3 fe76 	bl	8000168 <__aeabi_dsub>
 800c47c:	45aa      	cmp	sl, r5
 800c47e:	4606      	mov	r6, r0
 800c480:	460f      	mov	r7, r1
 800c482:	d018      	beq.n	800c4b6 <__ieee754_rem_pio2+0x76>
 800c484:	a3a6      	add	r3, pc, #664	; (adr r3, 800c720 <__ieee754_rem_pio2+0x2e0>)
 800c486:	e9d3 2300 	ldrd	r2, r3, [r3]
 800c48a:	f7f3 fe6d 	bl	8000168 <__aeabi_dsub>
 800c48e:	4602      	mov	r2, r0
 800c490:	460b      	mov	r3, r1
 800c492:	4630      	mov	r0, r6
 800c494:	e9c4 2300 	strd	r2, r3, [r4]
 800c498:	4639      	mov	r1, r7
 800c49a:	f7f3 fe65 	bl	8000168 <__aeabi_dsub>
 800c49e:	a3a0      	add	r3, pc, #640	; (adr r3, 800c720 <__ieee754_rem_pio2+0x2e0>)
 800c4a0:	e9d3 2300 	ldrd	r2, r3, [r3]
 800c4a4:	f7f3 fe60 	bl	8000168 <__aeabi_dsub>
 800c4a8:	2501      	movs	r5, #1
 800c4aa:	e9c4 0102 	strd	r0, r1, [r4, #8]
 800c4ae:	4628      	mov	r0, r5
 800c4b0:	b00d      	add	sp, #52	; 0x34
 800c4b2:	e8bd 8ff0 	ldmia.w	sp!, {r4, r5, r6, r7, r8, r9, sl, fp, pc}
 800c4b6:	a39c      	add	r3, pc, #624	; (adr r3, 800c728 <__ieee754_rem_pio2+0x2e8>)
 800c4b8:	e9d3 2300 	ldrd	r2, r3, [r3]
 800c4bc:	f7f3 fe54 	bl	8000168 <__aeabi_dsub>
 800c4c0:	a39b      	add	r3, pc, #620	; (adr r3, 800c730 <__ieee754_rem_pio2+0x2f0>)
 800c4c2:	e9d3 2300 	ldrd	r2, r3, [r3]
 800c4c6:	4606      	mov	r6, r0
 800c4c8:	460f      	mov	r7, r1
 800c4ca:	f7f3 fe4d 	bl	8000168 <__aeabi_dsub>
 800c4ce:	4602      	mov	r2, r0
 800c4d0:	460b      	mov	r3, r1
 800c4d2:	4630      	mov	r0, r6
 800c4d4:	e9c4 2300 	strd	r2, r3, [r4]
 800c4d8:	4639      	mov	r1, r7
 800c4da:	f7f3 fe45 	bl	8000168 <__aeabi_dsub>
 800c4de:	a394      	add	r3, pc, #592	; (adr r3, 800c730 <__ieee754_rem_pio2+0x2f0>)
 800c4e0:	e9d3 2300 	ldrd	r2, r3, [r3]
 800c4e4:	e7de      	b.n	800c4a4 <__ieee754_rem_pio2+0x64>
 800c4e6:	f7f3 fe41 	bl	800016c <__adddf3>
 800c4ea:	45aa      	cmp	sl, r5
 800c4ec:	4606      	mov	r6, r0
 800c4ee:	460f      	mov	r7, r1
 800c4f0:	d016      	beq.n	800c520 <__ieee754_rem_pio2+0xe0>
 800c4f2:	a38b      	add	r3, pc, #556	; (adr r3, 800c720 <__ieee754_rem_pio2+0x2e0>)
 800c4f4:	e9d3 2300 	ldrd	r2, r3, [r3]
 800c4f8:	f7f3 fe38 	bl	800016c <__adddf3>
 800c4fc:	4602      	mov	r2, r0
 800c4fe:	460b      	mov	r3, r1
 800c500:	4630      	mov	r0, r6
 800c502:	e9c4 2300 	strd	r2, r3, [r4]
 800c506:	4639      	mov	r1, r7
 800c508:	f7f3 fe2e 	bl	8000168 <__aeabi_dsub>
 800c50c:	a384      	add	r3, pc, #528	; (adr r3, 800c720 <__ieee754_rem_pio2+0x2e0>)
 800c50e:	e9d3 2300 	ldrd	r2, r3, [r3]
 800c512:	f7f3 fe2b 	bl	800016c <__adddf3>
 800c516:	f04f 35ff 	mov.w	r5, #4294967295
 800c51a:	e9c4 0102 	strd	r0, r1, [r4, #8]
 800c51e:	e7c6      	b.n	800c4ae <__ieee754_rem_pio2+0x6e>
 800c520:	a381      	add	r3, pc, #516	; (adr r3, 800c728 <__ieee754_rem_pio2+0x2e8>)
 800c522:	e9d3 2300 	ldrd	r2, r3, [r3]
 800c526:	f7f3 fe21 	bl	800016c <__adddf3>
 800c52a:	a381      	add	r3, pc, #516	; (adr r3, 800c730 <__ieee754_rem_pio2+0x2f0>)
 800c52c:	e9d3 2300 	ldrd	r2, r3, [r3]
 800c530:	4606      	mov	r6, r0
 800c532:	460f      	mov	r7, r1
 800c534:	f7f3 fe1a 	bl	800016c <__adddf3>
 800c538:	4602      	mov	r2, r0
 800c53a:	460b      	mov	r3, r1
 800c53c:	4630      	mov	r0, r6
 800c53e:	e9c4 2300 	strd	r2, r3, [r4]
 800c542:	4639      	mov	r1, r7
 800c544:	f7f3 fe10 	bl	8000168 <__aeabi_dsub>
 800c548:	a379      	add	r3, pc, #484	; (adr r3, 800c730 <__ieee754_rem_pio2+0x2f0>)
 800c54a:	e9d3 2300 	ldrd	r2, r3, [r3]
 800c54e:	e7e0      	b.n	800c512 <__ieee754_rem_pio2+0xd2>
 800c550:	4a82      	ldr	r2, [pc, #520]	; (800c75c <__ieee754_rem_pio2+0x31c>)
 800c552:	4592      	cmp	sl, r2
 800c554:	f300 80d4 	bgt.w	800c700 <__ieee754_rem_pio2+0x2c0>
 800c558:	f7fe fcda 	bl	800af10 <fabs>
 800c55c:	a376      	add	r3, pc, #472	; (adr r3, 800c738 <__ieee754_rem_pio2+0x2f8>)
 800c55e:	e9d3 2300 	ldrd	r2, r3, [r3]
 800c562:	4606      	mov	r6, r0
 800c564:	460f      	mov	r7, r1
 800c566:	f7f3 ffb7 	bl	80004d8 <__aeabi_dmul>
 800c56a:	2200      	movs	r2, #0
 800c56c:	4b7c      	ldr	r3, [pc, #496]	; (800c760 <__ieee754_rem_pio2+0x320>)
 800c56e:	f7f3 fdfd 	bl	800016c <__adddf3>
 800c572:	f7f4 fa61 	bl	8000a38 <__aeabi_d2iz>
 800c576:	4605      	mov	r5, r0
 800c578:	f7f3 ff44 	bl	8000404 <__aeabi_i2d>
 800c57c:	4602      	mov	r2, r0
 800c57e:	460b      	mov	r3, r1
 800c580:	e9cd 2302 	strd	r2, r3, [sp, #8]
 800c584:	a364      	add	r3, pc, #400	; (adr r3, 800c718 <__ieee754_rem_pio2+0x2d8>)
 800c586:	e9d3 2300 	ldrd	r2, r3, [r3]
 800c58a:	f7f3 ffa5 	bl	80004d8 <__aeabi_dmul>
 800c58e:	4602      	mov	r2, r0
 800c590:	460b      	mov	r3, r1
 800c592:	4630      	mov	r0, r6
 800c594:	4639      	mov	r1, r7
 800c596:	f7f3 fde7 	bl	8000168 <__aeabi_dsub>
 800c59a:	a361      	add	r3, pc, #388	; (adr r3, 800c720 <__ieee754_rem_pio2+0x2e0>)
 800c59c:	e9d3 2300 	ldrd	r2, r3, [r3]
 800c5a0:	4680      	mov	r8, r0
 800c5a2:	4689      	mov	r9, r1
 800c5a4:	e9dd 0102 	ldrd	r0, r1, [sp, #8]
 800c5a8:	f7f3 ff96 	bl	80004d8 <__aeabi_dmul>
 800c5ac:	2d1f      	cmp	r5, #31
 800c5ae:	4606      	mov	r6, r0
 800c5b0:	460f      	mov	r7, r1
 800c5b2:	dc0e      	bgt.n	800c5d2 <__ieee754_rem_pio2+0x192>
 800c5b4:	4b6b      	ldr	r3, [pc, #428]	; (800c764 <__ieee754_rem_pio2+0x324>)
 800c5b6:	1e6a      	subs	r2, r5, #1
 800c5b8:	f853 3022 	ldr.w	r3, [r3, r2, lsl #2]
 800c5bc:	4553      	cmp	r3, sl
 800c5be:	d008      	beq.n	800c5d2 <__ieee754_rem_pio2+0x192>
 800c5c0:	4632      	mov	r2, r6
 800c5c2:	463b      	mov	r3, r7
 800c5c4:	4640      	mov	r0, r8
 800c5c6:	4649      	mov	r1, r9
 800c5c8:	f7f3 fdce 	bl	8000168 <__aeabi_dsub>
 800c5cc:	e9c4 0100 	strd	r0, r1, [r4]
 800c5d0:	e012      	b.n	800c5f8 <__ieee754_rem_pio2+0x1b8>
 800c5d2:	463b      	mov	r3, r7
 800c5d4:	4632      	mov	r2, r6
 800c5d6:	4640      	mov	r0, r8
 800c5d8:	4649      	mov	r1, r9
 800c5da:	f7f3 fdc5 	bl	8000168 <__aeabi_dsub>
 800c5de:	ea4f 532a 	mov.w	r3, sl, asr #20
 800c5e2:	9305      	str	r3, [sp, #20]
 800c5e4:	f3c1 530a 	ubfx	r3, r1, #20, #11
 800c5e8:	ebc3 531a 	rsb	r3, r3, sl, lsr #20
 800c5ec:	2b10      	cmp	r3, #16
 800c5ee:	dc1f      	bgt.n	800c630 <__ieee754_rem_pio2+0x1f0>
 800c5f0:	4602      	mov	r2, r0
 800c5f2:	460b      	mov	r3, r1
 800c5f4:	e9c4 2300 	strd	r2, r3, [r4]
 800c5f8:	e9d4 2a00 	ldrd	r2, sl, [r4]
 800c5fc:	4640      	mov	r0, r8
 800c5fe:	4653      	mov	r3, sl
 800c600:	4649      	mov	r1, r9
 800c602:	f7f3 fdb1 	bl	8000168 <__aeabi_dsub>
 800c606:	4632      	mov	r2, r6
 800c608:	463b      	mov	r3, r7
 800c60a:	f7f3 fdad 	bl	8000168 <__aeabi_dsub>
 800c60e:	460b      	mov	r3, r1
 800c610:	e9c4 0102 	strd	r0, r1, [r4, #8]
 800c614:	9904      	ldr	r1, [sp, #16]
 800c616:	4602      	mov	r2, r0
 800c618:	2900      	cmp	r1, #0
 800c61a:	f6bf af48 	bge.w	800c4ae <__ieee754_rem_pio2+0x6e>
 800c61e:	f10a 4100 	add.w	r1, sl, #2147483648	; 0x80000000
 800c622:	e9c4 1201 	strd	r1, r2, [r4, #4]
 800c626:	f103 4300 	add.w	r3, r3, #2147483648	; 0x80000000
 800c62a:	60e3      	str	r3, [r4, #12]
 800c62c:	426d      	negs	r5, r5
 800c62e:	e73e      	b.n	800c4ae <__ieee754_rem_pio2+0x6e>
 800c630:	a33d      	add	r3, pc, #244	; (adr r3, 800c728 <__ieee754_rem_pio2+0x2e8>)
 800c632:	e9d3 2300 	ldrd	r2, r3, [r3]
 800c636:	e9dd 0102 	ldrd	r0, r1, [sp, #8]
 800c63a:	f7f3 ff4d 	bl	80004d8 <__aeabi_dmul>
 800c63e:	4606      	mov	r6, r0
 800c640:	460f      	mov	r7, r1
 800c642:	4602      	mov	r2, r0
 800c644:	460b      	mov	r3, r1
 800c646:	4640      	mov	r0, r8
 800c648:	4649      	mov	r1, r9
 800c64a:	f7f3 fd8d 	bl	8000168 <__aeabi_dsub>
 800c64e:	4602      	mov	r2, r0
 800c650:	460b      	mov	r3, r1
 800c652:	4682      	mov	sl, r0
 800c654:	468b      	mov	fp, r1
 800c656:	4640      	mov	r0, r8
 800c658:	4649      	mov	r1, r9
 800c65a:	f7f3 fd85 	bl	8000168 <__aeabi_dsub>
 800c65e:	4632      	mov	r2, r6
 800c660:	463b      	mov	r3, r7
 800c662:	f7f3 fd81 	bl	8000168 <__aeabi_dsub>
 800c666:	a332      	add	r3, pc, #200	; (adr r3, 800c730 <__ieee754_rem_pio2+0x2f0>)
 800c668:	e9d3 2300 	ldrd	r2, r3, [r3]
 800c66c:	4606      	mov	r6, r0
 800c66e:	460f      	mov	r7, r1
 800c670:	e9dd 0102 	ldrd	r0, r1, [sp, #8]
 800c674:	f7f3 ff30 	bl	80004d8 <__aeabi_dmul>
 800c678:	4632      	mov	r2, r6
 800c67a:	463b      	mov	r3, r7
 800c67c:	f7f3 fd74 	bl	8000168 <__aeabi_dsub>
 800c680:	4602      	mov	r2, r0
 800c682:	460b      	mov	r3, r1
 800c684:	4606      	mov	r6, r0
 800c686:	460f      	mov	r7, r1
 800c688:	4650      	mov	r0, sl
 800c68a:	4659      	mov	r1, fp
 800c68c:	f7f3 fd6c 	bl	8000168 <__aeabi_dsub>
 800c690:	9a05      	ldr	r2, [sp, #20]
 800c692:	f3c1 530a 	ubfx	r3, r1, #20, #11
 800c696:	1ad3      	subs	r3, r2, r3
 800c698:	2b31      	cmp	r3, #49	; 0x31
 800c69a:	dc06      	bgt.n	800c6aa <__ieee754_rem_pio2+0x26a>
 800c69c:	4602      	mov	r2, r0
 800c69e:	460b      	mov	r3, r1
 800c6a0:	46d0      	mov	r8, sl
 800c6a2:	46d9      	mov	r9, fp
 800c6a4:	e9c4 2300 	strd	r2, r3, [r4]
 800c6a8:	e7a6      	b.n	800c5f8 <__ieee754_rem_pio2+0x1b8>
 800c6aa:	a325      	add	r3, pc, #148	; (adr r3, 800c740 <__ieee754_rem_pio2+0x300>)
 800c6ac:	e9d3 2300 	ldrd	r2, r3, [r3]
 800c6b0:	e9dd 0102 	ldrd	r0, r1, [sp, #8]
 800c6b4:	f7f3 ff10 	bl	80004d8 <__aeabi_dmul>
 800c6b8:	4606      	mov	r6, r0
 800c6ba:	460f      	mov	r7, r1
 800c6bc:	4602      	mov	r2, r0
 800c6be:	460b      	mov	r3, r1
 800c6c0:	4650      	mov	r0, sl
 800c6c2:	4659      	mov	r1, fp
 800c6c4:	f7f3 fd50 	bl	8000168 <__aeabi_dsub>
 800c6c8:	4602      	mov	r2, r0
 800c6ca:	460b      	mov	r3, r1
 800c6cc:	4680      	mov	r8, r0
 800c6ce:	4689      	mov	r9, r1
 800c6d0:	4650      	mov	r0, sl
 800c6d2:	4659      	mov	r1, fp
 800c6d4:	f7f3 fd48 	bl	8000168 <__aeabi_dsub>
 800c6d8:	4632      	mov	r2, r6
 800c6da:	463b      	mov	r3, r7
 800c6dc:	f7f3 fd44 	bl	8000168 <__aeabi_dsub>
 800c6e0:	a319      	add	r3, pc, #100	; (adr r3, 800c748 <__ieee754_rem_pio2+0x308>)
 800c6e2:	e9d3 2300 	ldrd	r2, r3, [r3]
 800c6e6:	4606      	mov	r6, r0
 800c6e8:	460f      	mov	r7, r1
 800c6ea:	e9dd 0102 	ldrd	r0, r1, [sp, #8]
 800c6ee:	f7f3 fef3 	bl	80004d8 <__aeabi_dmul>
 800c6f2:	4632      	mov	r2, r6
 800c6f4:	463b      	mov	r3, r7
 800c6f6:	f7f3 fd37 	bl	8000168 <__aeabi_dsub>
 800c6fa:	4606      	mov	r6, r0
 800c6fc:	460f      	mov	r7, r1
 800c6fe:	e75f      	b.n	800c5c0 <__ieee754_rem_pio2+0x180>
 800c700:	4a19      	ldr	r2, [pc, #100]	; (800c768 <__ieee754_rem_pio2+0x328>)
 800c702:	4592      	cmp	sl, r2
 800c704:	dd32      	ble.n	800c76c <__ieee754_rem_pio2+0x32c>
 800c706:	4602      	mov	r2, r0
 800c708:	460b      	mov	r3, r1
 800c70a:	f7f3 fd2d 	bl	8000168 <__aeabi_dsub>
 800c70e:	e9c4 0102 	strd	r0, r1, [r4, #8]
 800c712:	e9c4 0100 	strd	r0, r1, [r4]
 800c716:	e6a3      	b.n	800c460 <__ieee754_rem_pio2+0x20>
 800c718:	54400000 	.word	0x54400000
 800c71c:	3ff921fb 	.word	0x3ff921fb
 800c720:	1a626331 	.word	0x1a626331
 800c724:	3dd0b461 	.word	0x3dd0b461
 800c728:	1a600000 	.word	0x1a600000
 800c72c:	3dd0b461 	.word	0x3dd0b461
 800c730:	2e037073 	.word	0x2e037073
 800c734:	3ba3198a 	.word	0x3ba3198a
 800c738:	6dc9c883 	.word	0x6dc9c883
 800c73c:	3fe45f30 	.word	0x3fe45f30
 800c740:	2e000000 	.word	0x2e000000
 800c744:	3ba3198a 	.word	0x3ba3198a
 800c748:	252049c1 	.word	0x252049c1
 800c74c:	397b839a 	.word	0x397b839a
 800c750:	3fe921fb 	.word	0x3fe921fb
 800c754:	4002d97b 	.word	0x4002d97b
 800c758:	3ff921fb 	.word	0x3ff921fb
 800c75c:	413921fb 	.word	0x413921fb
 800c760:	3fe00000 	.word	0x3fe00000
 800c764:	0800ddd0 	.word	0x0800ddd0
 800c768:	7fefffff 	.word	0x7fefffff
 800c76c:	ea4f 552a 	mov.w	r5, sl, asr #20
 800c770:	f2a5 4516 	subw	r5, r5, #1046	; 0x416
 800c774:	ebaa 5105 	sub.w	r1, sl, r5, lsl #20
 800c778:	460f      	mov	r7, r1
 800c77a:	4606      	mov	r6, r0
 800c77c:	f7f4 f95c 	bl	8000a38 <__aeabi_d2iz>
 800c780:	f7f3 fe40 	bl	8000404 <__aeabi_i2d>
 800c784:	4602      	mov	r2, r0
 800c786:	460b      	mov	r3, r1
 800c788:	4630      	mov	r0, r6
 800c78a:	4639      	mov	r1, r7
 800c78c:	e9cd 2306 	strd	r2, r3, [sp, #24]
 800c790:	f7f3 fcea 	bl	8000168 <__aeabi_dsub>
 800c794:	2200      	movs	r2, #0
 800c796:	4b22      	ldr	r3, [pc, #136]	; (800c820 <__ieee754_rem_pio2+0x3e0>)
 800c798:	f7f3 fe9e 	bl	80004d8 <__aeabi_dmul>
 800c79c:	460f      	mov	r7, r1
 800c79e:	4606      	mov	r6, r0
 800c7a0:	f7f4 f94a 	bl	8000a38 <__aeabi_d2iz>
 800c7a4:	f7f3 fe2e 	bl	8000404 <__aeabi_i2d>
 800c7a8:	4602      	mov	r2, r0
 800c7aa:	460b      	mov	r3, r1
 800c7ac:	4630      	mov	r0, r6
 800c7ae:	4639      	mov	r1, r7
 800c7b0:	e9cd 2308 	strd	r2, r3, [sp, #32]
 800c7b4:	f7f3 fcd8 	bl	8000168 <__aeabi_dsub>
 800c7b8:	2200      	movs	r2, #0
 800c7ba:	4b19      	ldr	r3, [pc, #100]	; (800c820 <__ieee754_rem_pio2+0x3e0>)
 800c7bc:	f7f3 fe8c 	bl	80004d8 <__aeabi_dmul>
 800c7c0:	f04f 0803 	mov.w	r8, #3
 800c7c4:	2600      	movs	r6, #0
 800c7c6:	2700      	movs	r7, #0
 800c7c8:	e9cd 010a 	strd	r0, r1, [sp, #40]	; 0x28
 800c7cc:	f10d 0930 	add.w	r9, sp, #48	; 0x30
 800c7d0:	4632      	mov	r2, r6
 800c7d2:	e979 0102 	ldrd	r0, r1, [r9, #-8]!
 800c7d6:	463b      	mov	r3, r7
 800c7d8:	46c2      	mov	sl, r8
 800c7da:	f108 38ff 	add.w	r8, r8, #4294967295
 800c7de:	f7f4 f8e3 	bl	80009a8 <__aeabi_dcmpeq>
 800c7e2:	2800      	cmp	r0, #0
 800c7e4:	d1f4      	bne.n	800c7d0 <__ieee754_rem_pio2+0x390>
 800c7e6:	4b0f      	ldr	r3, [pc, #60]	; (800c824 <__ieee754_rem_pio2+0x3e4>)
 800c7e8:	462a      	mov	r2, r5
 800c7ea:	9301      	str	r3, [sp, #4]
 800c7ec:	2302      	movs	r3, #2
 800c7ee:	4621      	mov	r1, r4
 800c7f0:	9300      	str	r3, [sp, #0]
 800c7f2:	a806      	add	r0, sp, #24
 800c7f4:	4653      	mov	r3, sl
 800c7f6:	f000 fa55 	bl	800cca4 <__kernel_rem_pio2>
 800c7fa:	9b04      	ldr	r3, [sp, #16]
 800c7fc:	4605      	mov	r5, r0
 800c7fe:	2b00      	cmp	r3, #0
 800c800:	f6bf ae55 	bge.w	800c4ae <__ieee754_rem_pio2+0x6e>
 800c804:	e9d4 2100 	ldrd	r2, r1, [r4]
 800c808:	f101 4300 	add.w	r3, r1, #2147483648	; 0x80000000
 800c80c:	e9c4 2300 	strd	r2, r3, [r4]
 800c810:	e9d4 2102 	ldrd	r2, r1, [r4, #8]
 800c814:	f101 4300 	add.w	r3, r1, #2147483648	; 0x80000000
 800c818:	e9c4 2302 	strd	r2, r3, [r4, #8]
 800c81c:	e706      	b.n	800c62c <__ieee754_rem_pio2+0x1ec>
 800c81e:	bf00      	nop
 800c820:	41700000 	.word	0x41700000
 800c824:	0800de50 	.word	0x0800de50

0800c828 <__ieee754_atan2f>:
 800c828:	b5f8      	push	{r3, r4, r5, r6, r7, lr}
 800c82a:	f021 4600 	bic.w	r6, r1, #2147483648	; 0x80000000
 800c82e:	f1b6 4fff 	cmp.w	r6, #2139095040	; 0x7f800000
 800c832:	4603      	mov	r3, r0
 800c834:	dc05      	bgt.n	800c842 <__ieee754_atan2f+0x1a>
 800c836:	f020 4200 	bic.w	r2, r0, #2147483648	; 0x80000000
 800c83a:	f1b2 4fff 	cmp.w	r2, #2139095040	; 0x7f800000
 800c83e:	4607      	mov	r7, r0
 800c840:	dd04      	ble.n	800c84c <__ieee754_atan2f+0x24>
 800c842:	4618      	mov	r0, r3
 800c844:	f7f4 f996 	bl	8000b74 <__addsf3>
 800c848:	4603      	mov	r3, r0
 800c84a:	e011      	b.n	800c870 <__ieee754_atan2f+0x48>
 800c84c:	f1b1 5f7e 	cmp.w	r1, #1065353216	; 0x3f800000
 800c850:	d103      	bne.n	800c85a <__ieee754_atan2f+0x32>
 800c852:	e8bd 40f8 	ldmia.w	sp!, {r3, r4, r5, r6, r7, lr}
 800c856:	f000 b86d 	b.w	800c934 <atanf>
 800c85a:	178c      	asrs	r4, r1, #30
 800c85c:	f004 0402 	and.w	r4, r4, #2
 800c860:	ea44 74d0 	orr.w	r4, r4, r0, lsr #31
 800c864:	b932      	cbnz	r2, 800c874 <__ieee754_atan2f+0x4c>
 800c866:	2c02      	cmp	r4, #2
 800c868:	d04c      	beq.n	800c904 <__ieee754_atan2f+0xdc>
 800c86a:	2c03      	cmp	r4, #3
 800c86c:	d100      	bne.n	800c870 <__ieee754_atan2f+0x48>
 800c86e:	4b29      	ldr	r3, [pc, #164]	; (800c914 <__ieee754_atan2f+0xec>)
 800c870:	4618      	mov	r0, r3
 800c872:	bdf8      	pop	{r3, r4, r5, r6, r7, pc}
 800c874:	b91e      	cbnz	r6, 800c87e <__ieee754_atan2f+0x56>
 800c876:	2f00      	cmp	r7, #0
 800c878:	da4a      	bge.n	800c910 <__ieee754_atan2f+0xe8>
 800c87a:	4b27      	ldr	r3, [pc, #156]	; (800c918 <__ieee754_atan2f+0xf0>)
 800c87c:	e7f8      	b.n	800c870 <__ieee754_atan2f+0x48>
 800c87e:	f1b6 4fff 	cmp.w	r6, #2139095040	; 0x7f800000
 800c882:	d10e      	bne.n	800c8a2 <__ieee754_atan2f+0x7a>
 800c884:	f1b2 4fff 	cmp.w	r2, #2139095040	; 0x7f800000
 800c888:	f104 34ff 	add.w	r4, r4, #4294967295
 800c88c:	d105      	bne.n	800c89a <__ieee754_atan2f+0x72>
 800c88e:	2c02      	cmp	r4, #2
 800c890:	d83a      	bhi.n	800c908 <__ieee754_atan2f+0xe0>
 800c892:	4b22      	ldr	r3, [pc, #136]	; (800c91c <__ieee754_atan2f+0xf4>)
 800c894:	f853 3024 	ldr.w	r3, [r3, r4, lsl #2]
 800c898:	e7ea      	b.n	800c870 <__ieee754_atan2f+0x48>
 800c89a:	2c02      	cmp	r4, #2
 800c89c:	d836      	bhi.n	800c90c <__ieee754_atan2f+0xe4>
 800c89e:	4b20      	ldr	r3, [pc, #128]	; (800c920 <__ieee754_atan2f+0xf8>)
 800c8a0:	e7f8      	b.n	800c894 <__ieee754_atan2f+0x6c>
 800c8a2:	f1b2 4fff 	cmp.w	r2, #2139095040	; 0x7f800000
 800c8a6:	d0e6      	beq.n	800c876 <__ieee754_atan2f+0x4e>
 800c8a8:	1b92      	subs	r2, r2, r6
 800c8aa:	f1b2 5ff4 	cmp.w	r2, #511705088	; 0x1e800000
 800c8ae:	ea4f 50e2 	mov.w	r0, r2, asr #23
 800c8b2:	da17      	bge.n	800c8e4 <__ieee754_atan2f+0xbc>
 800c8b4:	2900      	cmp	r1, #0
 800c8b6:	da01      	bge.n	800c8bc <__ieee754_atan2f+0x94>
 800c8b8:	303c      	adds	r0, #60	; 0x3c
 800c8ba:	db15      	blt.n	800c8e8 <__ieee754_atan2f+0xc0>
 800c8bc:	4618      	mov	r0, r3
 800c8be:	f7f4 fb15 	bl	8000eec <__aeabi_fdiv>
 800c8c2:	f000 f943 	bl	800cb4c <fabsf>
 800c8c6:	f000 f835 	bl	800c934 <atanf>
 800c8ca:	4603      	mov	r3, r0
 800c8cc:	2c01      	cmp	r4, #1
 800c8ce:	d00d      	beq.n	800c8ec <__ieee754_atan2f+0xc4>
 800c8d0:	2c02      	cmp	r4, #2
 800c8d2:	d00e      	beq.n	800c8f2 <__ieee754_atan2f+0xca>
 800c8d4:	2c00      	cmp	r4, #0
 800c8d6:	d0cb      	beq.n	800c870 <__ieee754_atan2f+0x48>
 800c8d8:	4912      	ldr	r1, [pc, #72]	; (800c924 <__ieee754_atan2f+0xfc>)
 800c8da:	4618      	mov	r0, r3
 800c8dc:	f7f4 f94a 	bl	8000b74 <__addsf3>
 800c8e0:	4911      	ldr	r1, [pc, #68]	; (800c928 <__ieee754_atan2f+0x100>)
 800c8e2:	e00c      	b.n	800c8fe <__ieee754_atan2f+0xd6>
 800c8e4:	4b11      	ldr	r3, [pc, #68]	; (800c92c <__ieee754_atan2f+0x104>)
 800c8e6:	e7f1      	b.n	800c8cc <__ieee754_atan2f+0xa4>
 800c8e8:	2300      	movs	r3, #0
 800c8ea:	e7ef      	b.n	800c8cc <__ieee754_atan2f+0xa4>
 800c8ec:	f103 4300 	add.w	r3, r3, #2147483648	; 0x80000000
 800c8f0:	e7be      	b.n	800c870 <__ieee754_atan2f+0x48>
 800c8f2:	490c      	ldr	r1, [pc, #48]	; (800c924 <__ieee754_atan2f+0xfc>)
 800c8f4:	4618      	mov	r0, r3
 800c8f6:	f7f4 f93d 	bl	8000b74 <__addsf3>
 800c8fa:	4601      	mov	r1, r0
 800c8fc:	480a      	ldr	r0, [pc, #40]	; (800c928 <__ieee754_atan2f+0x100>)
 800c8fe:	f7f4 f937 	bl	8000b70 <__aeabi_fsub>
 800c902:	e7a1      	b.n	800c848 <__ieee754_atan2f+0x20>
 800c904:	4b08      	ldr	r3, [pc, #32]	; (800c928 <__ieee754_atan2f+0x100>)
 800c906:	e7b3      	b.n	800c870 <__ieee754_atan2f+0x48>
 800c908:	4b09      	ldr	r3, [pc, #36]	; (800c930 <__ieee754_atan2f+0x108>)
 800c90a:	e7b1      	b.n	800c870 <__ieee754_atan2f+0x48>
 800c90c:	2300      	movs	r3, #0
 800c90e:	e7af      	b.n	800c870 <__ieee754_atan2f+0x48>
 800c910:	4b06      	ldr	r3, [pc, #24]	; (800c92c <__ieee754_atan2f+0x104>)
 800c912:	e7ad      	b.n	800c870 <__ieee754_atan2f+0x48>
 800c914:	c0490fdb 	.word	0xc0490fdb
 800c918:	bfc90fdb 	.word	0xbfc90fdb
 800c91c:	0800df58 	.word	0x0800df58
 800c920:	0800df64 	.word	0x0800df64
 800c924:	33bbbd2e 	.word	0x33bbbd2e
 800c928:	40490fdb 	.word	0x40490fdb
 800c92c:	3fc90fdb 	.word	0x3fc90fdb
 800c930:	3f490fdb 	.word	0x3f490fdb

0800c934 <atanf>:
 800c934:	e92d 41f0 	stmdb	sp!, {r4, r5, r6, r7, r8, lr}
 800c938:	f020 4500 	bic.w	r5, r0, #2147483648	; 0x80000000
 800c93c:	f1b5 4fa1 	cmp.w	r5, #1350565888	; 0x50800000
 800c940:	4604      	mov	r4, r0
 800c942:	4680      	mov	r8, r0
 800c944:	db0e      	blt.n	800c964 <atanf+0x30>
 800c946:	f1b5 4fff 	cmp.w	r5, #2139095040	; 0x7f800000
 800c94a:	dd04      	ble.n	800c956 <atanf+0x22>
 800c94c:	4601      	mov	r1, r0
 800c94e:	f7f4 f911 	bl	8000b74 <__addsf3>
 800c952:	4604      	mov	r4, r0
 800c954:	e003      	b.n	800c95e <atanf+0x2a>
 800c956:	2800      	cmp	r0, #0
 800c958:	f300 80ce 	bgt.w	800caf8 <atanf+0x1c4>
 800c95c:	4c67      	ldr	r4, [pc, #412]	; (800cafc <atanf+0x1c8>)
 800c95e:	4620      	mov	r0, r4
 800c960:	e8bd 81f0 	ldmia.w	sp!, {r4, r5, r6, r7, r8, pc}
 800c964:	4b66      	ldr	r3, [pc, #408]	; (800cb00 <atanf+0x1cc>)
 800c966:	429d      	cmp	r5, r3
 800c968:	dc0e      	bgt.n	800c988 <atanf+0x54>
 800c96a:	f1b5 5f44 	cmp.w	r5, #822083584	; 0x31000000
 800c96e:	da08      	bge.n	800c982 <atanf+0x4e>
 800c970:	4964      	ldr	r1, [pc, #400]	; (800cb04 <atanf+0x1d0>)
 800c972:	f7f4 f8ff 	bl	8000b74 <__addsf3>
 800c976:	f04f 517e 	mov.w	r1, #1065353216	; 0x3f800000
 800c97a:	f7f4 fbbf 	bl	80010fc <__aeabi_fcmpgt>
 800c97e:	2800      	cmp	r0, #0
 800c980:	d1ed      	bne.n	800c95e <atanf+0x2a>
 800c982:	f04f 36ff 	mov.w	r6, #4294967295
 800c986:	e01c      	b.n	800c9c2 <atanf+0x8e>
 800c988:	f000 f8e0 	bl	800cb4c <fabsf>
 800c98c:	4b5e      	ldr	r3, [pc, #376]	; (800cb08 <atanf+0x1d4>)
 800c98e:	4604      	mov	r4, r0
 800c990:	429d      	cmp	r5, r3
 800c992:	dc7c      	bgt.n	800ca8e <atanf+0x15a>
 800c994:	f5a3 03d0 	sub.w	r3, r3, #6815744	; 0x680000
 800c998:	429d      	cmp	r5, r3
 800c99a:	dc67      	bgt.n	800ca6c <atanf+0x138>
 800c99c:	4601      	mov	r1, r0
 800c99e:	f7f4 f8e9 	bl	8000b74 <__addsf3>
 800c9a2:	f04f 517e 	mov.w	r1, #1065353216	; 0x3f800000
 800c9a6:	f7f4 f8e3 	bl	8000b70 <__aeabi_fsub>
 800c9aa:	f04f 4180 	mov.w	r1, #1073741824	; 0x40000000
 800c9ae:	4605      	mov	r5, r0
 800c9b0:	4620      	mov	r0, r4
 800c9b2:	f7f4 f8df 	bl	8000b74 <__addsf3>
 800c9b6:	4601      	mov	r1, r0
 800c9b8:	4628      	mov	r0, r5
 800c9ba:	f7f4 fa97 	bl	8000eec <__aeabi_fdiv>
 800c9be:	2600      	movs	r6, #0
 800c9c0:	4604      	mov	r4, r0
 800c9c2:	4621      	mov	r1, r4
 800c9c4:	4620      	mov	r0, r4
 800c9c6:	f7f4 f9dd 	bl	8000d84 <__aeabi_fmul>
 800c9ca:	4601      	mov	r1, r0
 800c9cc:	4607      	mov	r7, r0
 800c9ce:	f7f4 f9d9 	bl	8000d84 <__aeabi_fmul>
 800c9d2:	4605      	mov	r5, r0
 800c9d4:	494d      	ldr	r1, [pc, #308]	; (800cb0c <atanf+0x1d8>)
 800c9d6:	f7f4 f9d5 	bl	8000d84 <__aeabi_fmul>
 800c9da:	494d      	ldr	r1, [pc, #308]	; (800cb10 <atanf+0x1dc>)
 800c9dc:	f7f4 f8ca 	bl	8000b74 <__addsf3>
 800c9e0:	4629      	mov	r1, r5
 800c9e2:	f7f4 f9cf 	bl	8000d84 <__aeabi_fmul>
 800c9e6:	494b      	ldr	r1, [pc, #300]	; (800cb14 <atanf+0x1e0>)
 800c9e8:	f7f4 f8c4 	bl	8000b74 <__addsf3>
 800c9ec:	4629      	mov	r1, r5
 800c9ee:	f7f4 f9c9 	bl	8000d84 <__aeabi_fmul>
 800c9f2:	4949      	ldr	r1, [pc, #292]	; (800cb18 <atanf+0x1e4>)
 800c9f4:	f7f4 f8be 	bl	8000b74 <__addsf3>
 800c9f8:	4629      	mov	r1, r5
 800c9fa:	f7f4 f9c3 	bl	8000d84 <__aeabi_fmul>
 800c9fe:	4947      	ldr	r1, [pc, #284]	; (800cb1c <atanf+0x1e8>)
 800ca00:	f7f4 f8b8 	bl	8000b74 <__addsf3>
 800ca04:	4629      	mov	r1, r5
 800ca06:	f7f4 f9bd 	bl	8000d84 <__aeabi_fmul>
 800ca0a:	4945      	ldr	r1, [pc, #276]	; (800cb20 <atanf+0x1ec>)
 800ca0c:	f7f4 f8b2 	bl	8000b74 <__addsf3>
 800ca10:	4639      	mov	r1, r7
 800ca12:	f7f4 f9b7 	bl	8000d84 <__aeabi_fmul>
 800ca16:	4943      	ldr	r1, [pc, #268]	; (800cb24 <atanf+0x1f0>)
 800ca18:	4607      	mov	r7, r0
 800ca1a:	4628      	mov	r0, r5
 800ca1c:	f7f4 f9b2 	bl	8000d84 <__aeabi_fmul>
 800ca20:	4941      	ldr	r1, [pc, #260]	; (800cb28 <atanf+0x1f4>)
 800ca22:	f7f4 f8a5 	bl	8000b70 <__aeabi_fsub>
 800ca26:	4629      	mov	r1, r5
 800ca28:	f7f4 f9ac 	bl	8000d84 <__aeabi_fmul>
 800ca2c:	493f      	ldr	r1, [pc, #252]	; (800cb2c <atanf+0x1f8>)
 800ca2e:	f7f4 f89f 	bl	8000b70 <__aeabi_fsub>
 800ca32:	4629      	mov	r1, r5
 800ca34:	f7f4 f9a6 	bl	8000d84 <__aeabi_fmul>
 800ca38:	493d      	ldr	r1, [pc, #244]	; (800cb30 <atanf+0x1fc>)
 800ca3a:	f7f4 f899 	bl	8000b70 <__aeabi_fsub>
 800ca3e:	4629      	mov	r1, r5
 800ca40:	f7f4 f9a0 	bl	8000d84 <__aeabi_fmul>
 800ca44:	493b      	ldr	r1, [pc, #236]	; (800cb34 <atanf+0x200>)
 800ca46:	f7f4 f893 	bl	8000b70 <__aeabi_fsub>
 800ca4a:	4629      	mov	r1, r5
 800ca4c:	f7f4 f99a 	bl	8000d84 <__aeabi_fmul>
 800ca50:	4601      	mov	r1, r0
 800ca52:	4638      	mov	r0, r7
 800ca54:	f7f4 f88e 	bl	8000b74 <__addsf3>
 800ca58:	4621      	mov	r1, r4
 800ca5a:	f7f4 f993 	bl	8000d84 <__aeabi_fmul>
 800ca5e:	1c73      	adds	r3, r6, #1
 800ca60:	4601      	mov	r1, r0
 800ca62:	d133      	bne.n	800cacc <atanf+0x198>
 800ca64:	4620      	mov	r0, r4
 800ca66:	f7f4 f883 	bl	8000b70 <__aeabi_fsub>
 800ca6a:	e772      	b.n	800c952 <atanf+0x1e>
 800ca6c:	f04f 517e 	mov.w	r1, #1065353216	; 0x3f800000
 800ca70:	f7f4 f87e 	bl	8000b70 <__aeabi_fsub>
 800ca74:	f04f 517e 	mov.w	r1, #1065353216	; 0x3f800000
 800ca78:	4605      	mov	r5, r0
 800ca7a:	4620      	mov	r0, r4
 800ca7c:	f7f4 f87a 	bl	8000b74 <__addsf3>
 800ca80:	4601      	mov	r1, r0
 800ca82:	4628      	mov	r0, r5
 800ca84:	f7f4 fa32 	bl	8000eec <__aeabi_fdiv>
 800ca88:	2601      	movs	r6, #1
 800ca8a:	4604      	mov	r4, r0
 800ca8c:	e799      	b.n	800c9c2 <atanf+0x8e>
 800ca8e:	4b2a      	ldr	r3, [pc, #168]	; (800cb38 <atanf+0x204>)
 800ca90:	429d      	cmp	r5, r3
 800ca92:	dc14      	bgt.n	800cabe <atanf+0x18a>
 800ca94:	f04f 517f 	mov.w	r1, #1069547520	; 0x3fc00000
 800ca98:	f7f4 f86a 	bl	8000b70 <__aeabi_fsub>
 800ca9c:	f04f 517f 	mov.w	r1, #1069547520	; 0x3fc00000
 800caa0:	4605      	mov	r5, r0
 800caa2:	4620      	mov	r0, r4
 800caa4:	f7f4 f96e 	bl	8000d84 <__aeabi_fmul>
 800caa8:	f04f 517e 	mov.w	r1, #1065353216	; 0x3f800000
 800caac:	f7f4 f862 	bl	8000b74 <__addsf3>
 800cab0:	4601      	mov	r1, r0
 800cab2:	4628      	mov	r0, r5
 800cab4:	f7f4 fa1a 	bl	8000eec <__aeabi_fdiv>
 800cab8:	2602      	movs	r6, #2
 800caba:	4604      	mov	r4, r0
 800cabc:	e781      	b.n	800c9c2 <atanf+0x8e>
 800cabe:	4601      	mov	r1, r0
 800cac0:	481e      	ldr	r0, [pc, #120]	; (800cb3c <atanf+0x208>)
 800cac2:	f7f4 fa13 	bl	8000eec <__aeabi_fdiv>
 800cac6:	2603      	movs	r6, #3
 800cac8:	4604      	mov	r4, r0
 800caca:	e77a      	b.n	800c9c2 <atanf+0x8e>
 800cacc:	4b1c      	ldr	r3, [pc, #112]	; (800cb40 <atanf+0x20c>)
 800cace:	f853 1026 	ldr.w	r1, [r3, r6, lsl #2]
 800cad2:	f7f4 f84d 	bl	8000b70 <__aeabi_fsub>
 800cad6:	4621      	mov	r1, r4
 800cad8:	f7f4 f84a 	bl	8000b70 <__aeabi_fsub>
 800cadc:	4b19      	ldr	r3, [pc, #100]	; (800cb44 <atanf+0x210>)
 800cade:	4601      	mov	r1, r0
 800cae0:	f853 0026 	ldr.w	r0, [r3, r6, lsl #2]
 800cae4:	f7f4 f844 	bl	8000b70 <__aeabi_fsub>
 800cae8:	f1b8 0f00 	cmp.w	r8, #0
 800caec:	4604      	mov	r4, r0
 800caee:	f6bf af36 	bge.w	800c95e <atanf+0x2a>
 800caf2:	f100 4400 	add.w	r4, r0, #2147483648	; 0x80000000
 800caf6:	e732      	b.n	800c95e <atanf+0x2a>
 800caf8:	4c13      	ldr	r4, [pc, #76]	; (800cb48 <atanf+0x214>)
 800cafa:	e730      	b.n	800c95e <atanf+0x2a>
 800cafc:	bfc90fdb 	.word	0xbfc90fdb
 800cb00:	3edfffff 	.word	0x3edfffff
 800cb04:	7149f2ca 	.word	0x7149f2ca
 800cb08:	3f97ffff 	.word	0x3f97ffff
 800cb0c:	3c8569d7 	.word	0x3c8569d7
 800cb10:	3d4bda59 	.word	0x3d4bda59
 800cb14:	3d886b35 	.word	0x3d886b35
 800cb18:	3dba2e6e 	.word	0x3dba2e6e
 800cb1c:	3e124925 	.word	0x3e124925
 800cb20:	3eaaaaab 	.word	0x3eaaaaab
 800cb24:	bd15a221 	.word	0xbd15a221
 800cb28:	3d6ef16b 	.word	0x3d6ef16b
 800cb2c:	3d9d8795 	.word	0x3d9d8795
 800cb30:	3de38e38 	.word	0x3de38e38
 800cb34:	3e4ccccd 	.word	0x3e4ccccd
 800cb38:	401bffff 	.word	0x401bffff
 800cb3c:	bf800000 	.word	0xbf800000
 800cb40:	0800df80 	.word	0x0800df80
 800cb44:	0800df70 	.word	0x0800df70
 800cb48:	3fc90fdb 	.word	0x3fc90fdb

0800cb4c <fabsf>:
 800cb4c:	f020 4000 	bic.w	r0, r0, #2147483648	; 0x80000000
 800cb50:	4770      	bx	lr
 800cb52:	0000      	movs	r0, r0
 800cb54:	0000      	movs	r0, r0
	...

0800cb58 <scalbn>:
 800cb58:	b5f8      	push	{r3, r4, r5, r6, r7, lr}
 800cb5a:	4616      	mov	r6, r2
 800cb5c:	f3c1 520a 	ubfx	r2, r1, #20, #11
 800cb60:	4604      	mov	r4, r0
 800cb62:	460d      	mov	r5, r1
 800cb64:	460b      	mov	r3, r1
 800cb66:	b992      	cbnz	r2, 800cb8e <scalbn+0x36>
 800cb68:	f021 4300 	bic.w	r3, r1, #2147483648	; 0x80000000
 800cb6c:	4303      	orrs	r3, r0
 800cb6e:	d03c      	beq.n	800cbea <scalbn+0x92>
 800cb70:	4b31      	ldr	r3, [pc, #196]	; (800cc38 <scalbn+0xe0>)
 800cb72:	2200      	movs	r2, #0
 800cb74:	f7f3 fcb0 	bl	80004d8 <__aeabi_dmul>
 800cb78:	4b30      	ldr	r3, [pc, #192]	; (800cc3c <scalbn+0xe4>)
 800cb7a:	4604      	mov	r4, r0
 800cb7c:	429e      	cmp	r6, r3
 800cb7e:	460d      	mov	r5, r1
 800cb80:	da0f      	bge.n	800cba2 <scalbn+0x4a>
 800cb82:	a329      	add	r3, pc, #164	; (adr r3, 800cc28 <scalbn+0xd0>)
 800cb84:	e9d3 2300 	ldrd	r2, r3, [r3]
 800cb88:	f7f3 fca6 	bl	80004d8 <__aeabi_dmul>
 800cb8c:	e006      	b.n	800cb9c <scalbn+0x44>
 800cb8e:	f240 77ff 	movw	r7, #2047	; 0x7ff
 800cb92:	42ba      	cmp	r2, r7
 800cb94:	d109      	bne.n	800cbaa <scalbn+0x52>
 800cb96:	4602      	mov	r2, r0
 800cb98:	f7f3 fae8 	bl	800016c <__adddf3>
 800cb9c:	4604      	mov	r4, r0
 800cb9e:	460d      	mov	r5, r1
 800cba0:	e023      	b.n	800cbea <scalbn+0x92>
 800cba2:	460b      	mov	r3, r1
 800cba4:	f3c1 520a 	ubfx	r2, r1, #20, #11
 800cba8:	3a36      	subs	r2, #54	; 0x36
 800cbaa:	f24c 3150 	movw	r1, #50000	; 0xc350
 800cbae:	428e      	cmp	r6, r1
 800cbb0:	dd0e      	ble.n	800cbd0 <scalbn+0x78>
 800cbb2:	a31f      	add	r3, pc, #124	; (adr r3, 800cc30 <scalbn+0xd8>)
 800cbb4:	e9d3 2300 	ldrd	r2, r3, [r3]
 800cbb8:	f005 4400 	and.w	r4, r5, #2147483648	; 0x80000000
 800cbbc:	f044 41fc 	orr.w	r1, r4, #2113929216	; 0x7e000000
 800cbc0:	f441 115f 	orr.w	r1, r1, #3653632	; 0x37c000
 800cbc4:	f441 5110 	orr.w	r1, r1, #9216	; 0x2400
 800cbc8:	481d      	ldr	r0, [pc, #116]	; (800cc40 <scalbn+0xe8>)
 800cbca:	f041 013c 	orr.w	r1, r1, #60	; 0x3c
 800cbce:	e7db      	b.n	800cb88 <scalbn+0x30>
 800cbd0:	f240 71fe 	movw	r1, #2046	; 0x7fe
 800cbd4:	4432      	add	r2, r6
 800cbd6:	428a      	cmp	r2, r1
 800cbd8:	dceb      	bgt.n	800cbb2 <scalbn+0x5a>
 800cbda:	2a00      	cmp	r2, #0
 800cbdc:	dd08      	ble.n	800cbf0 <scalbn+0x98>
 800cbde:	f023 43ff 	bic.w	r3, r3, #2139095040	; 0x7f800000
 800cbe2:	f423 03e0 	bic.w	r3, r3, #7340032	; 0x700000
 800cbe6:	ea43 5502 	orr.w	r5, r3, r2, lsl #20
 800cbea:	4620      	mov	r0, r4
 800cbec:	4629      	mov	r1, r5
 800cbee:	bdf8      	pop	{r3, r4, r5, r6, r7, pc}
 800cbf0:	f112 0f35 	cmn.w	r2, #53	; 0x35
 800cbf4:	da0c      	bge.n	800cc10 <scalbn+0xb8>
 800cbf6:	a30c      	add	r3, pc, #48	; (adr r3, 800cc28 <scalbn+0xd0>)
 800cbf8:	e9d3 2300 	ldrd	r2, r3, [r3]
 800cbfc:	f005 4400 	and.w	r4, r5, #2147483648	; 0x80000000
 800cc00:	f044 71d2 	orr.w	r1, r4, #27525120	; 0x1a40000
 800cc04:	f441 31b7 	orr.w	r1, r1, #93696	; 0x16e00
 800cc08:	480e      	ldr	r0, [pc, #56]	; (800cc44 <scalbn+0xec>)
 800cc0a:	f041 011f 	orr.w	r1, r1, #31
 800cc0e:	e7bb      	b.n	800cb88 <scalbn+0x30>
 800cc10:	f023 43ff 	bic.w	r3, r3, #2139095040	; 0x7f800000
 800cc14:	3236      	adds	r2, #54	; 0x36
 800cc16:	f423 03e0 	bic.w	r3, r3, #7340032	; 0x700000
 800cc1a:	ea43 5502 	orr.w	r5, r3, r2, lsl #20
 800cc1e:	4620      	mov	r0, r4
 800cc20:	4629      	mov	r1, r5
 800cc22:	2200      	movs	r2, #0
 800cc24:	4b08      	ldr	r3, [pc, #32]	; (800cc48 <scalbn+0xf0>)
 800cc26:	e7af      	b.n	800cb88 <scalbn+0x30>
 800cc28:	c2f8f359 	.word	0xc2f8f359
 800cc2c:	01a56e1f 	.word	0x01a56e1f
 800cc30:	8800759c 	.word	0x8800759c
 800cc34:	7e37e43c 	.word	0x7e37e43c
 800cc38:	43500000 	.word	0x43500000
 800cc3c:	ffff3cb0 	.word	0xffff3cb0
 800cc40:	8800759c 	.word	0x8800759c
 800cc44:	c2f8f359 	.word	0xc2f8f359
 800cc48:	3c900000 	.word	0x3c900000

0800cc4c <with_errno>:
 800cc4c:	b570      	push	{r4, r5, r6, lr}
 800cc4e:	4604      	mov	r4, r0
 800cc50:	460d      	mov	r5, r1
 800cc52:	4616      	mov	r6, r2
 800cc54:	f7fb ffca 	bl	8008bec <__errno>
 800cc58:	4629      	mov	r1, r5
 800cc5a:	6006      	str	r6, [r0, #0]
 800cc5c:	4620      	mov	r0, r4
 800cc5e:	bd70      	pop	{r4, r5, r6, pc}

0800cc60 <xflow>:
 800cc60:	b537      	push	{r0, r1, r2, r4, r5, lr}
 800cc62:	4615      	mov	r5, r2
 800cc64:	461c      	mov	r4, r3
 800cc66:	b180      	cbz	r0, 800cc8a <xflow+0x2a>
 800cc68:	4610      	mov	r0, r2
 800cc6a:	f103 4100 	add.w	r1, r3, #2147483648	; 0x80000000
 800cc6e:	e9cd 0100 	strd	r0, r1, [sp]
 800cc72:	e9dd 2300 	ldrd	r2, r3, [sp]
 800cc76:	4628      	mov	r0, r5
 800cc78:	4621      	mov	r1, r4
 800cc7a:	f7f3 fc2d 	bl	80004d8 <__aeabi_dmul>
 800cc7e:	2222      	movs	r2, #34	; 0x22
 800cc80:	b003      	add	sp, #12
 800cc82:	e8bd 4030 	ldmia.w	sp!, {r4, r5, lr}
 800cc86:	f7ff bfe1 	b.w	800cc4c <with_errno>
 800cc8a:	4610      	mov	r0, r2
 800cc8c:	4619      	mov	r1, r3
 800cc8e:	e7ee      	b.n	800cc6e <xflow+0xe>

0800cc90 <__math_uflow>:
 800cc90:	2200      	movs	r2, #0
 800cc92:	f04f 5380 	mov.w	r3, #268435456	; 0x10000000
 800cc96:	f7ff bfe3 	b.w	800cc60 <xflow>

0800cc9a <__math_oflow>:
 800cc9a:	2200      	movs	r2, #0
 800cc9c:	f04f 43e0 	mov.w	r3, #1879048192	; 0x70000000
 800cca0:	f7ff bfde 	b.w	800cc60 <xflow>

0800cca4 <__kernel_rem_pio2>:
 800cca4:	e92d 4ff0 	stmdb	sp!, {r4, r5, r6, r7, r8, r9, sl, fp, lr}
 800cca8:	f5ad 7d19 	sub.w	sp, sp, #612	; 0x264
 800ccac:	9308      	str	r3, [sp, #32]
 800ccae:	9106      	str	r1, [sp, #24]
 800ccb0:	4bb6      	ldr	r3, [pc, #728]	; (800cf8c <__kernel_rem_pio2+0x2e8>)
 800ccb2:	99a2      	ldr	r1, [sp, #648]	; 0x288
 800ccb4:	f112 0f14 	cmn.w	r2, #20
 800ccb8:	f853 3021 	ldr.w	r3, [r3, r1, lsl #2]
 800ccbc:	bfa8      	it	ge
 800ccbe:	1ed4      	subge	r4, r2, #3
 800ccc0:	9302      	str	r3, [sp, #8]
 800ccc2:	9b08      	ldr	r3, [sp, #32]
 800ccc4:	bfb8      	it	lt
 800ccc6:	2400      	movlt	r4, #0
 800ccc8:	f103 33ff 	add.w	r3, r3, #4294967295
 800cccc:	9307      	str	r3, [sp, #28]
 800ccce:	bfa4      	itt	ge
 800ccd0:	2318      	movge	r3, #24
 800ccd2:	fb94 f4f3 	sdivge	r4, r4, r3
 800ccd6:	f06f 0317 	mvn.w	r3, #23
 800ccda:	fb04 3303 	mla	r3, r4, r3, r3
 800ccde:	eb03 0b02 	add.w	fp, r3, r2
 800cce2:	9a07      	ldr	r2, [sp, #28]
 800cce4:	9b02      	ldr	r3, [sp, #8]
 800cce6:	1aa7      	subs	r7, r4, r2
 800cce8:	eb03 0802 	add.w	r8, r3, r2
 800ccec:	9ba3      	ldr	r3, [sp, #652]	; 0x28c
 800ccee:	2500      	movs	r5, #0
 800ccf0:	eb03 0987 	add.w	r9, r3, r7, lsl #2
 800ccf4:	2200      	movs	r2, #0
 800ccf6:	2300      	movs	r3, #0
 800ccf8:	9009      	str	r0, [sp, #36]	; 0x24
 800ccfa:	ae20      	add	r6, sp, #128	; 0x80
 800ccfc:	4545      	cmp	r5, r8
 800ccfe:	dd14      	ble.n	800cd2a <__kernel_rem_pio2+0x86>
 800cd00:	f04f 0800 	mov.w	r8, #0
 800cd04:	9a08      	ldr	r2, [sp, #32]
 800cd06:	ab20      	add	r3, sp, #128	; 0x80
 800cd08:	eb03 05c2 	add.w	r5, r3, r2, lsl #3
 800cd0c:	f50d 7ae0 	add.w	sl, sp, #448	; 0x1c0
 800cd10:	9b02      	ldr	r3, [sp, #8]
 800cd12:	4598      	cmp	r8, r3
 800cd14:	dc35      	bgt.n	800cd82 <__kernel_rem_pio2+0xde>
 800cd16:	9b09      	ldr	r3, [sp, #36]	; 0x24
 800cd18:	2200      	movs	r2, #0
 800cd1a:	f1a3 0908 	sub.w	r9, r3, #8
 800cd1e:	2300      	movs	r3, #0
 800cd20:	462f      	mov	r7, r5
 800cd22:	2600      	movs	r6, #0
 800cd24:	e9cd 2300 	strd	r2, r3, [sp]
 800cd28:	e01f      	b.n	800cd6a <__kernel_rem_pio2+0xc6>
 800cd2a:	42ef      	cmn	r7, r5
 800cd2c:	d40b      	bmi.n	800cd46 <__kernel_rem_pio2+0xa2>
 800cd2e:	f859 0025 	ldr.w	r0, [r9, r5, lsl #2]
 800cd32:	e9cd 2300 	strd	r2, r3, [sp]
 800cd36:	f7f3 fb65 	bl	8000404 <__aeabi_i2d>
 800cd3a:	e9dd 2300 	ldrd	r2, r3, [sp]
 800cd3e:	e8e6 0102 	strd	r0, r1, [r6], #8
 800cd42:	3501      	adds	r5, #1
 800cd44:	e7da      	b.n	800ccfc <__kernel_rem_pio2+0x58>
 800cd46:	4610      	mov	r0, r2
 800cd48:	4619      	mov	r1, r3
 800cd4a:	e7f8      	b.n	800cd3e <__kernel_rem_pio2+0x9a>
 800cd4c:	e9d7 2300 	ldrd	r2, r3, [r7]
 800cd50:	e9f9 0102 	ldrd	r0, r1, [r9, #8]!
 800cd54:	f7f3 fbc0 	bl	80004d8 <__aeabi_dmul>
 800cd58:	4602      	mov	r2, r0
 800cd5a:	460b      	mov	r3, r1
 800cd5c:	e9dd 0100 	ldrd	r0, r1, [sp]
 800cd60:	f7f3 fa04 	bl	800016c <__adddf3>
 800cd64:	e9cd 0100 	strd	r0, r1, [sp]
 800cd68:	3601      	adds	r6, #1
 800cd6a:	9b07      	ldr	r3, [sp, #28]
 800cd6c:	3f08      	subs	r7, #8
 800cd6e:	429e      	cmp	r6, r3
 800cd70:	ddec      	ble.n	800cd4c <__kernel_rem_pio2+0xa8>
 800cd72:	e9dd 2300 	ldrd	r2, r3, [sp]
 800cd76:	f108 0801 	add.w	r8, r8, #1
 800cd7a:	e8ea 2302 	strd	r2, r3, [sl], #8
 800cd7e:	3508      	adds	r5, #8
 800cd80:	e7c6      	b.n	800cd10 <__kernel_rem_pio2+0x6c>
 800cd82:	9b02      	ldr	r3, [sp, #8]
 800cd84:	aa0c      	add	r2, sp, #48	; 0x30
 800cd86:	eb02 0383 	add.w	r3, r2, r3, lsl #2
 800cd8a:	930b      	str	r3, [sp, #44]	; 0x2c
 800cd8c:	9ba3      	ldr	r3, [sp, #652]	; 0x28c
 800cd8e:	9e02      	ldr	r6, [sp, #8]
 800cd90:	eb03 0384 	add.w	r3, r3, r4, lsl #2
 800cd94:	930a      	str	r3, [sp, #40]	; 0x28
 800cd96:	ab98      	add	r3, sp, #608	; 0x260
 800cd98:	eb03 03c6 	add.w	r3, r3, r6, lsl #3
 800cd9c:	e953 4528 	ldrd	r4, r5, [r3, #-160]	; 0xa0
 800cda0:	ab70      	add	r3, sp, #448	; 0x1c0
 800cda2:	eb03 0ac6 	add.w	sl, r3, r6, lsl #3
 800cda6:	46d0      	mov	r8, sl
 800cda8:	46b1      	mov	r9, r6
 800cdaa:	af0c      	add	r7, sp, #48	; 0x30
 800cdac:	9700      	str	r7, [sp, #0]
 800cdae:	f1b9 0f00 	cmp.w	r9, #0
 800cdb2:	f1a8 0808 	sub.w	r8, r8, #8
 800cdb6:	dc70      	bgt.n	800ce9a <__kernel_rem_pio2+0x1f6>
 800cdb8:	465a      	mov	r2, fp
 800cdba:	4620      	mov	r0, r4
 800cdbc:	4629      	mov	r1, r5
 800cdbe:	f7ff fecb 	bl	800cb58 <scalbn>
 800cdc2:	2200      	movs	r2, #0
 800cdc4:	f04f 537f 	mov.w	r3, #1069547520	; 0x3fc00000
 800cdc8:	4604      	mov	r4, r0
 800cdca:	460d      	mov	r5, r1
 800cdcc:	f7f3 fb84 	bl	80004d8 <__aeabi_dmul>
 800cdd0:	f000 faaa 	bl	800d328 <floor>
 800cdd4:	2200      	movs	r2, #0
 800cdd6:	4b6e      	ldr	r3, [pc, #440]	; (800cf90 <__kernel_rem_pio2+0x2ec>)
 800cdd8:	f7f3 fb7e 	bl	80004d8 <__aeabi_dmul>
 800cddc:	4602      	mov	r2, r0
 800cdde:	460b      	mov	r3, r1
 800cde0:	4620      	mov	r0, r4
 800cde2:	4629      	mov	r1, r5
 800cde4:	f7f3 f9c0 	bl	8000168 <__aeabi_dsub>
 800cde8:	460d      	mov	r5, r1
 800cdea:	4604      	mov	r4, r0
 800cdec:	f7f3 fe24 	bl	8000a38 <__aeabi_d2iz>
 800cdf0:	9004      	str	r0, [sp, #16]
 800cdf2:	f7f3 fb07 	bl	8000404 <__aeabi_i2d>
 800cdf6:	4602      	mov	r2, r0
 800cdf8:	460b      	mov	r3, r1
 800cdfa:	4620      	mov	r0, r4
 800cdfc:	4629      	mov	r1, r5
 800cdfe:	f7f3 f9b3 	bl	8000168 <__aeabi_dsub>
 800ce02:	f1bb 0f00 	cmp.w	fp, #0
 800ce06:	4680      	mov	r8, r0
 800ce08:	4689      	mov	r9, r1
 800ce0a:	dd6f      	ble.n	800ceec <__kernel_rem_pio2+0x248>
 800ce0c:	1e71      	subs	r1, r6, #1
 800ce0e:	ab0c      	add	r3, sp, #48	; 0x30
 800ce10:	f853 3021 	ldr.w	r3, [r3, r1, lsl #2]
 800ce14:	9c04      	ldr	r4, [sp, #16]
 800ce16:	f1cb 0018 	rsb	r0, fp, #24
 800ce1a:	fa43 f200 	asr.w	r2, r3, r0
 800ce1e:	4414      	add	r4, r2
 800ce20:	4082      	lsls	r2, r0
 800ce22:	1a9b      	subs	r3, r3, r2
 800ce24:	aa0c      	add	r2, sp, #48	; 0x30
 800ce26:	f842 3021 	str.w	r3, [r2, r1, lsl #2]
 800ce2a:	f1cb 0217 	rsb	r2, fp, #23
 800ce2e:	9404      	str	r4, [sp, #16]
 800ce30:	4113      	asrs	r3, r2
 800ce32:	9300      	str	r3, [sp, #0]
 800ce34:	9b00      	ldr	r3, [sp, #0]
 800ce36:	2b00      	cmp	r3, #0
 800ce38:	dd66      	ble.n	800cf08 <__kernel_rem_pio2+0x264>
 800ce3a:	2200      	movs	r2, #0
 800ce3c:	f06f 417f 	mvn.w	r1, #4278190080	; 0xff000000
 800ce40:	4614      	mov	r4, r2
 800ce42:	9b04      	ldr	r3, [sp, #16]
 800ce44:	3301      	adds	r3, #1
 800ce46:	9304      	str	r3, [sp, #16]
 800ce48:	4296      	cmp	r6, r2
 800ce4a:	f300 80ad 	bgt.w	800cfa8 <__kernel_rem_pio2+0x304>
 800ce4e:	f1bb 0f00 	cmp.w	fp, #0
 800ce52:	dd07      	ble.n	800ce64 <__kernel_rem_pio2+0x1c0>
 800ce54:	f1bb 0f01 	cmp.w	fp, #1
 800ce58:	f000 80b5 	beq.w	800cfc6 <__kernel_rem_pio2+0x322>
 800ce5c:	f1bb 0f02 	cmp.w	fp, #2
 800ce60:	f000 80bb 	beq.w	800cfda <__kernel_rem_pio2+0x336>
 800ce64:	9b00      	ldr	r3, [sp, #0]
 800ce66:	2b02      	cmp	r3, #2
 800ce68:	d14e      	bne.n	800cf08 <__kernel_rem_pio2+0x264>
 800ce6a:	4642      	mov	r2, r8
 800ce6c:	464b      	mov	r3, r9
 800ce6e:	2000      	movs	r0, #0
 800ce70:	4948      	ldr	r1, [pc, #288]	; (800cf94 <__kernel_rem_pio2+0x2f0>)
 800ce72:	f7f3 f979 	bl	8000168 <__aeabi_dsub>
 800ce76:	4680      	mov	r8, r0
 800ce78:	4689      	mov	r9, r1
 800ce7a:	2c00      	cmp	r4, #0
 800ce7c:	d044      	beq.n	800cf08 <__kernel_rem_pio2+0x264>
 800ce7e:	465a      	mov	r2, fp
 800ce80:	2000      	movs	r0, #0
 800ce82:	4944      	ldr	r1, [pc, #272]	; (800cf94 <__kernel_rem_pio2+0x2f0>)
 800ce84:	f7ff fe68 	bl	800cb58 <scalbn>
 800ce88:	4602      	mov	r2, r0
 800ce8a:	460b      	mov	r3, r1
 800ce8c:	4640      	mov	r0, r8
 800ce8e:	4649      	mov	r1, r9
 800ce90:	f7f3 f96a 	bl	8000168 <__aeabi_dsub>
 800ce94:	4680      	mov	r8, r0
 800ce96:	4689      	mov	r9, r1
 800ce98:	e036      	b.n	800cf08 <__kernel_rem_pio2+0x264>
 800ce9a:	2200      	movs	r2, #0
 800ce9c:	4b3e      	ldr	r3, [pc, #248]	; (800cf98 <__kernel_rem_pio2+0x2f4>)
 800ce9e:	4620      	mov	r0, r4
 800cea0:	4629      	mov	r1, r5
 800cea2:	f7f3 fb19 	bl	80004d8 <__aeabi_dmul>
 800cea6:	f7f3 fdc7 	bl	8000a38 <__aeabi_d2iz>
 800ceaa:	f7f3 faab 	bl	8000404 <__aeabi_i2d>
 800ceae:	4602      	mov	r2, r0
 800ceb0:	460b      	mov	r3, r1
 800ceb2:	e9cd 2304 	strd	r2, r3, [sp, #16]
 800ceb6:	2200      	movs	r2, #0
 800ceb8:	4b38      	ldr	r3, [pc, #224]	; (800cf9c <__kernel_rem_pio2+0x2f8>)
 800ceba:	f7f3 fb0d 	bl	80004d8 <__aeabi_dmul>
 800cebe:	4602      	mov	r2, r0
 800cec0:	460b      	mov	r3, r1
 800cec2:	4620      	mov	r0, r4
 800cec4:	4629      	mov	r1, r5
 800cec6:	f7f3 f94f 	bl	8000168 <__aeabi_dsub>
 800ceca:	f7f3 fdb5 	bl	8000a38 <__aeabi_d2iz>
 800cece:	9b00      	ldr	r3, [sp, #0]
 800ced0:	f109 39ff 	add.w	r9, r9, #4294967295
 800ced4:	f843 0b04 	str.w	r0, [r3], #4
 800ced8:	9300      	str	r3, [sp, #0]
 800ceda:	e9dd 0104 	ldrd	r0, r1, [sp, #16]
 800cede:	e9d8 2300 	ldrd	r2, r3, [r8]
 800cee2:	f7f3 f943 	bl	800016c <__adddf3>
 800cee6:	4604      	mov	r4, r0
 800cee8:	460d      	mov	r5, r1
 800ceea:	e760      	b.n	800cdae <__kernel_rem_pio2+0x10a>
 800ceec:	d105      	bne.n	800cefa <__kernel_rem_pio2+0x256>
 800ceee:	1e73      	subs	r3, r6, #1
 800cef0:	aa0c      	add	r2, sp, #48	; 0x30
 800cef2:	f852 3023 	ldr.w	r3, [r2, r3, lsl #2]
 800cef6:	15db      	asrs	r3, r3, #23
 800cef8:	e79b      	b.n	800ce32 <__kernel_rem_pio2+0x18e>
 800cefa:	2200      	movs	r2, #0
 800cefc:	4b28      	ldr	r3, [pc, #160]	; (800cfa0 <__kernel_rem_pio2+0x2fc>)
 800cefe:	f7f3 fd71 	bl	80009e4 <__aeabi_dcmpge>
 800cf02:	2800      	cmp	r0, #0
 800cf04:	d13e      	bne.n	800cf84 <__kernel_rem_pio2+0x2e0>
 800cf06:	9000      	str	r0, [sp, #0]
 800cf08:	2200      	movs	r2, #0
 800cf0a:	2300      	movs	r3, #0
 800cf0c:	4640      	mov	r0, r8
 800cf0e:	4649      	mov	r1, r9
 800cf10:	f7f3 fd4a 	bl	80009a8 <__aeabi_dcmpeq>
 800cf14:	2800      	cmp	r0, #0
 800cf16:	f000 80b2 	beq.w	800d07e <__kernel_rem_pio2+0x3da>
 800cf1a:	1e74      	subs	r4, r6, #1
 800cf1c:	4623      	mov	r3, r4
 800cf1e:	2200      	movs	r2, #0
 800cf20:	9902      	ldr	r1, [sp, #8]
 800cf22:	428b      	cmp	r3, r1
 800cf24:	da60      	bge.n	800cfe8 <__kernel_rem_pio2+0x344>
 800cf26:	2a00      	cmp	r2, #0
 800cf28:	d075      	beq.n	800d016 <__kernel_rem_pio2+0x372>
 800cf2a:	ab0c      	add	r3, sp, #48	; 0x30
 800cf2c:	f853 3024 	ldr.w	r3, [r3, r4, lsl #2]
 800cf30:	f1ab 0b18 	sub.w	fp, fp, #24
 800cf34:	2b00      	cmp	r3, #0
 800cf36:	f000 80a0 	beq.w	800d07a <__kernel_rem_pio2+0x3d6>
 800cf3a:	465a      	mov	r2, fp
 800cf3c:	2000      	movs	r0, #0
 800cf3e:	4915      	ldr	r1, [pc, #84]	; (800cf94 <__kernel_rem_pio2+0x2f0>)
 800cf40:	f7ff fe0a 	bl	800cb58 <scalbn>
 800cf44:	46a2      	mov	sl, r4
 800cf46:	4606      	mov	r6, r0
 800cf48:	460f      	mov	r7, r1
 800cf4a:	f04f 0800 	mov.w	r8, #0
 800cf4e:	ab70      	add	r3, sp, #448	; 0x1c0
 800cf50:	f8df 9044 	ldr.w	r9, [pc, #68]	; 800cf98 <__kernel_rem_pio2+0x2f4>
 800cf54:	00e5      	lsls	r5, r4, #3
 800cf56:	eb03 0bc4 	add.w	fp, r3, r4, lsl #3
 800cf5a:	f1ba 0f00 	cmp.w	sl, #0
 800cf5e:	f280 80c4 	bge.w	800d0ea <__kernel_rem_pio2+0x446>
 800cf62:	4626      	mov	r6, r4
 800cf64:	2e00      	cmp	r6, #0
 800cf66:	f2c0 80f6 	blt.w	800d156 <__kernel_rem_pio2+0x4b2>
 800cf6a:	4b0e      	ldr	r3, [pc, #56]	; (800cfa4 <__kernel_rem_pio2+0x300>)
 800cf6c:	f04f 0a00 	mov.w	sl, #0
 800cf70:	9307      	str	r3, [sp, #28]
 800cf72:	ab70      	add	r3, sp, #448	; 0x1c0
 800cf74:	f04f 0b00 	mov.w	fp, #0
 800cf78:	f04f 0800 	mov.w	r8, #0
 800cf7c:	eb03 09c6 	add.w	r9, r3, r6, lsl #3
 800cf80:	1ba7      	subs	r7, r4, r6
 800cf82:	e0dc      	b.n	800d13e <__kernel_rem_pio2+0x49a>
 800cf84:	2302      	movs	r3, #2
 800cf86:	9300      	str	r3, [sp, #0]
 800cf88:	e757      	b.n	800ce3a <__kernel_rem_pio2+0x196>
 800cf8a:	bf00      	nop
 800cf8c:	0800dfd0 	.word	0x0800dfd0
 800cf90:	40200000 	.word	0x40200000
 800cf94:	3ff00000 	.word	0x3ff00000
 800cf98:	3e700000 	.word	0x3e700000
 800cf9c:	41700000 	.word	0x41700000
 800cfa0:	3fe00000 	.word	0x3fe00000
 800cfa4:	0800df90 	.word	0x0800df90
 800cfa8:	683b      	ldr	r3, [r7, #0]
 800cfaa:	b944      	cbnz	r4, 800cfbe <__kernel_rem_pio2+0x31a>
 800cfac:	b11b      	cbz	r3, 800cfb6 <__kernel_rem_pio2+0x312>
 800cfae:	f1c3 7380 	rsb	r3, r3, #16777216	; 0x1000000
 800cfb2:	603b      	str	r3, [r7, #0]
 800cfb4:	2301      	movs	r3, #1
 800cfb6:	461c      	mov	r4, r3
 800cfb8:	3201      	adds	r2, #1
 800cfba:	3704      	adds	r7, #4
 800cfbc:	e744      	b.n	800ce48 <__kernel_rem_pio2+0x1a4>
 800cfbe:	1acb      	subs	r3, r1, r3
 800cfc0:	603b      	str	r3, [r7, #0]
 800cfc2:	4623      	mov	r3, r4
 800cfc4:	e7f7      	b.n	800cfb6 <__kernel_rem_pio2+0x312>
 800cfc6:	1e72      	subs	r2, r6, #1
 800cfc8:	ab0c      	add	r3, sp, #48	; 0x30
 800cfca:	f853 3022 	ldr.w	r3, [r3, r2, lsl #2]
 800cfce:	f3c3 0316 	ubfx	r3, r3, #0, #23
 800cfd2:	a90c      	add	r1, sp, #48	; 0x30
 800cfd4:	f841 3022 	str.w	r3, [r1, r2, lsl #2]
 800cfd8:	e744      	b.n	800ce64 <__kernel_rem_pio2+0x1c0>
 800cfda:	1e72      	subs	r2, r6, #1
 800cfdc:	ab0c      	add	r3, sp, #48	; 0x30
 800cfde:	f853 3022 	ldr.w	r3, [r3, r2, lsl #2]
 800cfe2:	f3c3 0315 	ubfx	r3, r3, #0, #22
 800cfe6:	e7f4      	b.n	800cfd2 <__kernel_rem_pio2+0x32e>
 800cfe8:	a90c      	add	r1, sp, #48	; 0x30
 800cfea:	f851 1023 	ldr.w	r1, [r1, r3, lsl #2]
 800cfee:	3b01      	subs	r3, #1
 800cff0:	430a      	orrs	r2, r1
 800cff2:	e795      	b.n	800cf20 <__kernel_rem_pio2+0x27c>
 800cff4:	3301      	adds	r3, #1
 800cff6:	f852 1d04 	ldr.w	r1, [r2, #-4]!
 800cffa:	2900      	cmp	r1, #0
 800cffc:	d0fa      	beq.n	800cff4 <__kernel_rem_pio2+0x350>
 800cffe:	9a08      	ldr	r2, [sp, #32]
 800d000:	a920      	add	r1, sp, #128	; 0x80
 800d002:	18b2      	adds	r2, r6, r2
 800d004:	f106 0801 	add.w	r8, r6, #1
 800d008:	eb01 05c2 	add.w	r5, r1, r2, lsl #3
 800d00c:	18f4      	adds	r4, r6, r3
 800d00e:	4544      	cmp	r4, r8
 800d010:	da04      	bge.n	800d01c <__kernel_rem_pio2+0x378>
 800d012:	4626      	mov	r6, r4
 800d014:	e6bf      	b.n	800cd96 <__kernel_rem_pio2+0xf2>
 800d016:	2301      	movs	r3, #1
 800d018:	9a0b      	ldr	r2, [sp, #44]	; 0x2c
 800d01a:	e7ec      	b.n	800cff6 <__kernel_rem_pio2+0x352>
 800d01c:	9b0a      	ldr	r3, [sp, #40]	; 0x28
 800d01e:	f04f 0900 	mov.w	r9, #0
 800d022:	f853 0028 	ldr.w	r0, [r3, r8, lsl #2]
 800d026:	f7f3 f9ed 	bl	8000404 <__aeabi_i2d>
 800d02a:	2600      	movs	r6, #0
 800d02c:	2700      	movs	r7, #0
 800d02e:	9b09      	ldr	r3, [sp, #36]	; 0x24
 800d030:	e9c5 0100 	strd	r0, r1, [r5]
 800d034:	3b08      	subs	r3, #8
 800d036:	9300      	str	r3, [sp, #0]
 800d038:	9504      	str	r5, [sp, #16]
 800d03a:	9b07      	ldr	r3, [sp, #28]
 800d03c:	4599      	cmp	r9, r3
 800d03e:	dd05      	ble.n	800d04c <__kernel_rem_pio2+0x3a8>
 800d040:	e9ea 6702 	strd	r6, r7, [sl, #8]!
 800d044:	f108 0801 	add.w	r8, r8, #1
 800d048:	3508      	adds	r5, #8
 800d04a:	e7e0      	b.n	800d00e <__kernel_rem_pio2+0x36a>
 800d04c:	f8dd c010 	ldr.w	ip, [sp, #16]
 800d050:	9900      	ldr	r1, [sp, #0]
 800d052:	f109 0901 	add.w	r9, r9, #1
 800d056:	e9f1 2302 	ldrd	r2, r3, [r1, #8]!
 800d05a:	9100      	str	r1, [sp, #0]
 800d05c:	e87c 0102 	ldrd	r0, r1, [ip], #-8
 800d060:	f8cd c010 	str.w	ip, [sp, #16]
 800d064:	f7f3 fa38 	bl	80004d8 <__aeabi_dmul>
 800d068:	4602      	mov	r2, r0
 800d06a:	460b      	mov	r3, r1
 800d06c:	4630      	mov	r0, r6
 800d06e:	4639      	mov	r1, r7
 800d070:	f7f3 f87c 	bl	800016c <__adddf3>
 800d074:	4606      	mov	r6, r0
 800d076:	460f      	mov	r7, r1
 800d078:	e7df      	b.n	800d03a <__kernel_rem_pio2+0x396>
 800d07a:	3c01      	subs	r4, #1
 800d07c:	e755      	b.n	800cf2a <__kernel_rem_pio2+0x286>
 800d07e:	f1cb 0200 	rsb	r2, fp, #0
 800d082:	4640      	mov	r0, r8
 800d084:	4649      	mov	r1, r9
 800d086:	f7ff fd67 	bl	800cb58 <scalbn>
 800d08a:	2200      	movs	r2, #0
 800d08c:	4ba3      	ldr	r3, [pc, #652]	; (800d31c <__kernel_rem_pio2+0x678>)
 800d08e:	4604      	mov	r4, r0
 800d090:	460d      	mov	r5, r1
 800d092:	f7f3 fca7 	bl	80009e4 <__aeabi_dcmpge>
 800d096:	b1f8      	cbz	r0, 800d0d8 <__kernel_rem_pio2+0x434>
 800d098:	2200      	movs	r2, #0
 800d09a:	4ba1      	ldr	r3, [pc, #644]	; (800d320 <__kernel_rem_pio2+0x67c>)
 800d09c:	4620      	mov	r0, r4
 800d09e:	4629      	mov	r1, r5
 800d0a0:	f7f3 fa1a 	bl	80004d8 <__aeabi_dmul>
 800d0a4:	f7f3 fcc8 	bl	8000a38 <__aeabi_d2iz>
 800d0a8:	4607      	mov	r7, r0
 800d0aa:	f7f3 f9ab 	bl	8000404 <__aeabi_i2d>
 800d0ae:	2200      	movs	r2, #0
 800d0b0:	4b9a      	ldr	r3, [pc, #616]	; (800d31c <__kernel_rem_pio2+0x678>)
 800d0b2:	f7f3 fa11 	bl	80004d8 <__aeabi_dmul>
 800d0b6:	460b      	mov	r3, r1
 800d0b8:	4602      	mov	r2, r0
 800d0ba:	4629      	mov	r1, r5
 800d0bc:	4620      	mov	r0, r4
 800d0be:	f7f3 f853 	bl	8000168 <__aeabi_dsub>
 800d0c2:	f7f3 fcb9 	bl	8000a38 <__aeabi_d2iz>
 800d0c6:	1c74      	adds	r4, r6, #1
 800d0c8:	ab0c      	add	r3, sp, #48	; 0x30
 800d0ca:	f843 0026 	str.w	r0, [r3, r6, lsl #2]
 800d0ce:	f10b 0b18 	add.w	fp, fp, #24
 800d0d2:	f843 7024 	str.w	r7, [r3, r4, lsl #2]
 800d0d6:	e730      	b.n	800cf3a <__kernel_rem_pio2+0x296>
 800d0d8:	4620      	mov	r0, r4
 800d0da:	4629      	mov	r1, r5
 800d0dc:	f7f3 fcac 	bl	8000a38 <__aeabi_d2iz>
 800d0e0:	ab0c      	add	r3, sp, #48	; 0x30
 800d0e2:	4634      	mov	r4, r6
 800d0e4:	f843 0026 	str.w	r0, [r3, r6, lsl #2]
 800d0e8:	e727      	b.n	800cf3a <__kernel_rem_pio2+0x296>
 800d0ea:	ab0c      	add	r3, sp, #48	; 0x30
 800d0ec:	f853 002a 	ldr.w	r0, [r3, sl, lsl #2]
 800d0f0:	f7f3 f988 	bl	8000404 <__aeabi_i2d>
 800d0f4:	4632      	mov	r2, r6
 800d0f6:	463b      	mov	r3, r7
 800d0f8:	f7f3 f9ee 	bl	80004d8 <__aeabi_dmul>
 800d0fc:	4642      	mov	r2, r8
 800d0fe:	e86b 0102 	strd	r0, r1, [fp], #-8
 800d102:	464b      	mov	r3, r9
 800d104:	4630      	mov	r0, r6
 800d106:	4639      	mov	r1, r7
 800d108:	f7f3 f9e6 	bl	80004d8 <__aeabi_dmul>
 800d10c:	f10a 3aff 	add.w	sl, sl, #4294967295
 800d110:	4606      	mov	r6, r0
 800d112:	460f      	mov	r7, r1
 800d114:	e721      	b.n	800cf5a <__kernel_rem_pio2+0x2b6>
 800d116:	f8dd c01c 	ldr.w	ip, [sp, #28]
 800d11a:	e8f9 2302 	ldrd	r2, r3, [r9], #8
 800d11e:	e8fc 0102 	ldrd	r0, r1, [ip], #8
 800d122:	f8cd c01c 	str.w	ip, [sp, #28]
 800d126:	f7f3 f9d7 	bl	80004d8 <__aeabi_dmul>
 800d12a:	4602      	mov	r2, r0
 800d12c:	460b      	mov	r3, r1
 800d12e:	4650      	mov	r0, sl
 800d130:	4659      	mov	r1, fp
 800d132:	f7f3 f81b 	bl	800016c <__adddf3>
 800d136:	4682      	mov	sl, r0
 800d138:	468b      	mov	fp, r1
 800d13a:	f108 0801 	add.w	r8, r8, #1
 800d13e:	9b02      	ldr	r3, [sp, #8]
 800d140:	4598      	cmp	r8, r3
 800d142:	dc01      	bgt.n	800d148 <__kernel_rem_pio2+0x4a4>
 800d144:	45b8      	cmp	r8, r7
 800d146:	dde6      	ble.n	800d116 <__kernel_rem_pio2+0x472>
 800d148:	ab48      	add	r3, sp, #288	; 0x120
 800d14a:	eb03 07c7 	add.w	r7, r3, r7, lsl #3
 800d14e:	e9c7 ab00 	strd	sl, fp, [r7]
 800d152:	3e01      	subs	r6, #1
 800d154:	e706      	b.n	800cf64 <__kernel_rem_pio2+0x2c0>
 800d156:	9ba2      	ldr	r3, [sp, #648]	; 0x288
 800d158:	2b02      	cmp	r3, #2
 800d15a:	dc09      	bgt.n	800d170 <__kernel_rem_pio2+0x4cc>
 800d15c:	2b00      	cmp	r3, #0
 800d15e:	dc32      	bgt.n	800d1c6 <__kernel_rem_pio2+0x522>
 800d160:	d058      	beq.n	800d214 <__kernel_rem_pio2+0x570>
 800d162:	9b04      	ldr	r3, [sp, #16]
 800d164:	f003 0007 	and.w	r0, r3, #7
 800d168:	f50d 7d19 	add.w	sp, sp, #612	; 0x264
 800d16c:	e8bd 8ff0 	ldmia.w	sp!, {r4, r5, r6, r7, r8, r9, sl, fp, pc}
 800d170:	9ba2      	ldr	r3, [sp, #648]	; 0x288
 800d172:	2b03      	cmp	r3, #3
 800d174:	d1f5      	bne.n	800d162 <__kernel_rem_pio2+0x4be>
 800d176:	ab48      	add	r3, sp, #288	; 0x120
 800d178:	441d      	add	r5, r3
 800d17a:	46aa      	mov	sl, r5
 800d17c:	46a3      	mov	fp, r4
 800d17e:	f1bb 0f00 	cmp.w	fp, #0
 800d182:	dc74      	bgt.n	800d26e <__kernel_rem_pio2+0x5ca>
 800d184:	46aa      	mov	sl, r5
 800d186:	46a3      	mov	fp, r4
 800d188:	f1bb 0f01 	cmp.w	fp, #1
 800d18c:	f300 808e 	bgt.w	800d2ac <__kernel_rem_pio2+0x608>
 800d190:	2700      	movs	r7, #0
 800d192:	463e      	mov	r6, r7
 800d194:	2c01      	cmp	r4, #1
 800d196:	f300 80a8 	bgt.w	800d2ea <__kernel_rem_pio2+0x646>
 800d19a:	e9dd 5048 	ldrd	r5, r0, [sp, #288]	; 0x120
 800d19e:	e9dd 414a 	ldrd	r4, r1, [sp, #296]	; 0x128
 800d1a2:	9b00      	ldr	r3, [sp, #0]
 800d1a4:	2b00      	cmp	r3, #0
 800d1a6:	f040 80aa 	bne.w	800d2fe <__kernel_rem_pio2+0x65a>
 800d1aa:	4603      	mov	r3, r0
 800d1ac:	462a      	mov	r2, r5
 800d1ae:	9806      	ldr	r0, [sp, #24]
 800d1b0:	e9c0 2300 	strd	r2, r3, [r0]
 800d1b4:	4622      	mov	r2, r4
 800d1b6:	460b      	mov	r3, r1
 800d1b8:	e9c0 2302 	strd	r2, r3, [r0, #8]
 800d1bc:	463a      	mov	r2, r7
 800d1be:	4633      	mov	r3, r6
 800d1c0:	e9c0 2304 	strd	r2, r3, [r0, #16]
 800d1c4:	e7cd      	b.n	800d162 <__kernel_rem_pio2+0x4be>
 800d1c6:	2000      	movs	r0, #0
 800d1c8:	46a0      	mov	r8, r4
 800d1ca:	4601      	mov	r1, r0
 800d1cc:	ab48      	add	r3, sp, #288	; 0x120
 800d1ce:	441d      	add	r5, r3
 800d1d0:	f1b8 0f00 	cmp.w	r8, #0
 800d1d4:	da38      	bge.n	800d248 <__kernel_rem_pio2+0x5a4>
 800d1d6:	9b00      	ldr	r3, [sp, #0]
 800d1d8:	2b00      	cmp	r3, #0
 800d1da:	d03c      	beq.n	800d256 <__kernel_rem_pio2+0x5b2>
 800d1dc:	f101 4500 	add.w	r5, r1, #2147483648	; 0x80000000
 800d1e0:	4602      	mov	r2, r0
 800d1e2:	462b      	mov	r3, r5
 800d1e4:	9d06      	ldr	r5, [sp, #24]
 800d1e6:	2601      	movs	r6, #1
 800d1e8:	e9c5 2300 	strd	r2, r3, [r5]
 800d1ec:	460b      	mov	r3, r1
 800d1ee:	e9dd 0148 	ldrd	r0, r1, [sp, #288]	; 0x120
 800d1f2:	f7f2 ffb9 	bl	8000168 <__aeabi_dsub>
 800d1f6:	4684      	mov	ip, r0
 800d1f8:	460f      	mov	r7, r1
 800d1fa:	ad48      	add	r5, sp, #288	; 0x120
 800d1fc:	42b4      	cmp	r4, r6
 800d1fe:	da2c      	bge.n	800d25a <__kernel_rem_pio2+0x5b6>
 800d200:	9b00      	ldr	r3, [sp, #0]
 800d202:	b10b      	cbz	r3, 800d208 <__kernel_rem_pio2+0x564>
 800d204:	f107 4700 	add.w	r7, r7, #2147483648	; 0x80000000
 800d208:	4662      	mov	r2, ip
 800d20a:	463b      	mov	r3, r7
 800d20c:	9906      	ldr	r1, [sp, #24]
 800d20e:	e9c1 2302 	strd	r2, r3, [r1, #8]
 800d212:	e7a6      	b.n	800d162 <__kernel_rem_pio2+0x4be>
 800d214:	9ea2      	ldr	r6, [sp, #648]	; 0x288
 800d216:	ab48      	add	r3, sp, #288	; 0x120
 800d218:	4637      	mov	r7, r6
 800d21a:	441d      	add	r5, r3
 800d21c:	2c00      	cmp	r4, #0
 800d21e:	da09      	bge.n	800d234 <__kernel_rem_pio2+0x590>
 800d220:	9b00      	ldr	r3, [sp, #0]
 800d222:	b10b      	cbz	r3, 800d228 <__kernel_rem_pio2+0x584>
 800d224:	f107 4700 	add.w	r7, r7, #2147483648	; 0x80000000
 800d228:	4632      	mov	r2, r6
 800d22a:	463b      	mov	r3, r7
 800d22c:	9906      	ldr	r1, [sp, #24]
 800d22e:	e9c1 2300 	strd	r2, r3, [r1]
 800d232:	e796      	b.n	800d162 <__kernel_rem_pio2+0x4be>
 800d234:	4630      	mov	r0, r6
 800d236:	e875 2302 	ldrd	r2, r3, [r5], #-8
 800d23a:	4639      	mov	r1, r7
 800d23c:	f7f2 ff96 	bl	800016c <__adddf3>
 800d240:	3c01      	subs	r4, #1
 800d242:	4606      	mov	r6, r0
 800d244:	460f      	mov	r7, r1
 800d246:	e7e9      	b.n	800d21c <__kernel_rem_pio2+0x578>
 800d248:	e875 2302 	ldrd	r2, r3, [r5], #-8
 800d24c:	f7f2 ff8e 	bl	800016c <__adddf3>
 800d250:	f108 38ff 	add.w	r8, r8, #4294967295
 800d254:	e7bc      	b.n	800d1d0 <__kernel_rem_pio2+0x52c>
 800d256:	460d      	mov	r5, r1
 800d258:	e7c2      	b.n	800d1e0 <__kernel_rem_pio2+0x53c>
 800d25a:	4660      	mov	r0, ip
 800d25c:	e9f5 2302 	ldrd	r2, r3, [r5, #8]!
 800d260:	4639      	mov	r1, r7
 800d262:	f7f2 ff83 	bl	800016c <__adddf3>
 800d266:	3601      	adds	r6, #1
 800d268:	4684      	mov	ip, r0
 800d26a:	460f      	mov	r7, r1
 800d26c:	e7c6      	b.n	800d1fc <__kernel_rem_pio2+0x558>
 800d26e:	e9da 6700 	ldrd	r6, r7, [sl]
 800d272:	e95a 8902 	ldrd	r8, r9, [sl, #-8]
 800d276:	4632      	mov	r2, r6
 800d278:	463b      	mov	r3, r7
 800d27a:	4640      	mov	r0, r8
 800d27c:	4649      	mov	r1, r9
 800d27e:	f7f2 ff75 	bl	800016c <__adddf3>
 800d282:	4602      	mov	r2, r0
 800d284:	460b      	mov	r3, r1
 800d286:	e9cd 0102 	strd	r0, r1, [sp, #8]
 800d28a:	4640      	mov	r0, r8
 800d28c:	4649      	mov	r1, r9
 800d28e:	f7f2 ff6b 	bl	8000168 <__aeabi_dsub>
 800d292:	4632      	mov	r2, r6
 800d294:	463b      	mov	r3, r7
 800d296:	f7f2 ff69 	bl	800016c <__adddf3>
 800d29a:	e9dd 2302 	ldrd	r2, r3, [sp, #8]
 800d29e:	e86a 0102 	strd	r0, r1, [sl], #-8
 800d2a2:	f10b 3bff 	add.w	fp, fp, #4294967295
 800d2a6:	e9ca 2300 	strd	r2, r3, [sl]
 800d2aa:	e768      	b.n	800d17e <__kernel_rem_pio2+0x4da>
 800d2ac:	e9da 8900 	ldrd	r8, r9, [sl]
 800d2b0:	e95a 6702 	ldrd	r6, r7, [sl, #-8]
 800d2b4:	4642      	mov	r2, r8
 800d2b6:	464b      	mov	r3, r9
 800d2b8:	4630      	mov	r0, r6
 800d2ba:	4639      	mov	r1, r7
 800d2bc:	f7f2 ff56 	bl	800016c <__adddf3>
 800d2c0:	4602      	mov	r2, r0
 800d2c2:	460b      	mov	r3, r1
 800d2c4:	e9cd 0102 	strd	r0, r1, [sp, #8]
 800d2c8:	4630      	mov	r0, r6
 800d2ca:	4639      	mov	r1, r7
 800d2cc:	f7f2 ff4c 	bl	8000168 <__aeabi_dsub>
 800d2d0:	4642      	mov	r2, r8
 800d2d2:	464b      	mov	r3, r9
 800d2d4:	f7f2 ff4a 	bl	800016c <__adddf3>
 800d2d8:	e9dd 2302 	ldrd	r2, r3, [sp, #8]
 800d2dc:	e86a 0102 	strd	r0, r1, [sl], #-8
 800d2e0:	f10b 3bff 	add.w	fp, fp, #4294967295
 800d2e4:	e9ca 2300 	strd	r2, r3, [sl]
 800d2e8:	e74e      	b.n	800d188 <__kernel_rem_pio2+0x4e4>
 800d2ea:	4638      	mov	r0, r7
 800d2ec:	e875 2302 	ldrd	r2, r3, [r5], #-8
 800d2f0:	4631      	mov	r1, r6
 800d2f2:	f7f2 ff3b 	bl	800016c <__adddf3>
 800d2f6:	3c01      	subs	r4, #1
 800d2f8:	4607      	mov	r7, r0
 800d2fa:	460e      	mov	r6, r1
 800d2fc:	e74a      	b.n	800d194 <__kernel_rem_pio2+0x4f0>
 800d2fe:	9b06      	ldr	r3, [sp, #24]
 800d300:	f100 4000 	add.w	r0, r0, #2147483648	; 0x80000000
 800d304:	f101 4100 	add.w	r1, r1, #2147483648	; 0x80000000
 800d308:	f106 4600 	add.w	r6, r6, #2147483648	; 0x80000000
 800d30c:	e9c3 0401 	strd	r0, r4, [r3, #4]
 800d310:	e9c3 1703 	strd	r1, r7, [r3, #12]
 800d314:	601d      	str	r5, [r3, #0]
 800d316:	615e      	str	r6, [r3, #20]
 800d318:	e723      	b.n	800d162 <__kernel_rem_pio2+0x4be>
 800d31a:	bf00      	nop
 800d31c:	41700000 	.word	0x41700000
 800d320:	3e700000 	.word	0x3e700000
 800d324:	00000000 	.word	0x00000000

0800d328 <floor>:
 800d328:	f3c1 520a 	ubfx	r2, r1, #20, #11
 800d32c:	e92d 43f8 	stmdb	sp!, {r3, r4, r5, r6, r7, r8, r9, lr}
 800d330:	f2a2 36ff 	subw	r6, r2, #1023	; 0x3ff
 800d334:	2e13      	cmp	r6, #19
 800d336:	460b      	mov	r3, r1
 800d338:	4607      	mov	r7, r0
 800d33a:	460c      	mov	r4, r1
 800d33c:	4605      	mov	r5, r0
 800d33e:	dc32      	bgt.n	800d3a6 <floor+0x7e>
 800d340:	2e00      	cmp	r6, #0
 800d342:	da14      	bge.n	800d36e <floor+0x46>
 800d344:	a334      	add	r3, pc, #208	; (adr r3, 800d418 <floor+0xf0>)
 800d346:	e9d3 2300 	ldrd	r2, r3, [r3]
 800d34a:	f7f2 ff0f 	bl	800016c <__adddf3>
 800d34e:	2200      	movs	r2, #0
 800d350:	2300      	movs	r3, #0
 800d352:	f7f3 fb51 	bl	80009f8 <__aeabi_dcmpgt>
 800d356:	b138      	cbz	r0, 800d368 <floor+0x40>
 800d358:	2c00      	cmp	r4, #0
 800d35a:	da56      	bge.n	800d40a <floor+0xe2>
 800d35c:	f024 4400 	bic.w	r4, r4, #2147483648	; 0x80000000
 800d360:	4325      	orrs	r5, r4
 800d362:	d055      	beq.n	800d410 <floor+0xe8>
 800d364:	2500      	movs	r5, #0
 800d366:	4c2e      	ldr	r4, [pc, #184]	; (800d420 <floor+0xf8>)
 800d368:	4623      	mov	r3, r4
 800d36a:	462f      	mov	r7, r5
 800d36c:	e025      	b.n	800d3ba <floor+0x92>
 800d36e:	4a2d      	ldr	r2, [pc, #180]	; (800d424 <floor+0xfc>)
 800d370:	fa42 f806 	asr.w	r8, r2, r6
 800d374:	ea01 0208 	and.w	r2, r1, r8
 800d378:	4302      	orrs	r2, r0
 800d37a:	d01e      	beq.n	800d3ba <floor+0x92>
 800d37c:	a326      	add	r3, pc, #152	; (adr r3, 800d418 <floor+0xf0>)
 800d37e:	e9d3 2300 	ldrd	r2, r3, [r3]
 800d382:	f7f2 fef3 	bl	800016c <__adddf3>
 800d386:	2200      	movs	r2, #0
 800d388:	2300      	movs	r3, #0
 800d38a:	f7f3 fb35 	bl	80009f8 <__aeabi_dcmpgt>
 800d38e:	2800      	cmp	r0, #0
 800d390:	d0ea      	beq.n	800d368 <floor+0x40>
 800d392:	2c00      	cmp	r4, #0
 800d394:	bfbe      	ittt	lt
 800d396:	f44f 1380 	movlt.w	r3, #1048576	; 0x100000
 800d39a:	4133      	asrlt	r3, r6
 800d39c:	18e4      	addlt	r4, r4, r3
 800d39e:	2500      	movs	r5, #0
 800d3a0:	ea24 0408 	bic.w	r4, r4, r8
 800d3a4:	e7e0      	b.n	800d368 <floor+0x40>
 800d3a6:	2e33      	cmp	r6, #51	; 0x33
 800d3a8:	dd0b      	ble.n	800d3c2 <floor+0x9a>
 800d3aa:	f5b6 6f80 	cmp.w	r6, #1024	; 0x400
 800d3ae:	d104      	bne.n	800d3ba <floor+0x92>
 800d3b0:	4602      	mov	r2, r0
 800d3b2:	f7f2 fedb 	bl	800016c <__adddf3>
 800d3b6:	4607      	mov	r7, r0
 800d3b8:	460b      	mov	r3, r1
 800d3ba:	4638      	mov	r0, r7
 800d3bc:	4619      	mov	r1, r3
 800d3be:	e8bd 83f8 	ldmia.w	sp!, {r3, r4, r5, r6, r7, r8, r9, pc}
 800d3c2:	f04f 38ff 	mov.w	r8, #4294967295
 800d3c6:	f2a2 4213 	subw	r2, r2, #1043	; 0x413
 800d3ca:	fa28 f802 	lsr.w	r8, r8, r2
 800d3ce:	ea10 0f08 	tst.w	r0, r8
 800d3d2:	d0f2      	beq.n	800d3ba <floor+0x92>
 800d3d4:	a310      	add	r3, pc, #64	; (adr r3, 800d418 <floor+0xf0>)
 800d3d6:	e9d3 2300 	ldrd	r2, r3, [r3]
 800d3da:	f7f2 fec7 	bl	800016c <__adddf3>
 800d3de:	2200      	movs	r2, #0
 800d3e0:	2300      	movs	r3, #0
 800d3e2:	f7f3 fb09 	bl	80009f8 <__aeabi_dcmpgt>
 800d3e6:	2800      	cmp	r0, #0
 800d3e8:	d0be      	beq.n	800d368 <floor+0x40>
 800d3ea:	2c00      	cmp	r4, #0
 800d3ec:	da0a      	bge.n	800d404 <floor+0xdc>
 800d3ee:	2e14      	cmp	r6, #20
 800d3f0:	d101      	bne.n	800d3f6 <floor+0xce>
 800d3f2:	3401      	adds	r4, #1
 800d3f4:	e006      	b.n	800d404 <floor+0xdc>
 800d3f6:	2301      	movs	r3, #1
 800d3f8:	f1c6 0634 	rsb	r6, r6, #52	; 0x34
 800d3fc:	40b3      	lsls	r3, r6
 800d3fe:	441d      	add	r5, r3
 800d400:	42af      	cmp	r7, r5
 800d402:	d8f6      	bhi.n	800d3f2 <floor+0xca>
 800d404:	ea25 0508 	bic.w	r5, r5, r8
 800d408:	e7ae      	b.n	800d368 <floor+0x40>
 800d40a:	2500      	movs	r5, #0
 800d40c:	462c      	mov	r4, r5
 800d40e:	e7ab      	b.n	800d368 <floor+0x40>
 800d410:	f04f 4400 	mov.w	r4, #2147483648	; 0x80000000
 800d414:	e7a8      	b.n	800d368 <floor+0x40>
 800d416:	bf00      	nop
 800d418:	8800759c 	.word	0x8800759c
 800d41c:	7e37e43c 	.word	0x7e37e43c
 800d420:	bff00000 	.word	0xbff00000
 800d424:	000fffff 	.word	0x000fffff

0800d428 <_init>:
 800d428:	b5f8      	push	{r3, r4, r5, r6, r7, lr}
 800d42a:	bf00      	nop
 800d42c:	bcf8      	pop	{r3, r4, r5, r6, r7}
 800d42e:	bc08      	pop	{r3}
 800d430:	469e      	mov	lr, r3
 800d432:	4770      	bx	lr

0800d434 <_fini>:
 800d434:	b5f8      	push	{r3, r4, r5, r6, r7, lr}
 800d436:	bf00      	nop
 800d438:	bcf8      	pop	{r3, r4, r5, r6, r7}
 800d43a:	bc08      	pop	{r3}
 800d43c:	469e      	mov	lr, r3
 800d43e:	4770      	bx	lr
